
project_version2.elf:     file format elf32-littlearm

Sections:
Idx Name          Size      VMA       LMA       File off  Algn
  0 .isr_vector   00000198  08000000  08000000  00010000  2**0
                  CONTENTS, ALLOC, LOAD, READONLY, DATA
  1 .text         00008ef8  08000198  08000198  00010198  2**3
                  CONTENTS, ALLOC, LOAD, READONLY, CODE
  2 .rodata       00000988  08009090  08009090  00019090  2**1
                  CONTENTS, ALLOC, LOAD, READONLY, DATA
  3 .ARM.extab    00000000  08009a18  08009a18  00020168  2**0
                  CONTENTS
  4 .ARM          00000008  08009a18  08009a18  00019a18  2**2
                  CONTENTS, ALLOC, LOAD, READONLY, DATA
  5 .preinit_array 00000000  08009a20  08009a20  00020168  2**0
                  CONTENTS, ALLOC, LOAD, DATA
  6 .init_array   00000004  08009a20  08009a20  00019a20  2**2
                  CONTENTS, ALLOC, LOAD, DATA
  7 .fini_array   00000004  08009a24  08009a24  00019a24  2**2
                  CONTENTS, ALLOC, LOAD, DATA
  8 .data         00000168  20000000  08009a28  00020000  2**2
                  CONTENTS, ALLOC, LOAD, DATA
  9 .bss          00001438  20000168  08009b90  00020168  2**3
                  ALLOC
 10 ._user_heap_stack 00000600  200015a0  08009b90  000215a0  2**0
                  ALLOC
 11 .ARM.attributes 00000030  00000000  00000000  00020168  2**0
                  CONTENTS, READONLY
 12 .comment      00000053  00000000  00000000  00020198  2**0
                  CONTENTS, READONLY
 13 .debug_frame  000004b0  00000000  00000000  000201ec  2**2
                  CONTENTS, READONLY, DEBUGGING, OCTETS

Disassembly of section .text:

08000198 <__do_global_dtors_aux>:
 8000198:	b510      	push	{r4, lr}
 800019a:	4c05      	ldr	r4, [pc, #20]	; (80001b0 <__do_global_dtors_aux+0x18>)
 800019c:	7823      	ldrb	r3, [r4, #0]
 800019e:	b933      	cbnz	r3, 80001ae <__do_global_dtors_aux+0x16>
 80001a0:	4b04      	ldr	r3, [pc, #16]	; (80001b4 <__do_global_dtors_aux+0x1c>)
 80001a2:	b113      	cbz	r3, 80001aa <__do_global_dtors_aux+0x12>
 80001a4:	4804      	ldr	r0, [pc, #16]	; (80001b8 <__do_global_dtors_aux+0x20>)
 80001a6:	f3af 8000 	nop.w
 80001aa:	2301      	movs	r3, #1
 80001ac:	7023      	strb	r3, [r4, #0]
 80001ae:	bd10      	pop	{r4, pc}
 80001b0:	20000168 	.word	0x20000168
 80001b4:	00000000 	.word	0x00000000
 80001b8:	08009078 	.word	0x08009078

080001bc <frame_dummy>:
 80001bc:	b508      	push	{r3, lr}
 80001be:	4b03      	ldr	r3, [pc, #12]	; (80001cc <frame_dummy+0x10>)
 80001c0:	b11b      	cbz	r3, 80001ca <frame_dummy+0xe>
 80001c2:	4903      	ldr	r1, [pc, #12]	; (80001d0 <frame_dummy+0x14>)
 80001c4:	4803      	ldr	r0, [pc, #12]	; (80001d4 <frame_dummy+0x18>)
 80001c6:	f3af 8000 	nop.w
 80001ca:	bd08      	pop	{r3, pc}
 80001cc:	00000000 	.word	0x00000000
 80001d0:	2000016c 	.word	0x2000016c
 80001d4:	08009078 	.word	0x08009078

080001d8 <__aeabi_drsub>:
 80001d8:	f081 4100 	eor.w	r1, r1, #2147483648	; 0x80000000
 80001dc:	e002      	b.n	80001e4 <__adddf3>
 80001de:	bf00      	nop

080001e0 <__aeabi_dsub>:
 80001e0:	f083 4300 	eor.w	r3, r3, #2147483648	; 0x80000000

080001e4 <__adddf3>:
 80001e4:	b530      	push	{r4, r5, lr}
 80001e6:	ea4f 0441 	mov.w	r4, r1, lsl #1
 80001ea:	ea4f 0543 	mov.w	r5, r3, lsl #1
 80001ee:	ea94 0f05 	teq	r4, r5
 80001f2:	bf08      	it	eq
 80001f4:	ea90 0f02 	teqeq	r0, r2
 80001f8:	bf1f      	itttt	ne
 80001fa:	ea54 0c00 	orrsne.w	ip, r4, r0
 80001fe:	ea55 0c02 	orrsne.w	ip, r5, r2
 8000202:	ea7f 5c64 	mvnsne.w	ip, r4, asr #21
 8000206:	ea7f 5c65 	mvnsne.w	ip, r5, asr #21
 800020a:	f000 80e2 	beq.w	80003d2 <__adddf3+0x1ee>
 800020e:	ea4f 5454 	mov.w	r4, r4, lsr #21
 8000212:	ebd4 5555 	rsbs	r5, r4, r5, lsr #21
 8000216:	bfb8      	it	lt
 8000218:	426d      	neglt	r5, r5
 800021a:	dd0c      	ble.n	8000236 <__adddf3+0x52>
 800021c:	442c      	add	r4, r5
 800021e:	ea80 0202 	eor.w	r2, r0, r2
 8000222:	ea81 0303 	eor.w	r3, r1, r3
 8000226:	ea82 0000 	eor.w	r0, r2, r0
 800022a:	ea83 0101 	eor.w	r1, r3, r1
 800022e:	ea80 0202 	eor.w	r2, r0, r2
 8000232:	ea81 0303 	eor.w	r3, r1, r3
 8000236:	2d36      	cmp	r5, #54	; 0x36
 8000238:	bf88      	it	hi
 800023a:	bd30      	pophi	{r4, r5, pc}
 800023c:	f011 4f00 	tst.w	r1, #2147483648	; 0x80000000
 8000240:	ea4f 3101 	mov.w	r1, r1, lsl #12
 8000244:	f44f 1c80 	mov.w	ip, #1048576	; 0x100000
 8000248:	ea4c 3111 	orr.w	r1, ip, r1, lsr #12
 800024c:	d002      	beq.n	8000254 <__adddf3+0x70>
 800024e:	4240      	negs	r0, r0
 8000250:	eb61 0141 	sbc.w	r1, r1, r1, lsl #1
 8000254:	f013 4f00 	tst.w	r3, #2147483648	; 0x80000000
 8000258:	ea4f 3303 	mov.w	r3, r3, lsl #12
 800025c:	ea4c 3313 	orr.w	r3, ip, r3, lsr #12
 8000260:	d002      	beq.n	8000268 <__adddf3+0x84>
 8000262:	4252      	negs	r2, r2
 8000264:	eb63 0343 	sbc.w	r3, r3, r3, lsl #1
 8000268:	ea94 0f05 	teq	r4, r5
 800026c:	f000 80a7 	beq.w	80003be <__adddf3+0x1da>
 8000270:	f1a4 0401 	sub.w	r4, r4, #1
 8000274:	f1d5 0e20 	rsbs	lr, r5, #32
 8000278:	db0d      	blt.n	8000296 <__adddf3+0xb2>
 800027a:	fa02 fc0e 	lsl.w	ip, r2, lr
 800027e:	fa22 f205 	lsr.w	r2, r2, r5
 8000282:	1880      	adds	r0, r0, r2
 8000284:	f141 0100 	adc.w	r1, r1, #0
 8000288:	fa03 f20e 	lsl.w	r2, r3, lr
 800028c:	1880      	adds	r0, r0, r2
 800028e:	fa43 f305 	asr.w	r3, r3, r5
 8000292:	4159      	adcs	r1, r3
 8000294:	e00e      	b.n	80002b4 <__adddf3+0xd0>
 8000296:	f1a5 0520 	sub.w	r5, r5, #32
 800029a:	f10e 0e20 	add.w	lr, lr, #32
 800029e:	2a01      	cmp	r2, #1
 80002a0:	fa03 fc0e 	lsl.w	ip, r3, lr
 80002a4:	bf28      	it	cs
 80002a6:	f04c 0c02 	orrcs.w	ip, ip, #2
 80002aa:	fa43 f305 	asr.w	r3, r3, r5
 80002ae:	18c0      	adds	r0, r0, r3
 80002b0:	eb51 71e3 	adcs.w	r1, r1, r3, asr #31
 80002b4:	f001 4500 	and.w	r5, r1, #2147483648	; 0x80000000
 80002b8:	d507      	bpl.n	80002ca <__adddf3+0xe6>
 80002ba:	f04f 0e00 	mov.w	lr, #0
 80002be:	f1dc 0c00 	rsbs	ip, ip, #0
 80002c2:	eb7e 0000 	sbcs.w	r0, lr, r0
 80002c6:	eb6e 0101 	sbc.w	r1, lr, r1
 80002ca:	f5b1 1f80 	cmp.w	r1, #1048576	; 0x100000
 80002ce:	d31b      	bcc.n	8000308 <__adddf3+0x124>
 80002d0:	f5b1 1f00 	cmp.w	r1, #2097152	; 0x200000
 80002d4:	d30c      	bcc.n	80002f0 <__adddf3+0x10c>
 80002d6:	0849      	lsrs	r1, r1, #1
 80002d8:	ea5f 0030 	movs.w	r0, r0, rrx
 80002dc:	ea4f 0c3c 	mov.w	ip, ip, rrx
 80002e0:	f104 0401 	add.w	r4, r4, #1
 80002e4:	ea4f 5244 	mov.w	r2, r4, lsl #21
 80002e8:	f512 0f80 	cmn.w	r2, #4194304	; 0x400000
 80002ec:	f080 809a 	bcs.w	8000424 <__adddf3+0x240>
 80002f0:	f1bc 4f00 	cmp.w	ip, #2147483648	; 0x80000000
 80002f4:	bf08      	it	eq
 80002f6:	ea5f 0c50 	movseq.w	ip, r0, lsr #1
 80002fa:	f150 0000 	adcs.w	r0, r0, #0
 80002fe:	eb41 5104 	adc.w	r1, r1, r4, lsl #20
 8000302:	ea41 0105 	orr.w	r1, r1, r5
 8000306:	bd30      	pop	{r4, r5, pc}
 8000308:	ea5f 0c4c 	movs.w	ip, ip, lsl #1
 800030c:	4140      	adcs	r0, r0
 800030e:	eb41 0101 	adc.w	r1, r1, r1
 8000312:	3c01      	subs	r4, #1
 8000314:	bf28      	it	cs
 8000316:	f5b1 1f80 	cmpcs.w	r1, #1048576	; 0x100000
 800031a:	d2e9      	bcs.n	80002f0 <__adddf3+0x10c>
 800031c:	f091 0f00 	teq	r1, #0
 8000320:	bf04      	itt	eq
 8000322:	4601      	moveq	r1, r0
 8000324:	2000      	moveq	r0, #0
 8000326:	fab1 f381 	clz	r3, r1
 800032a:	bf08      	it	eq
 800032c:	3320      	addeq	r3, #32
 800032e:	f1a3 030b 	sub.w	r3, r3, #11
 8000332:	f1b3 0220 	subs.w	r2, r3, #32
 8000336:	da0c      	bge.n	8000352 <__adddf3+0x16e>
 8000338:	320c      	adds	r2, #12
 800033a:	dd08      	ble.n	800034e <__adddf3+0x16a>
 800033c:	f102 0c14 	add.w	ip, r2, #20
 8000340:	f1c2 020c 	rsb	r2, r2, #12
 8000344:	fa01 f00c 	lsl.w	r0, r1, ip
 8000348:	fa21 f102 	lsr.w	r1, r1, r2
 800034c:	e00c      	b.n	8000368 <__adddf3+0x184>
 800034e:	f102 0214 	add.w	r2, r2, #20
 8000352:	bfd8      	it	le
 8000354:	f1c2 0c20 	rsble	ip, r2, #32
 8000358:	fa01 f102 	lsl.w	r1, r1, r2
 800035c:	fa20 fc0c 	lsr.w	ip, r0, ip
 8000360:	bfdc      	itt	le
 8000362:	ea41 010c 	orrle.w	r1, r1, ip
 8000366:	4090      	lslle	r0, r2
 8000368:	1ae4      	subs	r4, r4, r3
 800036a:	bfa2      	ittt	ge
 800036c:	eb01 5104 	addge.w	r1, r1, r4, lsl #20
 8000370:	4329      	orrge	r1, r5
 8000372:	bd30      	popge	{r4, r5, pc}
 8000374:	ea6f 0404 	mvn.w	r4, r4
 8000378:	3c1f      	subs	r4, #31
 800037a:	da1c      	bge.n	80003b6 <__adddf3+0x1d2>
 800037c:	340c      	adds	r4, #12
 800037e:	dc0e      	bgt.n	800039e <__adddf3+0x1ba>
 8000380:	f104 0414 	add.w	r4, r4, #20
 8000384:	f1c4 0220 	rsb	r2, r4, #32
 8000388:	fa20 f004 	lsr.w	r0, r0, r4
 800038c:	fa01 f302 	lsl.w	r3, r1, r2
 8000390:	ea40 0003 	orr.w	r0, r0, r3
 8000394:	fa21 f304 	lsr.w	r3, r1, r4
 8000398:	ea45 0103 	orr.w	r1, r5, r3
 800039c:	bd30      	pop	{r4, r5, pc}
 800039e:	f1c4 040c 	rsb	r4, r4, #12
 80003a2:	f1c4 0220 	rsb	r2, r4, #32
 80003a6:	fa20 f002 	lsr.w	r0, r0, r2
 80003aa:	fa01 f304 	lsl.w	r3, r1, r4
 80003ae:	ea40 0003 	orr.w	r0, r0, r3
 80003b2:	4629      	mov	r1, r5
 80003b4:	bd30      	pop	{r4, r5, pc}
 80003b6:	fa21 f004 	lsr.w	r0, r1, r4
 80003ba:	4629      	mov	r1, r5
 80003bc:	bd30      	pop	{r4, r5, pc}
 80003be:	f094 0f00 	teq	r4, #0
 80003c2:	f483 1380 	eor.w	r3, r3, #1048576	; 0x100000
 80003c6:	bf06      	itte	eq
 80003c8:	f481 1180 	eoreq.w	r1, r1, #1048576	; 0x100000
 80003cc:	3401      	addeq	r4, #1
 80003ce:	3d01      	subne	r5, #1
 80003d0:	e74e      	b.n	8000270 <__adddf3+0x8c>
 80003d2:	ea7f 5c64 	mvns.w	ip, r4, asr #21
 80003d6:	bf18      	it	ne
 80003d8:	ea7f 5c65 	mvnsne.w	ip, r5, asr #21
 80003dc:	d029      	beq.n	8000432 <__adddf3+0x24e>
 80003de:	ea94 0f05 	teq	r4, r5
 80003e2:	bf08      	it	eq
 80003e4:	ea90 0f02 	teqeq	r0, r2
 80003e8:	d005      	beq.n	80003f6 <__adddf3+0x212>
 80003ea:	ea54 0c00 	orrs.w	ip, r4, r0
 80003ee:	bf04      	itt	eq
 80003f0:	4619      	moveq	r1, r3
 80003f2:	4610      	moveq	r0, r2
 80003f4:	bd30      	pop	{r4, r5, pc}
 80003f6:	ea91 0f03 	teq	r1, r3
 80003fa:	bf1e      	ittt	ne
 80003fc:	2100      	movne	r1, #0
 80003fe:	2000      	movne	r0, #0
 8000400:	bd30      	popne	{r4, r5, pc}
 8000402:	ea5f 5c54 	movs.w	ip, r4, lsr #21
 8000406:	d105      	bne.n	8000414 <__adddf3+0x230>
 8000408:	0040      	lsls	r0, r0, #1
 800040a:	4149      	adcs	r1, r1
 800040c:	bf28      	it	cs
 800040e:	f041 4100 	orrcs.w	r1, r1, #2147483648	; 0x80000000
 8000412:	bd30      	pop	{r4, r5, pc}
 8000414:	f514 0480 	adds.w	r4, r4, #4194304	; 0x400000
 8000418:	bf3c      	itt	cc
 800041a:	f501 1180 	addcc.w	r1, r1, #1048576	; 0x100000
 800041e:	bd30      	popcc	{r4, r5, pc}
 8000420:	f001 4500 	and.w	r5, r1, #2147483648	; 0x80000000
 8000424:	f045 41fe 	orr.w	r1, r5, #2130706432	; 0x7f000000
 8000428:	f441 0170 	orr.w	r1, r1, #15728640	; 0xf00000
 800042c:	f04f 0000 	mov.w	r0, #0
 8000430:	bd30      	pop	{r4, r5, pc}
 8000432:	ea7f 5c64 	mvns.w	ip, r4, asr #21
 8000436:	bf1a      	itte	ne
 8000438:	4619      	movne	r1, r3
 800043a:	4610      	movne	r0, r2
 800043c:	ea7f 5c65 	mvnseq.w	ip, r5, asr #21
 8000440:	bf1c      	itt	ne
 8000442:	460b      	movne	r3, r1
 8000444:	4602      	movne	r2, r0
 8000446:	ea50 3401 	orrs.w	r4, r0, r1, lsl #12
 800044a:	bf06      	itte	eq
 800044c:	ea52 3503 	orrseq.w	r5, r2, r3, lsl #12
 8000450:	ea91 0f03 	teqeq	r1, r3
 8000454:	f441 2100 	orrne.w	r1, r1, #524288	; 0x80000
 8000458:	bd30      	pop	{r4, r5, pc}
 800045a:	bf00      	nop

0800045c <__aeabi_ui2d>:
 800045c:	f090 0f00 	teq	r0, #0
 8000460:	bf04      	itt	eq
 8000462:	2100      	moveq	r1, #0
 8000464:	4770      	bxeq	lr
 8000466:	b530      	push	{r4, r5, lr}
 8000468:	f44f 6480 	mov.w	r4, #1024	; 0x400
 800046c:	f104 0432 	add.w	r4, r4, #50	; 0x32
 8000470:	f04f 0500 	mov.w	r5, #0
 8000474:	f04f 0100 	mov.w	r1, #0
 8000478:	e750      	b.n	800031c <__adddf3+0x138>
 800047a:	bf00      	nop

0800047c <__aeabi_i2d>:
 800047c:	f090 0f00 	teq	r0, #0
 8000480:	bf04      	itt	eq
 8000482:	2100      	moveq	r1, #0
 8000484:	4770      	bxeq	lr
 8000486:	b530      	push	{r4, r5, lr}
 8000488:	f44f 6480 	mov.w	r4, #1024	; 0x400
 800048c:	f104 0432 	add.w	r4, r4, #50	; 0x32
 8000490:	f010 4500 	ands.w	r5, r0, #2147483648	; 0x80000000
 8000494:	bf48      	it	mi
 8000496:	4240      	negmi	r0, r0
 8000498:	f04f 0100 	mov.w	r1, #0
 800049c:	e73e      	b.n	800031c <__adddf3+0x138>
 800049e:	bf00      	nop

080004a0 <__aeabi_f2d>:
 80004a0:	0042      	lsls	r2, r0, #1
 80004a2:	ea4f 01e2 	mov.w	r1, r2, asr #3
 80004a6:	ea4f 0131 	mov.w	r1, r1, rrx
 80004aa:	ea4f 7002 	mov.w	r0, r2, lsl #28
 80004ae:	bf1f      	itttt	ne
 80004b0:	f012 437f 	andsne.w	r3, r2, #4278190080	; 0xff000000
 80004b4:	f093 4f7f 	teqne	r3, #4278190080	; 0xff000000
 80004b8:	f081 5160 	eorne.w	r1, r1, #939524096	; 0x38000000
 80004bc:	4770      	bxne	lr
 80004be:	f032 427f 	bics.w	r2, r2, #4278190080	; 0xff000000
 80004c2:	bf08      	it	eq
 80004c4:	4770      	bxeq	lr
 80004c6:	f093 4f7f 	teq	r3, #4278190080	; 0xff000000
 80004ca:	bf04      	itt	eq
 80004cc:	f441 2100 	orreq.w	r1, r1, #524288	; 0x80000
 80004d0:	4770      	bxeq	lr
 80004d2:	b530      	push	{r4, r5, lr}
 80004d4:	f44f 7460 	mov.w	r4, #896	; 0x380
 80004d8:	f001 4500 	and.w	r5, r1, #2147483648	; 0x80000000
 80004dc:	f021 4100 	bic.w	r1, r1, #2147483648	; 0x80000000
 80004e0:	e71c      	b.n	800031c <__adddf3+0x138>
 80004e2:	bf00      	nop

080004e4 <__aeabi_ul2d>:
 80004e4:	ea50 0201 	orrs.w	r2, r0, r1
 80004e8:	bf08      	it	eq
 80004ea:	4770      	bxeq	lr
 80004ec:	b530      	push	{r4, r5, lr}
 80004ee:	f04f 0500 	mov.w	r5, #0
 80004f2:	e00a      	b.n	800050a <__aeabi_l2d+0x16>

080004f4 <__aeabi_l2d>:
 80004f4:	ea50 0201 	orrs.w	r2, r0, r1
 80004f8:	bf08      	it	eq
 80004fa:	4770      	bxeq	lr
 80004fc:	b530      	push	{r4, r5, lr}
 80004fe:	f011 4500 	ands.w	r5, r1, #2147483648	; 0x80000000
 8000502:	d502      	bpl.n	800050a <__aeabi_l2d+0x16>
 8000504:	4240      	negs	r0, r0
 8000506:	eb61 0141 	sbc.w	r1, r1, r1, lsl #1
 800050a:	f44f 6480 	mov.w	r4, #1024	; 0x400
 800050e:	f104 0432 	add.w	r4, r4, #50	; 0x32
 8000512:	ea5f 5c91 	movs.w	ip, r1, lsr #22
 8000516:	f43f aed8 	beq.w	80002ca <__adddf3+0xe6>
 800051a:	f04f 0203 	mov.w	r2, #3
 800051e:	ea5f 0cdc 	movs.w	ip, ip, lsr #3
 8000522:	bf18      	it	ne
 8000524:	3203      	addne	r2, #3
 8000526:	ea5f 0cdc 	movs.w	ip, ip, lsr #3
 800052a:	bf18      	it	ne
 800052c:	3203      	addne	r2, #3
 800052e:	eb02 02dc 	add.w	r2, r2, ip, lsr #3
 8000532:	f1c2 0320 	rsb	r3, r2, #32
 8000536:	fa00 fc03 	lsl.w	ip, r0, r3
 800053a:	fa20 f002 	lsr.w	r0, r0, r2
 800053e:	fa01 fe03 	lsl.w	lr, r1, r3
 8000542:	ea40 000e 	orr.w	r0, r0, lr
 8000546:	fa21 f102 	lsr.w	r1, r1, r2
 800054a:	4414      	add	r4, r2
 800054c:	e6bd      	b.n	80002ca <__adddf3+0xe6>
 800054e:	bf00      	nop

08000550 <__aeabi_dmul>:
 8000550:	b570      	push	{r4, r5, r6, lr}
 8000552:	f04f 0cff 	mov.w	ip, #255	; 0xff
 8000556:	f44c 6ce0 	orr.w	ip, ip, #1792	; 0x700
 800055a:	ea1c 5411 	ands.w	r4, ip, r1, lsr #20
 800055e:	bf1d      	ittte	ne
 8000560:	ea1c 5513 	andsne.w	r5, ip, r3, lsr #20
 8000564:	ea94 0f0c 	teqne	r4, ip
 8000568:	ea95 0f0c 	teqne	r5, ip
 800056c:	f000 f8de 	bleq	800072c <__aeabi_dmul+0x1dc>
 8000570:	442c      	add	r4, r5
 8000572:	ea81 0603 	eor.w	r6, r1, r3
 8000576:	ea21 514c 	bic.w	r1, r1, ip, lsl #21
 800057a:	ea23 534c 	bic.w	r3, r3, ip, lsl #21
 800057e:	ea50 3501 	orrs.w	r5, r0, r1, lsl #12
 8000582:	bf18      	it	ne
 8000584:	ea52 3503 	orrsne.w	r5, r2, r3, lsl #12
 8000588:	f441 1180 	orr.w	r1, r1, #1048576	; 0x100000
 800058c:	f443 1380 	orr.w	r3, r3, #1048576	; 0x100000
 8000590:	d038      	beq.n	8000604 <__aeabi_dmul+0xb4>
 8000592:	fba0 ce02 	umull	ip, lr, r0, r2
 8000596:	f04f 0500 	mov.w	r5, #0
 800059a:	fbe1 e502 	umlal	lr, r5, r1, r2
 800059e:	f006 4200 	and.w	r2, r6, #2147483648	; 0x80000000
 80005a2:	fbe0 e503 	umlal	lr, r5, r0, r3
 80005a6:	f04f 0600 	mov.w	r6, #0
 80005aa:	fbe1 5603 	umlal	r5, r6, r1, r3
 80005ae:	f09c 0f00 	teq	ip, #0
 80005b2:	bf18      	it	ne
 80005b4:	f04e 0e01 	orrne.w	lr, lr, #1
 80005b8:	f1a4 04ff 	sub.w	r4, r4, #255	; 0xff
 80005bc:	f5b6 7f00 	cmp.w	r6, #512	; 0x200
 80005c0:	f564 7440 	sbc.w	r4, r4, #768	; 0x300
 80005c4:	d204      	bcs.n	80005d0 <__aeabi_dmul+0x80>
 80005c6:	ea5f 0e4e 	movs.w	lr, lr, lsl #1
 80005ca:	416d      	adcs	r5, r5
 80005cc:	eb46 0606 	adc.w	r6, r6, r6
 80005d0:	ea42 21c6 	orr.w	r1, r2, r6, lsl #11
 80005d4:	ea41 5155 	orr.w	r1, r1, r5, lsr #21
 80005d8:	ea4f 20c5 	mov.w	r0, r5, lsl #11
 80005dc:	ea40 505e 	orr.w	r0, r0, lr, lsr #21
 80005e0:	ea4f 2ece 	mov.w	lr, lr, lsl #11
 80005e4:	f1b4 0cfd 	subs.w	ip, r4, #253	; 0xfd
 80005e8:	bf88      	it	hi
 80005ea:	f5bc 6fe0 	cmphi.w	ip, #1792	; 0x700
 80005ee:	d81e      	bhi.n	800062e <__aeabi_dmul+0xde>
 80005f0:	f1be 4f00 	cmp.w	lr, #2147483648	; 0x80000000
 80005f4:	bf08      	it	eq
 80005f6:	ea5f 0e50 	movseq.w	lr, r0, lsr #1
 80005fa:	f150 0000 	adcs.w	r0, r0, #0
 80005fe:	eb41 5104 	adc.w	r1, r1, r4, lsl #20
 8000602:	bd70      	pop	{r4, r5, r6, pc}
 8000604:	f006 4600 	and.w	r6, r6, #2147483648	; 0x80000000
 8000608:	ea46 0101 	orr.w	r1, r6, r1
 800060c:	ea40 0002 	orr.w	r0, r0, r2
 8000610:	ea81 0103 	eor.w	r1, r1, r3
 8000614:	ebb4 045c 	subs.w	r4, r4, ip, lsr #1
 8000618:	bfc2      	ittt	gt
 800061a:	ebd4 050c 	rsbsgt	r5, r4, ip
 800061e:	ea41 5104 	orrgt.w	r1, r1, r4, lsl #20
 8000622:	bd70      	popgt	{r4, r5, r6, pc}
 8000624:	f441 1180 	orr.w	r1, r1, #1048576	; 0x100000
 8000628:	f04f 0e00 	mov.w	lr, #0
 800062c:	3c01      	subs	r4, #1
 800062e:	f300 80ab 	bgt.w	8000788 <__aeabi_dmul+0x238>
 8000632:	f114 0f36 	cmn.w	r4, #54	; 0x36
 8000636:	bfde      	ittt	le
 8000638:	2000      	movle	r0, #0
 800063a:	f001 4100 	andle.w	r1, r1, #2147483648	; 0x80000000
 800063e:	bd70      	pople	{r4, r5, r6, pc}
 8000640:	f1c4 0400 	rsb	r4, r4, #0
 8000644:	3c20      	subs	r4, #32
 8000646:	da35      	bge.n	80006b4 <__aeabi_dmul+0x164>
 8000648:	340c      	adds	r4, #12
 800064a:	dc1b      	bgt.n	8000684 <__aeabi_dmul+0x134>
 800064c:	f104 0414 	add.w	r4, r4, #20
 8000650:	f1c4 0520 	rsb	r5, r4, #32
 8000654:	fa00 f305 	lsl.w	r3, r0, r5
 8000658:	fa20 f004 	lsr.w	r0, r0, r4
 800065c:	fa01 f205 	lsl.w	r2, r1, r5
 8000660:	ea40 0002 	orr.w	r0, r0, r2
 8000664:	f001 4200 	and.w	r2, r1, #2147483648	; 0x80000000
 8000668:	f021 4100 	bic.w	r1, r1, #2147483648	; 0x80000000
 800066c:	eb10 70d3 	adds.w	r0, r0, r3, lsr #31
 8000670:	fa21 f604 	lsr.w	r6, r1, r4
 8000674:	eb42 0106 	adc.w	r1, r2, r6
 8000678:	ea5e 0e43 	orrs.w	lr, lr, r3, lsl #1
 800067c:	bf08      	it	eq
 800067e:	ea20 70d3 	biceq.w	r0, r0, r3, lsr #31
 8000682:	bd70      	pop	{r4, r5, r6, pc}
 8000684:	f1c4 040c 	rsb	r4, r4, #12
 8000688:	f1c4 0520 	rsb	r5, r4, #32
 800068c:	fa00 f304 	lsl.w	r3, r0, r4
 8000690:	fa20 f005 	lsr.w	r0, r0, r5
 8000694:	fa01 f204 	lsl.w	r2, r1, r4
 8000698:	ea40 0002 	orr.w	r0, r0, r2
 800069c:	f001 4100 	and.w	r1, r1, #2147483648	; 0x80000000
 80006a0:	eb10 70d3 	adds.w	r0, r0, r3, lsr #31
 80006a4:	f141 0100 	adc.w	r1, r1, #0
 80006a8:	ea5e 0e43 	orrs.w	lr, lr, r3, lsl #1
 80006ac:	bf08      	it	eq
 80006ae:	ea20 70d3 	biceq.w	r0, r0, r3, lsr #31
 80006b2:	bd70      	pop	{r4, r5, r6, pc}
 80006b4:	f1c4 0520 	rsb	r5, r4, #32
 80006b8:	fa00 f205 	lsl.w	r2, r0, r5
 80006bc:	ea4e 0e02 	orr.w	lr, lr, r2
 80006c0:	fa20 f304 	lsr.w	r3, r0, r4
 80006c4:	fa01 f205 	lsl.w	r2, r1, r5
 80006c8:	ea43 0302 	orr.w	r3, r3, r2
 80006cc:	fa21 f004 	lsr.w	r0, r1, r4
 80006d0:	f001 4100 	and.w	r1, r1, #2147483648	; 0x80000000
 80006d4:	fa21 f204 	lsr.w	r2, r1, r4
 80006d8:	ea20 0002 	bic.w	r0, r0, r2
 80006dc:	eb00 70d3 	add.w	r0, r0, r3, lsr #31
 80006e0:	ea5e 0e43 	orrs.w	lr, lr, r3, lsl #1
 80006e4:	bf08      	it	eq
 80006e6:	ea20 70d3 	biceq.w	r0, r0, r3, lsr #31
 80006ea:	bd70      	pop	{r4, r5, r6, pc}
 80006ec:	f094 0f00 	teq	r4, #0
 80006f0:	d10f      	bne.n	8000712 <__aeabi_dmul+0x1c2>
 80006f2:	f001 4600 	and.w	r6, r1, #2147483648	; 0x80000000
 80006f6:	0040      	lsls	r0, r0, #1
 80006f8:	eb41 0101 	adc.w	r1, r1, r1
 80006fc:	f411 1f80 	tst.w	r1, #1048576	; 0x100000
 8000700:	bf08      	it	eq
 8000702:	3c01      	subeq	r4, #1
 8000704:	d0f7      	beq.n	80006f6 <__aeabi_dmul+0x1a6>
 8000706:	ea41 0106 	orr.w	r1, r1, r6
 800070a:	f095 0f00 	teq	r5, #0
 800070e:	bf18      	it	ne
 8000710:	4770      	bxne	lr
 8000712:	f003 4600 	and.w	r6, r3, #2147483648	; 0x80000000
 8000716:	0052      	lsls	r2, r2, #1
 8000718:	eb43 0303 	adc.w	r3, r3, r3
 800071c:	f413 1f80 	tst.w	r3, #1048576	; 0x100000
 8000720:	bf08      	it	eq
 8000722:	3d01      	subeq	r5, #1
 8000724:	d0f7      	beq.n	8000716 <__aeabi_dmul+0x1c6>
 8000726:	ea43 0306 	orr.w	r3, r3, r6
 800072a:	4770      	bx	lr
 800072c:	ea94 0f0c 	teq	r4, ip
 8000730:	ea0c 5513 	and.w	r5, ip, r3, lsr #20
 8000734:	bf18      	it	ne
 8000736:	ea95 0f0c 	teqne	r5, ip
 800073a:	d00c      	beq.n	8000756 <__aeabi_dmul+0x206>
 800073c:	ea50 0641 	orrs.w	r6, r0, r1, lsl #1
 8000740:	bf18      	it	ne
 8000742:	ea52 0643 	orrsne.w	r6, r2, r3, lsl #1
 8000746:	d1d1      	bne.n	80006ec <__aeabi_dmul+0x19c>
 8000748:	ea81 0103 	eor.w	r1, r1, r3
 800074c:	f001 4100 	and.w	r1, r1, #2147483648	; 0x80000000
 8000750:	f04f 0000 	mov.w	r0, #0
 8000754:	bd70      	pop	{r4, r5, r6, pc}
 8000756:	ea50 0641 	orrs.w	r6, r0, r1, lsl #1
 800075a:	bf06      	itte	eq
 800075c:	4610      	moveq	r0, r2
 800075e:	4619      	moveq	r1, r3
 8000760:	ea52 0643 	orrsne.w	r6, r2, r3, lsl #1
 8000764:	d019      	beq.n	800079a <__aeabi_dmul+0x24a>
 8000766:	ea94 0f0c 	teq	r4, ip
 800076a:	d102      	bne.n	8000772 <__aeabi_dmul+0x222>
 800076c:	ea50 3601 	orrs.w	r6, r0, r1, lsl #12
 8000770:	d113      	bne.n	800079a <__aeabi_dmul+0x24a>
 8000772:	ea95 0f0c 	teq	r5, ip
 8000776:	d105      	bne.n	8000784 <__aeabi_dmul+0x234>
 8000778:	ea52 3603 	orrs.w	r6, r2, r3, lsl #12
 800077c:	bf1c      	itt	ne
 800077e:	4610      	movne	r0, r2
 8000780:	4619      	movne	r1, r3
 8000782:	d10a      	bne.n	800079a <__aeabi_dmul+0x24a>
 8000784:	ea81 0103 	eor.w	r1, r1, r3
 8000788:	f001 4100 	and.w	r1, r1, #2147483648	; 0x80000000
 800078c:	f041 41fe 	orr.w	r1, r1, #2130706432	; 0x7f000000
 8000790:	f441 0170 	orr.w	r1, r1, #15728640	; 0xf00000
 8000794:	f04f 0000 	mov.w	r0, #0
 8000798:	bd70      	pop	{r4, r5, r6, pc}
 800079a:	f041 41fe 	orr.w	r1, r1, #2130706432	; 0x7f000000
 800079e:	f441 0178 	orr.w	r1, r1, #16252928	; 0xf80000
 80007a2:	bd70      	pop	{r4, r5, r6, pc}

080007a4 <__aeabi_ddiv>:
 80007a4:	b570      	push	{r4, r5, r6, lr}
 80007a6:	f04f 0cff 	mov.w	ip, #255	; 0xff
 80007aa:	f44c 6ce0 	orr.w	ip, ip, #1792	; 0x700
 80007ae:	ea1c 5411 	ands.w	r4, ip, r1, lsr #20
 80007b2:	bf1d      	ittte	ne
 80007b4:	ea1c 5513 	andsne.w	r5, ip, r3, lsr #20
 80007b8:	ea94 0f0c 	teqne	r4, ip
 80007bc:	ea95 0f0c 	teqne	r5, ip
 80007c0:	f000 f8a7 	bleq	8000912 <__aeabi_ddiv+0x16e>
 80007c4:	eba4 0405 	sub.w	r4, r4, r5
 80007c8:	ea81 0e03 	eor.w	lr, r1, r3
 80007cc:	ea52 3503 	orrs.w	r5, r2, r3, lsl #12
 80007d0:	ea4f 3101 	mov.w	r1, r1, lsl #12
 80007d4:	f000 8088 	beq.w	80008e8 <__aeabi_ddiv+0x144>
 80007d8:	ea4f 3303 	mov.w	r3, r3, lsl #12
 80007dc:	f04f 5580 	mov.w	r5, #268435456	; 0x10000000
 80007e0:	ea45 1313 	orr.w	r3, r5, r3, lsr #4
 80007e4:	ea43 6312 	orr.w	r3, r3, r2, lsr #24
 80007e8:	ea4f 2202 	mov.w	r2, r2, lsl #8
 80007ec:	ea45 1511 	orr.w	r5, r5, r1, lsr #4
 80007f0:	ea45 6510 	orr.w	r5, r5, r0, lsr #24
 80007f4:	ea4f 2600 	mov.w	r6, r0, lsl #8
 80007f8:	f00e 4100 	and.w	r1, lr, #2147483648	; 0x80000000
 80007fc:	429d      	cmp	r5, r3
 80007fe:	bf08      	it	eq
 8000800:	4296      	cmpeq	r6, r2
 8000802:	f144 04fd 	adc.w	r4, r4, #253	; 0xfd
 8000806:	f504 7440 	add.w	r4, r4, #768	; 0x300
 800080a:	d202      	bcs.n	8000812 <__aeabi_ddiv+0x6e>
 800080c:	085b      	lsrs	r3, r3, #1
 800080e:	ea4f 0232 	mov.w	r2, r2, rrx
 8000812:	1ab6      	subs	r6, r6, r2
 8000814:	eb65 0503 	sbc.w	r5, r5, r3
 8000818:	085b      	lsrs	r3, r3, #1
 800081a:	ea4f 0232 	mov.w	r2, r2, rrx
 800081e:	f44f 1080 	mov.w	r0, #1048576	; 0x100000
 8000822:	f44f 2c00 	mov.w	ip, #524288	; 0x80000
 8000826:	ebb6 0e02 	subs.w	lr, r6, r2
 800082a:	eb75 0e03 	sbcs.w	lr, r5, r3
 800082e:	bf22      	ittt	cs
 8000830:	1ab6      	subcs	r6, r6, r2
 8000832:	4675      	movcs	r5, lr
 8000834:	ea40 000c 	orrcs.w	r0, r0, ip
 8000838:	085b      	lsrs	r3, r3, #1
 800083a:	ea4f 0232 	mov.w	r2, r2, rrx
 800083e:	ebb6 0e02 	subs.w	lr, r6, r2
 8000842:	eb75 0e03 	sbcs.w	lr, r5, r3
 8000846:	bf22      	ittt	cs
 8000848:	1ab6      	subcs	r6, r6, r2
 800084a:	4675      	movcs	r5, lr
 800084c:	ea40 005c 	orrcs.w	r0, r0, ip, lsr #1
 8000850:	085b      	lsrs	r3, r3, #1
 8000852:	ea4f 0232 	mov.w	r2, r2, rrx
 8000856:	ebb6 0e02 	subs.w	lr, r6, r2
 800085a:	eb75 0e03 	sbcs.w	lr, r5, r3
 800085e:	bf22      	ittt	cs
 8000860:	1ab6      	subcs	r6, r6, r2
 8000862:	4675      	movcs	r5, lr
 8000864:	ea40 009c 	orrcs.w	r0, r0, ip, lsr #2
 8000868:	085b      	lsrs	r3, r3, #1
 800086a:	ea4f 0232 	mov.w	r2, r2, rrx
 800086e:	ebb6 0e02 	subs.w	lr, r6, r2
 8000872:	eb75 0e03 	sbcs.w	lr, r5, r3
 8000876:	bf22      	ittt	cs
 8000878:	1ab6      	subcs	r6, r6, r2
 800087a:	4675      	movcs	r5, lr
 800087c:	ea40 00dc 	orrcs.w	r0, r0, ip, lsr #3
 8000880:	ea55 0e06 	orrs.w	lr, r5, r6
 8000884:	d018      	beq.n	80008b8 <__aeabi_ddiv+0x114>
 8000886:	ea4f 1505 	mov.w	r5, r5, lsl #4
 800088a:	ea45 7516 	orr.w	r5, r5, r6, lsr #28
 800088e:	ea4f 1606 	mov.w	r6, r6, lsl #4
 8000892:	ea4f 03c3 	mov.w	r3, r3, lsl #3
 8000896:	ea43 7352 	orr.w	r3, r3, r2, lsr #29
 800089a:	ea4f 02c2 	mov.w	r2, r2, lsl #3
 800089e:	ea5f 1c1c 	movs.w	ip, ip, lsr #4
 80008a2:	d1c0      	bne.n	8000826 <__aeabi_ddiv+0x82>
 80008a4:	f411 1f80 	tst.w	r1, #1048576	; 0x100000
 80008a8:	d10b      	bne.n	80008c2 <__aeabi_ddiv+0x11e>
 80008aa:	ea41 0100 	orr.w	r1, r1, r0
 80008ae:	f04f 0000 	mov.w	r0, #0
 80008b2:	f04f 4c00 	mov.w	ip, #2147483648	; 0x80000000
 80008b6:	e7b6      	b.n	8000826 <__aeabi_ddiv+0x82>
 80008b8:	f411 1f80 	tst.w	r1, #1048576	; 0x100000
 80008bc:	bf04      	itt	eq
 80008be:	4301      	orreq	r1, r0
 80008c0:	2000      	moveq	r0, #0
 80008c2:	f1b4 0cfd 	subs.w	ip, r4, #253	; 0xfd
 80008c6:	bf88      	it	hi
 80008c8:	f5bc 6fe0 	cmphi.w	ip, #1792	; 0x700
 80008cc:	f63f aeaf 	bhi.w	800062e <__aeabi_dmul+0xde>
 80008d0:	ebb5 0c03 	subs.w	ip, r5, r3
 80008d4:	bf04      	itt	eq
 80008d6:	ebb6 0c02 	subseq.w	ip, r6, r2
 80008da:	ea5f 0c50 	movseq.w	ip, r0, lsr #1
 80008de:	f150 0000 	adcs.w	r0, r0, #0
 80008e2:	eb41 5104 	adc.w	r1, r1, r4, lsl #20
 80008e6:	bd70      	pop	{r4, r5, r6, pc}
 80008e8:	f00e 4e00 	and.w	lr, lr, #2147483648	; 0x80000000
 80008ec:	ea4e 3111 	orr.w	r1, lr, r1, lsr #12
 80008f0:	eb14 045c 	adds.w	r4, r4, ip, lsr #1
 80008f4:	bfc2      	ittt	gt
 80008f6:	ebd4 050c 	rsbsgt	r5, r4, ip
 80008fa:	ea41 5104 	orrgt.w	r1, r1, r4, lsl #20
 80008fe:	bd70      	popgt	{r4, r5, r6, pc}
 8000900:	f441 1180 	orr.w	r1, r1, #1048576	; 0x100000
 8000904:	f04f 0e00 	mov.w	lr, #0
 8000908:	3c01      	subs	r4, #1
 800090a:	e690      	b.n	800062e <__aeabi_dmul+0xde>
 800090c:	ea45 0e06 	orr.w	lr, r5, r6
 8000910:	e68d      	b.n	800062e <__aeabi_dmul+0xde>
 8000912:	ea0c 5513 	and.w	r5, ip, r3, lsr #20
 8000916:	ea94 0f0c 	teq	r4, ip
 800091a:	bf08      	it	eq
 800091c:	ea95 0f0c 	teqeq	r5, ip
 8000920:	f43f af3b 	beq.w	800079a <__aeabi_dmul+0x24a>
 8000924:	ea94 0f0c 	teq	r4, ip
 8000928:	d10a      	bne.n	8000940 <__aeabi_ddiv+0x19c>
 800092a:	ea50 3401 	orrs.w	r4, r0, r1, lsl #12
 800092e:	f47f af34 	bne.w	800079a <__aeabi_dmul+0x24a>
 8000932:	ea95 0f0c 	teq	r5, ip
 8000936:	f47f af25 	bne.w	8000784 <__aeabi_dmul+0x234>
 800093a:	4610      	mov	r0, r2
 800093c:	4619      	mov	r1, r3
 800093e:	e72c      	b.n	800079a <__aeabi_dmul+0x24a>
 8000940:	ea95 0f0c 	teq	r5, ip
 8000944:	d106      	bne.n	8000954 <__aeabi_ddiv+0x1b0>
 8000946:	ea52 3503 	orrs.w	r5, r2, r3, lsl #12
 800094a:	f43f aefd 	beq.w	8000748 <__aeabi_dmul+0x1f8>
 800094e:	4610      	mov	r0, r2
 8000950:	4619      	mov	r1, r3
 8000952:	e722      	b.n	800079a <__aeabi_dmul+0x24a>
 8000954:	ea50 0641 	orrs.w	r6, r0, r1, lsl #1
 8000958:	bf18      	it	ne
 800095a:	ea52 0643 	orrsne.w	r6, r2, r3, lsl #1
 800095e:	f47f aec5 	bne.w	80006ec <__aeabi_dmul+0x19c>
 8000962:	ea50 0441 	orrs.w	r4, r0, r1, lsl #1
 8000966:	f47f af0d 	bne.w	8000784 <__aeabi_dmul+0x234>
 800096a:	ea52 0543 	orrs.w	r5, r2, r3, lsl #1
 800096e:	f47f aeeb 	bne.w	8000748 <__aeabi_dmul+0x1f8>
 8000972:	e712      	b.n	800079a <__aeabi_dmul+0x24a>

08000974 <__gedf2>:
 8000974:	f04f 3cff 	mov.w	ip, #4294967295	; 0xffffffff
 8000978:	e006      	b.n	8000988 <__cmpdf2+0x4>
 800097a:	bf00      	nop

0800097c <__ledf2>:
 800097c:	f04f 0c01 	mov.w	ip, #1
 8000980:	e002      	b.n	8000988 <__cmpdf2+0x4>
 8000982:	bf00      	nop

08000984 <__cmpdf2>:
 8000984:	f04f 0c01 	mov.w	ip, #1
 8000988:	f84d cd04 	str.w	ip, [sp, #-4]!
 800098c:	ea4f 0c41 	mov.w	ip, r1, lsl #1
 8000990:	ea7f 5c6c 	mvns.w	ip, ip, asr #21
 8000994:	ea4f 0c43 	mov.w	ip, r3, lsl #1
 8000998:	bf18      	it	ne
 800099a:	ea7f 5c6c 	mvnsne.w	ip, ip, asr #21
 800099e:	d01b      	beq.n	80009d8 <__cmpdf2+0x54>
 80009a0:	b001      	add	sp, #4
 80009a2:	ea50 0c41 	orrs.w	ip, r0, r1, lsl #1
 80009a6:	bf0c      	ite	eq
 80009a8:	ea52 0c43 	orrseq.w	ip, r2, r3, lsl #1
 80009ac:	ea91 0f03 	teqne	r1, r3
 80009b0:	bf02      	ittt	eq
 80009b2:	ea90 0f02 	teqeq	r0, r2
 80009b6:	2000      	moveq	r0, #0
 80009b8:	4770      	bxeq	lr
 80009ba:	f110 0f00 	cmn.w	r0, #0
 80009be:	ea91 0f03 	teq	r1, r3
 80009c2:	bf58      	it	pl
 80009c4:	4299      	cmppl	r1, r3
 80009c6:	bf08      	it	eq
 80009c8:	4290      	cmpeq	r0, r2
 80009ca:	bf2c      	ite	cs
 80009cc:	17d8      	asrcs	r0, r3, #31
 80009ce:	ea6f 70e3 	mvncc.w	r0, r3, asr #31
 80009d2:	f040 0001 	orr.w	r0, r0, #1
 80009d6:	4770      	bx	lr
 80009d8:	ea4f 0c41 	mov.w	ip, r1, lsl #1
 80009dc:	ea7f 5c6c 	mvns.w	ip, ip, asr #21
 80009e0:	d102      	bne.n	80009e8 <__cmpdf2+0x64>
 80009e2:	ea50 3c01 	orrs.w	ip, r0, r1, lsl #12
 80009e6:	d107      	bne.n	80009f8 <__cmpdf2+0x74>
 80009e8:	ea4f 0c43 	mov.w	ip, r3, lsl #1
 80009ec:	ea7f 5c6c 	mvns.w	ip, ip, asr #21
 80009f0:	d1d6      	bne.n	80009a0 <__cmpdf2+0x1c>
 80009f2:	ea52 3c03 	orrs.w	ip, r2, r3, lsl #12
 80009f6:	d0d3      	beq.n	80009a0 <__cmpdf2+0x1c>
 80009f8:	f85d 0b04 	ldr.w	r0, [sp], #4
 80009fc:	4770      	bx	lr
 80009fe:	bf00      	nop

08000a00 <__aeabi_cdrcmple>:
 8000a00:	4684      	mov	ip, r0
 8000a02:	4610      	mov	r0, r2
 8000a04:	4662      	mov	r2, ip
 8000a06:	468c      	mov	ip, r1
 8000a08:	4619      	mov	r1, r3
 8000a0a:	4663      	mov	r3, ip
 8000a0c:	e000      	b.n	8000a10 <__aeabi_cdcmpeq>
 8000a0e:	bf00      	nop

08000a10 <__aeabi_cdcmpeq>:
 8000a10:	b501      	push	{r0, lr}
 8000a12:	f7ff ffb7 	bl	8000984 <__cmpdf2>
 8000a16:	2800      	cmp	r0, #0
 8000a18:	bf48      	it	mi
 8000a1a:	f110 0f00 	cmnmi.w	r0, #0
 8000a1e:	bd01      	pop	{r0, pc}

08000a20 <__aeabi_dcmpeq>:
 8000a20:	f84d ed08 	str.w	lr, [sp, #-8]!
 8000a24:	f7ff fff4 	bl	8000a10 <__aeabi_cdcmpeq>
 8000a28:	bf0c      	ite	eq
 8000a2a:	2001      	moveq	r0, #1
 8000a2c:	2000      	movne	r0, #0
 8000a2e:	f85d fb08 	ldr.w	pc, [sp], #8
 8000a32:	bf00      	nop

08000a34 <__aeabi_dcmplt>:
 8000a34:	f84d ed08 	str.w	lr, [sp, #-8]!
 8000a38:	f7ff ffea 	bl	8000a10 <__aeabi_cdcmpeq>
 8000a3c:	bf34      	ite	cc
 8000a3e:	2001      	movcc	r0, #1
 8000a40:	2000      	movcs	r0, #0
 8000a42:	f85d fb08 	ldr.w	pc, [sp], #8
 8000a46:	bf00      	nop

08000a48 <__aeabi_dcmple>:
 8000a48:	f84d ed08 	str.w	lr, [sp, #-8]!
 8000a4c:	f7ff ffe0 	bl	8000a10 <__aeabi_cdcmpeq>
 8000a50:	bf94      	ite	ls
 8000a52:	2001      	movls	r0, #1
 8000a54:	2000      	movhi	r0, #0
 8000a56:	f85d fb08 	ldr.w	pc, [sp], #8
 8000a5a:	bf00      	nop

08000a5c <__aeabi_dcmpge>:
 8000a5c:	f84d ed08 	str.w	lr, [sp, #-8]!
 8000a60:	f7ff ffce 	bl	8000a00 <__aeabi_cdrcmple>
 8000a64:	bf94      	ite	ls
 8000a66:	2001      	movls	r0, #1
 8000a68:	2000      	movhi	r0, #0
 8000a6a:	f85d fb08 	ldr.w	pc, [sp], #8
 8000a6e:	bf00      	nop

08000a70 <__aeabi_dcmpgt>:
 8000a70:	f84d ed08 	str.w	lr, [sp, #-8]!
 8000a74:	f7ff ffc4 	bl	8000a00 <__aeabi_cdrcmple>
 8000a78:	bf34      	ite	cc
 8000a7a:	2001      	movcc	r0, #1
 8000a7c:	2000      	movcs	r0, #0
 8000a7e:	f85d fb08 	ldr.w	pc, [sp], #8
 8000a82:	bf00      	nop

08000a84 <__aeabi_d2f>:
 8000a84:	ea4f 0241 	mov.w	r2, r1, lsl #1
 8000a88:	f1b2 43e0 	subs.w	r3, r2, #1879048192	; 0x70000000
 8000a8c:	bf24      	itt	cs
 8000a8e:	f5b3 1c00 	subscs.w	ip, r3, #2097152	; 0x200000
 8000a92:	f1dc 5cfe 	rsbscs	ip, ip, #532676608	; 0x1fc00000
 8000a96:	d90d      	bls.n	8000ab4 <__aeabi_d2f+0x30>
 8000a98:	f001 4c00 	and.w	ip, r1, #2147483648	; 0x80000000
 8000a9c:	ea4f 02c0 	mov.w	r2, r0, lsl #3
 8000aa0:	ea4c 7050 	orr.w	r0, ip, r0, lsr #29
 8000aa4:	f1b2 4f00 	cmp.w	r2, #2147483648	; 0x80000000
 8000aa8:	eb40 0083 	adc.w	r0, r0, r3, lsl #2
 8000aac:	bf08      	it	eq
 8000aae:	f020 0001 	biceq.w	r0, r0, #1
 8000ab2:	4770      	bx	lr
 8000ab4:	f011 4f80 	tst.w	r1, #1073741824	; 0x40000000
 8000ab8:	d121      	bne.n	8000afe <__aeabi_d2f+0x7a>
 8000aba:	f113 7238 	adds.w	r2, r3, #48234496	; 0x2e00000
 8000abe:	bfbc      	itt	lt
 8000ac0:	f001 4000 	andlt.w	r0, r1, #2147483648	; 0x80000000
 8000ac4:	4770      	bxlt	lr
 8000ac6:	f441 1180 	orr.w	r1, r1, #1048576	; 0x100000
 8000aca:	ea4f 5252 	mov.w	r2, r2, lsr #21
 8000ace:	f1c2 0218 	rsb	r2, r2, #24
 8000ad2:	f1c2 0c20 	rsb	ip, r2, #32
 8000ad6:	fa10 f30c 	lsls.w	r3, r0, ip
 8000ada:	fa20 f002 	lsr.w	r0, r0, r2
 8000ade:	bf18      	it	ne
 8000ae0:	f040 0001 	orrne.w	r0, r0, #1
 8000ae4:	ea4f 23c1 	mov.w	r3, r1, lsl #11
 8000ae8:	ea4f 23d3 	mov.w	r3, r3, lsr #11
 8000aec:	fa03 fc0c 	lsl.w	ip, r3, ip
 8000af0:	ea40 000c 	orr.w	r0, r0, ip
 8000af4:	fa23 f302 	lsr.w	r3, r3, r2
 8000af8:	ea4f 0343 	mov.w	r3, r3, lsl #1
 8000afc:	e7cc      	b.n	8000a98 <__aeabi_d2f+0x14>
 8000afe:	ea7f 5362 	mvns.w	r3, r2, asr #21
 8000b02:	d107      	bne.n	8000b14 <__aeabi_d2f+0x90>
 8000b04:	ea50 3301 	orrs.w	r3, r0, r1, lsl #12
 8000b08:	bf1e      	ittt	ne
 8000b0a:	f04f 40fe 	movne.w	r0, #2130706432	; 0x7f000000
 8000b0e:	f440 0040 	orrne.w	r0, r0, #12582912	; 0xc00000
 8000b12:	4770      	bxne	lr
 8000b14:	f001 4000 	and.w	r0, r1, #2147483648	; 0x80000000
 8000b18:	f040 40fe 	orr.w	r0, r0, #2130706432	; 0x7f000000
 8000b1c:	f440 0000 	orr.w	r0, r0, #8388608	; 0x800000
 8000b20:	4770      	bx	lr
 8000b22:	bf00      	nop

08000b24 <__aeabi_uldivmod>:
 8000b24:	b953      	cbnz	r3, 8000b3c <__aeabi_uldivmod+0x18>
 8000b26:	b94a      	cbnz	r2, 8000b3c <__aeabi_uldivmod+0x18>
 8000b28:	2900      	cmp	r1, #0
 8000b2a:	bf08      	it	eq
 8000b2c:	2800      	cmpeq	r0, #0
 8000b2e:	bf1c      	itt	ne
 8000b30:	f04f 31ff 	movne.w	r1, #4294967295	; 0xffffffff
 8000b34:	f04f 30ff 	movne.w	r0, #4294967295	; 0xffffffff
 8000b38:	f000 b96e 	b.w	8000e18 <__aeabi_idiv0>
 8000b3c:	f1ad 0c08 	sub.w	ip, sp, #8
 8000b40:	e96d ce04 	strd	ip, lr, [sp, #-16]!
 8000b44:	f000 f806 	bl	8000b54 <__udivmoddi4>
 8000b48:	f8dd e004 	ldr.w	lr, [sp, #4]
 8000b4c:	e9dd 2302 	ldrd	r2, r3, [sp, #8]
 8000b50:	b004      	add	sp, #16
 8000b52:	4770      	bx	lr

08000b54 <__udivmoddi4>:
 8000b54:	e92d 47f0 	stmdb	sp!, {r4, r5, r6, r7, r8, r9, sl, lr}
 8000b58:	9d08      	ldr	r5, [sp, #32]
 8000b5a:	4604      	mov	r4, r0
 8000b5c:	468c      	mov	ip, r1
 8000b5e:	2b00      	cmp	r3, #0
 8000b60:	f040 8083 	bne.w	8000c6a <__udivmoddi4+0x116>
 8000b64:	428a      	cmp	r2, r1
 8000b66:	4617      	mov	r7, r2
 8000b68:	d947      	bls.n	8000bfa <__udivmoddi4+0xa6>
 8000b6a:	fab2 f282 	clz	r2, r2
 8000b6e:	b142      	cbz	r2, 8000b82 <__udivmoddi4+0x2e>
 8000b70:	f1c2 0020 	rsb	r0, r2, #32
 8000b74:	fa24 f000 	lsr.w	r0, r4, r0
 8000b78:	4091      	lsls	r1, r2
 8000b7a:	4097      	lsls	r7, r2
 8000b7c:	ea40 0c01 	orr.w	ip, r0, r1
 8000b80:	4094      	lsls	r4, r2
 8000b82:	ea4f 4817 	mov.w	r8, r7, lsr #16
 8000b86:	0c23      	lsrs	r3, r4, #16
 8000b88:	fbbc f6f8 	udiv	r6, ip, r8
 8000b8c:	fa1f fe87 	uxth.w	lr, r7
 8000b90:	fb08 c116 	mls	r1, r8, r6, ip
 8000b94:	ea43 4301 	orr.w	r3, r3, r1, lsl #16
 8000b98:	fb06 f10e 	mul.w	r1, r6, lr
 8000b9c:	4299      	cmp	r1, r3
 8000b9e:	d909      	bls.n	8000bb4 <__udivmoddi4+0x60>
 8000ba0:	18fb      	adds	r3, r7, r3
 8000ba2:	f106 30ff 	add.w	r0, r6, #4294967295	; 0xffffffff
 8000ba6:	f080 8119 	bcs.w	8000ddc <__udivmoddi4+0x288>
 8000baa:	4299      	cmp	r1, r3
 8000bac:	f240 8116 	bls.w	8000ddc <__udivmoddi4+0x288>
 8000bb0:	3e02      	subs	r6, #2
 8000bb2:	443b      	add	r3, r7
 8000bb4:	1a5b      	subs	r3, r3, r1
 8000bb6:	b2a4      	uxth	r4, r4
 8000bb8:	fbb3 f0f8 	udiv	r0, r3, r8
 8000bbc:	fb08 3310 	mls	r3, r8, r0, r3
 8000bc0:	ea44 4403 	orr.w	r4, r4, r3, lsl #16
 8000bc4:	fb00 fe0e 	mul.w	lr, r0, lr
 8000bc8:	45a6      	cmp	lr, r4
 8000bca:	d909      	bls.n	8000be0 <__udivmoddi4+0x8c>
 8000bcc:	193c      	adds	r4, r7, r4
 8000bce:	f100 33ff 	add.w	r3, r0, #4294967295	; 0xffffffff
 8000bd2:	f080 8105 	bcs.w	8000de0 <__udivmoddi4+0x28c>
 8000bd6:	45a6      	cmp	lr, r4
 8000bd8:	f240 8102 	bls.w	8000de0 <__udivmoddi4+0x28c>
 8000bdc:	3802      	subs	r0, #2
 8000bde:	443c      	add	r4, r7
 8000be0:	ea40 4006 	orr.w	r0, r0, r6, lsl #16
 8000be4:	eba4 040e 	sub.w	r4, r4, lr
 8000be8:	2600      	movs	r6, #0
 8000bea:	b11d      	cbz	r5, 8000bf4 <__udivmoddi4+0xa0>
 8000bec:	40d4      	lsrs	r4, r2
 8000bee:	2300      	movs	r3, #0
 8000bf0:	e9c5 4300 	strd	r4, r3, [r5]
 8000bf4:	4631      	mov	r1, r6
 8000bf6:	e8bd 87f0 	ldmia.w	sp!, {r4, r5, r6, r7, r8, r9, sl, pc}
 8000bfa:	b902      	cbnz	r2, 8000bfe <__udivmoddi4+0xaa>
 8000bfc:	deff      	udf	#255	; 0xff
 8000bfe:	fab2 f282 	clz	r2, r2
 8000c02:	2a00      	cmp	r2, #0
 8000c04:	d150      	bne.n	8000ca8 <__udivmoddi4+0x154>
 8000c06:	1bcb      	subs	r3, r1, r7
 8000c08:	ea4f 4e17 	mov.w	lr, r7, lsr #16
 8000c0c:	fa1f f887 	uxth.w	r8, r7
 8000c10:	2601      	movs	r6, #1
 8000c12:	fbb3 fcfe 	udiv	ip, r3, lr
 8000c16:	0c21      	lsrs	r1, r4, #16
 8000c18:	fb0e 331c 	mls	r3, lr, ip, r3
 8000c1c:	ea41 4103 	orr.w	r1, r1, r3, lsl #16
 8000c20:	fb08 f30c 	mul.w	r3, r8, ip
 8000c24:	428b      	cmp	r3, r1
 8000c26:	d907      	bls.n	8000c38 <__udivmoddi4+0xe4>
 8000c28:	1879      	adds	r1, r7, r1
 8000c2a:	f10c 30ff 	add.w	r0, ip, #4294967295	; 0xffffffff
 8000c2e:	d202      	bcs.n	8000c36 <__udivmoddi4+0xe2>
 8000c30:	428b      	cmp	r3, r1
 8000c32:	f200 80e9 	bhi.w	8000e08 <__udivmoddi4+0x2b4>
 8000c36:	4684      	mov	ip, r0
 8000c38:	1ac9      	subs	r1, r1, r3
 8000c3a:	b2a3      	uxth	r3, r4
 8000c3c:	fbb1 f0fe 	udiv	r0, r1, lr
 8000c40:	fb0e 1110 	mls	r1, lr, r0, r1
 8000c44:	ea43 4401 	orr.w	r4, r3, r1, lsl #16
 8000c48:	fb08 f800 	mul.w	r8, r8, r0
 8000c4c:	45a0      	cmp	r8, r4
 8000c4e:	d907      	bls.n	8000c60 <__udivmoddi4+0x10c>
 8000c50:	193c      	adds	r4, r7, r4
 8000c52:	f100 33ff 	add.w	r3, r0, #4294967295	; 0xffffffff
 8000c56:	d202      	bcs.n	8000c5e <__udivmoddi4+0x10a>
 8000c58:	45a0      	cmp	r8, r4
 8000c5a:	f200 80d9 	bhi.w	8000e10 <__udivmoddi4+0x2bc>
 8000c5e:	4618      	mov	r0, r3
 8000c60:	eba4 0408 	sub.w	r4, r4, r8
 8000c64:	ea40 400c 	orr.w	r0, r0, ip, lsl #16
 8000c68:	e7bf      	b.n	8000bea <__udivmoddi4+0x96>
 8000c6a:	428b      	cmp	r3, r1
 8000c6c:	d909      	bls.n	8000c82 <__udivmoddi4+0x12e>
 8000c6e:	2d00      	cmp	r5, #0
 8000c70:	f000 80b1 	beq.w	8000dd6 <__udivmoddi4+0x282>
 8000c74:	2600      	movs	r6, #0
 8000c76:	e9c5 0100 	strd	r0, r1, [r5]
 8000c7a:	4630      	mov	r0, r6
 8000c7c:	4631      	mov	r1, r6
 8000c7e:	e8bd 87f0 	ldmia.w	sp!, {r4, r5, r6, r7, r8, r9, sl, pc}
 8000c82:	fab3 f683 	clz	r6, r3
 8000c86:	2e00      	cmp	r6, #0
 8000c88:	d14a      	bne.n	8000d20 <__udivmoddi4+0x1cc>
 8000c8a:	428b      	cmp	r3, r1
 8000c8c:	d302      	bcc.n	8000c94 <__udivmoddi4+0x140>
 8000c8e:	4282      	cmp	r2, r0
 8000c90:	f200 80b8 	bhi.w	8000e04 <__udivmoddi4+0x2b0>
 8000c94:	1a84      	subs	r4, r0, r2
 8000c96:	eb61 0103 	sbc.w	r1, r1, r3
 8000c9a:	2001      	movs	r0, #1
 8000c9c:	468c      	mov	ip, r1
 8000c9e:	2d00      	cmp	r5, #0
 8000ca0:	d0a8      	beq.n	8000bf4 <__udivmoddi4+0xa0>
 8000ca2:	e9c5 4c00 	strd	r4, ip, [r5]
 8000ca6:	e7a5      	b.n	8000bf4 <__udivmoddi4+0xa0>
 8000ca8:	f1c2 0320 	rsb	r3, r2, #32
 8000cac:	fa20 f603 	lsr.w	r6, r0, r3
 8000cb0:	4097      	lsls	r7, r2
 8000cb2:	fa01 f002 	lsl.w	r0, r1, r2
 8000cb6:	ea4f 4e17 	mov.w	lr, r7, lsr #16
 8000cba:	40d9      	lsrs	r1, r3
 8000cbc:	4330      	orrs	r0, r6
 8000cbe:	0c03      	lsrs	r3, r0, #16
 8000cc0:	fbb1 f6fe 	udiv	r6, r1, lr
 8000cc4:	fa1f f887 	uxth.w	r8, r7
 8000cc8:	fb0e 1116 	mls	r1, lr, r6, r1
 8000ccc:	ea43 4301 	orr.w	r3, r3, r1, lsl #16
 8000cd0:	fb06 f108 	mul.w	r1, r6, r8
 8000cd4:	4299      	cmp	r1, r3
 8000cd6:	fa04 f402 	lsl.w	r4, r4, r2
 8000cda:	d909      	bls.n	8000cf0 <__udivmoddi4+0x19c>
 8000cdc:	18fb      	adds	r3, r7, r3
 8000cde:	f106 3cff 	add.w	ip, r6, #4294967295	; 0xffffffff
 8000ce2:	f080 808d 	bcs.w	8000e00 <__udivmoddi4+0x2ac>
 8000ce6:	4299      	cmp	r1, r3
 8000ce8:	f240 808a 	bls.w	8000e00 <__udivmoddi4+0x2ac>
 8000cec:	3e02      	subs	r6, #2
 8000cee:	443b      	add	r3, r7
 8000cf0:	1a5b      	subs	r3, r3, r1
 8000cf2:	b281      	uxth	r1, r0
 8000cf4:	fbb3 f0fe 	udiv	r0, r3, lr
 8000cf8:	fb0e 3310 	mls	r3, lr, r0, r3
 8000cfc:	ea41 4103 	orr.w	r1, r1, r3, lsl #16
 8000d00:	fb00 f308 	mul.w	r3, r0, r8
 8000d04:	428b      	cmp	r3, r1
 8000d06:	d907      	bls.n	8000d18 <__udivmoddi4+0x1c4>
 8000d08:	1879      	adds	r1, r7, r1
 8000d0a:	f100 3cff 	add.w	ip, r0, #4294967295	; 0xffffffff
 8000d0e:	d273      	bcs.n	8000df8 <__udivmoddi4+0x2a4>
 8000d10:	428b      	cmp	r3, r1
 8000d12:	d971      	bls.n	8000df8 <__udivmoddi4+0x2a4>
 8000d14:	3802      	subs	r0, #2
 8000d16:	4439      	add	r1, r7
 8000d18:	1acb      	subs	r3, r1, r3
 8000d1a:	ea40 4606 	orr.w	r6, r0, r6, lsl #16
 8000d1e:	e778      	b.n	8000c12 <__udivmoddi4+0xbe>
 8000d20:	f1c6 0c20 	rsb	ip, r6, #32
 8000d24:	fa03 f406 	lsl.w	r4, r3, r6
 8000d28:	fa22 f30c 	lsr.w	r3, r2, ip
 8000d2c:	431c      	orrs	r4, r3
 8000d2e:	fa20 f70c 	lsr.w	r7, r0, ip
 8000d32:	fa01 f306 	lsl.w	r3, r1, r6
 8000d36:	ea4f 4e14 	mov.w	lr, r4, lsr #16
 8000d3a:	fa21 f10c 	lsr.w	r1, r1, ip
 8000d3e:	431f      	orrs	r7, r3
 8000d40:	0c3b      	lsrs	r3, r7, #16
 8000d42:	fbb1 f9fe 	udiv	r9, r1, lr
 8000d46:	fa1f f884 	uxth.w	r8, r4
 8000d4a:	fb0e 1119 	mls	r1, lr, r9, r1
 8000d4e:	ea43 4101 	orr.w	r1, r3, r1, lsl #16
 8000d52:	fb09 fa08 	mul.w	sl, r9, r8
 8000d56:	458a      	cmp	sl, r1
 8000d58:	fa02 f206 	lsl.w	r2, r2, r6
 8000d5c:	fa00 f306 	lsl.w	r3, r0, r6
 8000d60:	d908      	bls.n	8000d74 <__udivmoddi4+0x220>
 8000d62:	1861      	adds	r1, r4, r1
 8000d64:	f109 30ff 	add.w	r0, r9, #4294967295	; 0xffffffff
 8000d68:	d248      	bcs.n	8000dfc <__udivmoddi4+0x2a8>
 8000d6a:	458a      	cmp	sl, r1
 8000d6c:	d946      	bls.n	8000dfc <__udivmoddi4+0x2a8>
 8000d6e:	f1a9 0902 	sub.w	r9, r9, #2
 8000d72:	4421      	add	r1, r4
 8000d74:	eba1 010a 	sub.w	r1, r1, sl
 8000d78:	b2bf      	uxth	r7, r7
 8000d7a:	fbb1 f0fe 	udiv	r0, r1, lr
 8000d7e:	fb0e 1110 	mls	r1, lr, r0, r1
 8000d82:	ea47 4701 	orr.w	r7, r7, r1, lsl #16
 8000d86:	fb00 f808 	mul.w	r8, r0, r8
 8000d8a:	45b8      	cmp	r8, r7
 8000d8c:	d907      	bls.n	8000d9e <__udivmoddi4+0x24a>
 8000d8e:	19e7      	adds	r7, r4, r7
 8000d90:	f100 31ff 	add.w	r1, r0, #4294967295	; 0xffffffff
 8000d94:	d22e      	bcs.n	8000df4 <__udivmoddi4+0x2a0>
 8000d96:	45b8      	cmp	r8, r7
 8000d98:	d92c      	bls.n	8000df4 <__udivmoddi4+0x2a0>
 8000d9a:	3802      	subs	r0, #2
 8000d9c:	4427      	add	r7, r4
 8000d9e:	ea40 4009 	orr.w	r0, r0, r9, lsl #16
 8000da2:	eba7 0708 	sub.w	r7, r7, r8
 8000da6:	fba0 8902 	umull	r8, r9, r0, r2
 8000daa:	454f      	cmp	r7, r9
 8000dac:	46c6      	mov	lr, r8
 8000dae:	4649      	mov	r1, r9
 8000db0:	d31a      	bcc.n	8000de8 <__udivmoddi4+0x294>
 8000db2:	d017      	beq.n	8000de4 <__udivmoddi4+0x290>
 8000db4:	b15d      	cbz	r5, 8000dce <__udivmoddi4+0x27a>
 8000db6:	ebb3 020e 	subs.w	r2, r3, lr
 8000dba:	eb67 0701 	sbc.w	r7, r7, r1
 8000dbe:	fa07 fc0c 	lsl.w	ip, r7, ip
 8000dc2:	40f2      	lsrs	r2, r6
 8000dc4:	ea4c 0202 	orr.w	r2, ip, r2
 8000dc8:	40f7      	lsrs	r7, r6
 8000dca:	e9c5 2700 	strd	r2, r7, [r5]
 8000dce:	2600      	movs	r6, #0
 8000dd0:	4631      	mov	r1, r6
 8000dd2:	e8bd 87f0 	ldmia.w	sp!, {r4, r5, r6, r7, r8, r9, sl, pc}
 8000dd6:	462e      	mov	r6, r5
 8000dd8:	4628      	mov	r0, r5
 8000dda:	e70b      	b.n	8000bf4 <__udivmoddi4+0xa0>
 8000ddc:	4606      	mov	r6, r0
 8000dde:	e6e9      	b.n	8000bb4 <__udivmoddi4+0x60>
 8000de0:	4618      	mov	r0, r3
 8000de2:	e6fd      	b.n	8000be0 <__udivmoddi4+0x8c>
 8000de4:	4543      	cmp	r3, r8
 8000de6:	d2e5      	bcs.n	8000db4 <__udivmoddi4+0x260>
 8000de8:	ebb8 0e02 	subs.w	lr, r8, r2
 8000dec:	eb69 0104 	sbc.w	r1, r9, r4
 8000df0:	3801      	subs	r0, #1
 8000df2:	e7df      	b.n	8000db4 <__udivmoddi4+0x260>
 8000df4:	4608      	mov	r0, r1
 8000df6:	e7d2      	b.n	8000d9e <__udivmoddi4+0x24a>
 8000df8:	4660      	mov	r0, ip
 8000dfa:	e78d      	b.n	8000d18 <__udivmoddi4+0x1c4>
 8000dfc:	4681      	mov	r9, r0
 8000dfe:	e7b9      	b.n	8000d74 <__udivmoddi4+0x220>
 8000e00:	4666      	mov	r6, ip
 8000e02:	e775      	b.n	8000cf0 <__udivmoddi4+0x19c>
 8000e04:	4630      	mov	r0, r6
 8000e06:	e74a      	b.n	8000c9e <__udivmoddi4+0x14a>
 8000e08:	f1ac 0c02 	sub.w	ip, ip, #2
 8000e0c:	4439      	add	r1, r7
 8000e0e:	e713      	b.n	8000c38 <__udivmoddi4+0xe4>
 8000e10:	3802      	subs	r0, #2
 8000e12:	443c      	add	r4, r7
 8000e14:	e724      	b.n	8000c60 <__udivmoddi4+0x10c>
 8000e16:	bf00      	nop

08000e18 <__aeabi_idiv0>:
 8000e18:	4770      	bx	lr
 8000e1a:	bf00      	nop

08000e1c <I3G4250D_DeInit>:
 8000e1c:	4770      	bx	lr

08000e1e <I3G4250D_Init>:
 8000e1e:	b513      	push	{r0, r1, r4, lr}
 8000e20:	2300      	movs	r3, #0
 8000e22:	4604      	mov	r4, r0
 8000e24:	f88d 3007 	strb.w	r3, [sp, #7]
 8000e28:	f001 fe20 	bl	8002a6c <GYRO_IO_Init>
 8000e2c:	f10d 0007 	add.w	r0, sp, #7
 8000e30:	2201      	movs	r2, #1
 8000e32:	2120      	movs	r1, #32
 8000e34:	f88d 4007 	strb.w	r4, [sp, #7]
 8000e38:	f001 fe52 	bl	8002ae0 <GYRO_IO_Write>
 8000e3c:	0a24      	lsrs	r4, r4, #8
 8000e3e:	2201      	movs	r2, #1
 8000e40:	2123      	movs	r1, #35	; 0x23
 8000e42:	f10d 0007 	add.w	r0, sp, #7
 8000e46:	f88d 4007 	strb.w	r4, [sp, #7]
 8000e4a:	f001 fe49 	bl	8002ae0 <GYRO_IO_Write>
 8000e4e:	b002      	add	sp, #8
 8000e50:	bd10      	pop	{r4, pc}

08000e52 <I3G4250D_LowPower>:
 8000e52:	b507      	push	{r0, r1, r2, lr}
 8000e54:	2201      	movs	r2, #1
 8000e56:	f88d 0007 	strb.w	r0, [sp, #7]
 8000e5a:	2120      	movs	r1, #32
 8000e5c:	f10d 0007 	add.w	r0, sp, #7
 8000e60:	f001 fe3e 	bl	8002ae0 <GYRO_IO_Write>
 8000e64:	b003      	add	sp, #12
 8000e66:	f85d fb04 	ldr.w	pc, [sp], #4

08000e6a <I3G4250D_ReadID>:
 8000e6a:	b507      	push	{r0, r1, r2, lr}
 8000e6c:	f001 fdfe 	bl	8002a6c <GYRO_IO_Init>
 8000e70:	f10d 0007 	add.w	r0, sp, #7
 8000e74:	2201      	movs	r2, #1
 8000e76:	210f      	movs	r1, #15
 8000e78:	f001 fe54 	bl	8002b24 <GYRO_IO_Read>
 8000e7c:	f89d 0007 	ldrb.w	r0, [sp, #7]
 8000e80:	b003      	add	sp, #12
 8000e82:	f85d fb04 	ldr.w	pc, [sp], #4

08000e86 <I3G4250D_RebootCmd>:
 8000e86:	b507      	push	{r0, r1, r2, lr}
 8000e88:	2201      	movs	r2, #1
 8000e8a:	f10d 0007 	add.w	r0, sp, #7
 8000e8e:	2124      	movs	r1, #36	; 0x24
 8000e90:	f001 fe48 	bl	8002b24 <GYRO_IO_Read>
 8000e94:	f89d 3007 	ldrb.w	r3, [sp, #7]
 8000e98:	2201      	movs	r2, #1
 8000e9a:	f063 037f 	orn	r3, r3, #127	; 0x7f
 8000e9e:	2124      	movs	r1, #36	; 0x24
 8000ea0:	f10d 0007 	add.w	r0, sp, #7
 8000ea4:	f88d 3007 	strb.w	r3, [sp, #7]
 8000ea8:	f001 fe1a 	bl	8002ae0 <GYRO_IO_Write>
 8000eac:	b003      	add	sp, #12
 8000eae:	f85d fb04 	ldr.w	pc, [sp], #4

08000eb2 <I3G4250D_INT1InterruptConfig>:
 8000eb2:	b513      	push	{r0, r1, r4, lr}
 8000eb4:	2300      	movs	r3, #0
 8000eb6:	4604      	mov	r4, r0
 8000eb8:	2201      	movs	r2, #1
 8000eba:	f10d 0006 	add.w	r0, sp, #6
 8000ebe:	2130      	movs	r1, #48	; 0x30
 8000ec0:	f88d 3006 	strb.w	r3, [sp, #6]
 8000ec4:	f88d 3007 	strb.w	r3, [sp, #7]
 8000ec8:	f001 fe2c 	bl	8002b24 <GYRO_IO_Read>
 8000ecc:	f10d 0007 	add.w	r0, sp, #7
 8000ed0:	2201      	movs	r2, #1
 8000ed2:	2122      	movs	r1, #34	; 0x22
 8000ed4:	f001 fe26 	bl	8002b24 <GYRO_IO_Read>
 8000ed8:	f89d 3006 	ldrb.w	r3, [sp, #6]
 8000edc:	f023 037f 	bic.w	r3, r3, #127	; 0x7f
 8000ee0:	f88d 3006 	strb.w	r3, [sp, #6]
 8000ee4:	f89d 3007 	ldrb.w	r3, [sp, #7]
 8000ee8:	f023 0320 	bic.w	r3, r3, #32
 8000eec:	ea43 0004 	orr.w	r0, r3, r4
 8000ef0:	f88d 0007 	strb.w	r0, [sp, #7]
 8000ef4:	2201      	movs	r2, #1
 8000ef6:	f10d 0006 	add.w	r0, sp, #6
 8000efa:	2130      	movs	r1, #48	; 0x30
 8000efc:	f001 fdf0 	bl	8002ae0 <GYRO_IO_Write>
 8000f00:	2201      	movs	r2, #1
 8000f02:	2122      	movs	r1, #34	; 0x22
 8000f04:	f10d 0007 	add.w	r0, sp, #7
 8000f08:	f001 fdea 	bl	8002ae0 <GYRO_IO_Write>
 8000f0c:	b002      	add	sp, #8
 8000f0e:	bd10      	pop	{r4, pc}

08000f10 <I3G4250D_EnableIT>:
 8000f10:	b513      	push	{r0, r1, r4, lr}
 8000f12:	2201      	movs	r2, #1
 8000f14:	4604      	mov	r4, r0
 8000f16:	2122      	movs	r1, #34	; 0x22
 8000f18:	f10d 0007 	add.w	r0, sp, #7
 8000f1c:	f001 fe02 	bl	8002b24 <GYRO_IO_Read>
 8000f20:	b96c      	cbnz	r4, 8000f3e <I3G4250D_EnableIT+0x2e>
 8000f22:	f89d 3007 	ldrb.w	r3, [sp, #7]
 8000f26:	f063 037f 	orn	r3, r3, #127	; 0x7f
 8000f2a:	f88d 3007 	strb.w	r3, [sp, #7]
 8000f2e:	2201      	movs	r2, #1
 8000f30:	2122      	movs	r1, #34	; 0x22
 8000f32:	f10d 0007 	add.w	r0, sp, #7
 8000f36:	f001 fdd3 	bl	8002ae0 <GYRO_IO_Write>
 8000f3a:	b002      	add	sp, #8
 8000f3c:	bd10      	pop	{r4, pc}
 8000f3e:	2c01      	cmp	r4, #1
 8000f40:	d1f5      	bne.n	8000f2e <I3G4250D_EnableIT+0x1e>
 8000f42:	f89d 3007 	ldrb.w	r3, [sp, #7]
 8000f46:	f023 0308 	bic.w	r3, r3, #8
 8000f4a:	f043 0308 	orr.w	r3, r3, #8
 8000f4e:	e7ec      	b.n	8000f2a <I3G4250D_EnableIT+0x1a>

08000f50 <I3G4250D_DisableIT>:
 8000f50:	b513      	push	{r0, r1, r4, lr}
 8000f52:	2201      	movs	r2, #1
 8000f54:	4604      	mov	r4, r0
 8000f56:	2122      	movs	r1, #34	; 0x22
 8000f58:	f10d 0007 	add.w	r0, sp, #7
 8000f5c:	f001 fde2 	bl	8002b24 <GYRO_IO_Read>
 8000f60:	b96c      	cbnz	r4, 8000f7e <I3G4250D_DisableIT+0x2e>
 8000f62:	f89d 3007 	ldrb.w	r3, [sp, #7]
 8000f66:	f003 037f 	and.w	r3, r3, #127	; 0x7f
 8000f6a:	f88d 3007 	strb.w	r3, [sp, #7]
 8000f6e:	2201      	movs	r2, #1
 8000f70:	2122      	movs	r1, #34	; 0x22
 8000f72:	f10d 0007 	add.w	r0, sp, #7
 8000f76:	f001 fdb3 	bl	8002ae0 <GYRO_IO_Write>
 8000f7a:	b002      	add	sp, #8
 8000f7c:	bd10      	pop	{r4, pc}
 8000f7e:	2c01      	cmp	r4, #1
 8000f80:	d1f5      	bne.n	8000f6e <I3G4250D_DisableIT+0x1e>
 8000f82:	f89d 3007 	ldrb.w	r3, [sp, #7]
 8000f86:	f023 0308 	bic.w	r3, r3, #8
 8000f8a:	e7ee      	b.n	8000f6a <I3G4250D_DisableIT+0x1a>

08000f8c <I3G4250D_FilterConfig>:
 8000f8c:	b513      	push	{r0, r1, r4, lr}
 8000f8e:	2201      	movs	r2, #1
 8000f90:	4604      	mov	r4, r0
 8000f92:	2121      	movs	r1, #33	; 0x21
 8000f94:	f10d 0007 	add.w	r0, sp, #7
 8000f98:	f001 fdc4 	bl	8002b24 <GYRO_IO_Read>
 8000f9c:	f89d 0007 	ldrb.w	r0, [sp, #7]
 8000fa0:	f020 003f 	bic.w	r0, r0, #63	; 0x3f
 8000fa4:	4304      	orrs	r4, r0
 8000fa6:	2201      	movs	r2, #1
 8000fa8:	2121      	movs	r1, #33	; 0x21
 8000faa:	f10d 0007 	add.w	r0, sp, #7
 8000fae:	f88d 4007 	strb.w	r4, [sp, #7]
 8000fb2:	f001 fd95 	bl	8002ae0 <GYRO_IO_Write>
 8000fb6:	b002      	add	sp, #8
 8000fb8:	bd10      	pop	{r4, pc}

08000fba <I3G4250D_FilterCmd>:
 8000fba:	b513      	push	{r0, r1, r4, lr}
 8000fbc:	2201      	movs	r2, #1
 8000fbe:	4604      	mov	r4, r0
 8000fc0:	2124      	movs	r1, #36	; 0x24
 8000fc2:	f10d 0007 	add.w	r0, sp, #7
 8000fc6:	f001 fdad 	bl	8002b24 <GYRO_IO_Read>
 8000fca:	f89d 0007 	ldrb.w	r0, [sp, #7]
 8000fce:	f020 0010 	bic.w	r0, r0, #16
 8000fd2:	4304      	orrs	r4, r0
 8000fd4:	2201      	movs	r2, #1
 8000fd6:	2124      	movs	r1, #36	; 0x24
 8000fd8:	f10d 0007 	add.w	r0, sp, #7
 8000fdc:	f88d 4007 	strb.w	r4, [sp, #7]
 8000fe0:	f001 fd7e 	bl	8002ae0 <GYRO_IO_Write>
 8000fe4:	b002      	add	sp, #8
 8000fe6:	bd10      	pop	{r4, pc}

08000fe8 <I3G4250D_ReadXYZAngRate>:
 8000fe8:	b5f0      	push	{r4, r5, r6, r7, lr}
 8000fea:	b087      	sub	sp, #28
 8000fec:	2300      	movs	r3, #0
 8000fee:	2201      	movs	r2, #1
 8000ff0:	2123      	movs	r1, #35	; 0x23
 8000ff2:	4604      	mov	r4, r0
 8000ff4:	f10d 0007 	add.w	r0, sp, #7
 8000ff8:	9302      	str	r3, [sp, #8]
 8000ffa:	f8ad 300c 	strh.w	r3, [sp, #12]
 8000ffe:	f88d 3007 	strb.w	r3, [sp, #7]
 8001002:	f001 fd8f 	bl	8002b24 <GYRO_IO_Read>
 8001006:	2206      	movs	r2, #6
 8001008:	2128      	movs	r1, #40	; 0x28
 800100a:	a802      	add	r0, sp, #8
 800100c:	f001 fd8a 	bl	8002b24 <GYRO_IO_Read>
 8001010:	f89d 3007 	ldrb.w	r3, [sp, #7]
 8001014:	f89d 6008 	ldrb.w	r6, [sp, #8]
 8001018:	f89d 7009 	ldrb.w	r7, [sp, #9]
 800101c:	f89d 000a 	ldrb.w	r0, [sp, #10]
 8001020:	f89d 500b 	ldrb.w	r5, [sp, #11]
 8001024:	f89d 200c 	ldrb.w	r2, [sp, #12]
 8001028:	f89d 100d 	ldrb.w	r1, [sp, #13]
 800102c:	f013 0f40 	tst.w	r3, #64	; 0x40
 8001030:	d039      	beq.n	80010a6 <I3G4250D_ReadXYZAngRate+0xbe>
 8001032:	eb07 2606 	add.w	r6, r7, r6, lsl #8
 8001036:	eb05 2000 	add.w	r0, r5, r0, lsl #8
 800103a:	f8ad 6010 	strh.w	r6, [sp, #16]
 800103e:	f8ad 0012 	strh.w	r0, [sp, #18]
 8001042:	eb01 2202 	add.w	r2, r1, r2, lsl #8
 8001046:	f003 0330 	and.w	r3, r3, #48	; 0x30
 800104a:	2b10      	cmp	r3, #16
 800104c:	f8ad 2014 	strh.w	r2, [sp, #20]
 8001050:	d034      	beq.n	80010bc <I3G4250D_ReadXYZAngRate+0xd4>
 8001052:	2b20      	cmp	r3, #32
 8001054:	d035      	beq.n	80010c2 <I3G4250D_ReadXYZAngRate+0xda>
 8001056:	eddf 7a1c 	vldr	s15, [pc, #112]	; 80010c8 <I3G4250D_ReadXYZAngRate+0xe0>
 800105a:	ed9f 7a1c 	vldr	s14, [pc, #112]	; 80010cc <I3G4250D_ReadXYZAngRate+0xe4>
 800105e:	2b00      	cmp	r3, #0
 8001060:	bf08      	it	eq
 8001062:	eef0 7a47 	vmoveq.f32	s15, s14
 8001066:	f9bd 3010 	ldrsh.w	r3, [sp, #16]
 800106a:	ee07 3a10 	vmov	s14, r3
 800106e:	eeb8 7ac7 	vcvt.f32.s32	s14, s14
 8001072:	f9bd 3012 	ldrsh.w	r3, [sp, #18]
 8001076:	ee27 7a27 	vmul.f32	s14, s14, s15
 800107a:	ed84 7a00 	vstr	s14, [r4]
 800107e:	ee07 3a10 	vmov	s14, r3
 8001082:	eeb8 7ac7 	vcvt.f32.s32	s14, s14
 8001086:	f9bd 3014 	ldrsh.w	r3, [sp, #20]
 800108a:	ee27 7a27 	vmul.f32	s14, s14, s15
 800108e:	ed84 7a01 	vstr	s14, [r4, #4]
 8001092:	ee07 3a10 	vmov	s14, r3
 8001096:	eeb8 7ac7 	vcvt.f32.s32	s14, s14
 800109a:	ee67 7a27 	vmul.f32	s15, s14, s15
 800109e:	edc4 7a02 	vstr	s15, [r4, #8]
 80010a2:	b007      	add	sp, #28
 80010a4:	bdf0      	pop	{r4, r5, r6, r7, pc}
 80010a6:	eb06 2607 	add.w	r6, r6, r7, lsl #8
 80010aa:	eb00 2005 	add.w	r0, r0, r5, lsl #8
 80010ae:	f8ad 6010 	strh.w	r6, [sp, #16]
 80010b2:	f8ad 0012 	strh.w	r0, [sp, #18]
 80010b6:	eb02 2201 	add.w	r2, r2, r1, lsl #8
 80010ba:	e7c4      	b.n	8001046 <I3G4250D_ReadXYZAngRate+0x5e>
 80010bc:	eddf 7a04 	vldr	s15, [pc, #16]	; 80010d0 <I3G4250D_ReadXYZAngRate+0xe8>
 80010c0:	e7d1      	b.n	8001066 <I3G4250D_ReadXYZAngRate+0x7e>
 80010c2:	eddf 7a04 	vldr	s15, [pc, #16]	; 80010d4 <I3G4250D_ReadXYZAngRate+0xec>
 80010c6:	e7ce      	b.n	8001066 <I3G4250D_ReadXYZAngRate+0x7e>
 80010c8:	00000000 	.word	0x00000000
 80010cc:	410c0000 	.word	0x410c0000
 80010d0:	418c0000 	.word	0x418c0000
 80010d4:	428c0000 	.word	0x428c0000

080010d8 <L3GD20_DeInit>:
 80010d8:	4770      	bx	lr

080010da <L3GD20_Init>:
 80010da:	b513      	push	{r0, r1, r4, lr}
 80010dc:	2300      	movs	r3, #0
 80010de:	4604      	mov	r4, r0
 80010e0:	f88d 3007 	strb.w	r3, [sp, #7]
 80010e4:	f001 fcc2 	bl	8002a6c <GYRO_IO_Init>
 80010e8:	f10d 0007 	add.w	r0, sp, #7
 80010ec:	2201      	movs	r2, #1
 80010ee:	2120      	movs	r1, #32
 80010f0:	f88d 4007 	strb.w	r4, [sp, #7]
 80010f4:	f001 fcf4 	bl	8002ae0 <GYRO_IO_Write>
 80010f8:	0a24      	lsrs	r4, r4, #8
 80010fa:	2201      	movs	r2, #1
 80010fc:	2123      	movs	r1, #35	; 0x23
 80010fe:	f10d 0007 	add.w	r0, sp, #7
 8001102:	f88d 4007 	strb.w	r4, [sp, #7]
 8001106:	f001 fceb 	bl	8002ae0 <GYRO_IO_Write>
 800110a:	b002      	add	sp, #8
 800110c:	bd10      	pop	{r4, pc}

0800110e <L3GD20_LowPower>:
 800110e:	b507      	push	{r0, r1, r2, lr}
 8001110:	2201      	movs	r2, #1
 8001112:	f88d 0007 	strb.w	r0, [sp, #7]
 8001116:	2120      	movs	r1, #32
 8001118:	f10d 0007 	add.w	r0, sp, #7
 800111c:	f001 fce0 	bl	8002ae0 <GYRO_IO_Write>
 8001120:	b003      	add	sp, #12
 8001122:	f85d fb04 	ldr.w	pc, [sp], #4

08001126 <L3GD20_ReadID>:
 8001126:	b507      	push	{r0, r1, r2, lr}
 8001128:	f001 fca0 	bl	8002a6c <GYRO_IO_Init>
 800112c:	f10d 0007 	add.w	r0, sp, #7
 8001130:	2201      	movs	r2, #1
 8001132:	210f      	movs	r1, #15
 8001134:	f001 fcf6 	bl	8002b24 <GYRO_IO_Read>
 8001138:	f89d 0007 	ldrb.w	r0, [sp, #7]
 800113c:	b003      	add	sp, #12
 800113e:	f85d fb04 	ldr.w	pc, [sp], #4

08001142 <L3GD20_RebootCmd>:
 8001142:	b507      	push	{r0, r1, r2, lr}
 8001144:	2201      	movs	r2, #1
 8001146:	f10d 0007 	add.w	r0, sp, #7
 800114a:	2124      	movs	r1, #36	; 0x24
 800114c:	f001 fcea 	bl	8002b24 <GYRO_IO_Read>
 8001150:	f89d 3007 	ldrb.w	r3, [sp, #7]
 8001154:	2201      	movs	r2, #1
 8001156:	f063 037f 	orn	r3, r3, #127	; 0x7f
 800115a:	2124      	movs	r1, #36	; 0x24
 800115c:	f10d 0007 	add.w	r0, sp, #7
 8001160:	f88d 3007 	strb.w	r3, [sp, #7]
 8001164:	f001 fcbc 	bl	8002ae0 <GYRO_IO_Write>
 8001168:	b003      	add	sp, #12
 800116a:	f85d fb04 	ldr.w	pc, [sp], #4

0800116e <L3GD20_INT1InterruptConfig>:
 800116e:	b513      	push	{r0, r1, r4, lr}
 8001170:	2300      	movs	r3, #0
 8001172:	4604      	mov	r4, r0
 8001174:	2201      	movs	r2, #1
 8001176:	f10d 0006 	add.w	r0, sp, #6
 800117a:	2130      	movs	r1, #48	; 0x30
 800117c:	f88d 3006 	strb.w	r3, [sp, #6]
 8001180:	f88d 3007 	strb.w	r3, [sp, #7]
 8001184:	f001 fcce 	bl	8002b24 <GYRO_IO_Read>
 8001188:	f10d 0007 	add.w	r0, sp, #7
 800118c:	2201      	movs	r2, #1
 800118e:	2122      	movs	r1, #34	; 0x22
 8001190:	f001 fcc8 	bl	8002b24 <GYRO_IO_Read>
 8001194:	f89d 3006 	ldrb.w	r3, [sp, #6]
 8001198:	f023 037f 	bic.w	r3, r3, #127	; 0x7f
 800119c:	f88d 3006 	strb.w	r3, [sp, #6]
 80011a0:	f89d 3007 	ldrb.w	r3, [sp, #7]
 80011a4:	f023 0320 	bic.w	r3, r3, #32
 80011a8:	ea43 0004 	orr.w	r0, r3, r4
 80011ac:	f88d 0007 	strb.w	r0, [sp, #7]
 80011b0:	2201      	movs	r2, #1
 80011b2:	f10d 0006 	add.w	r0, sp, #6
 80011b6:	2130      	movs	r1, #48	; 0x30
 80011b8:	f001 fc92 	bl	8002ae0 <GYRO_IO_Write>
 80011bc:	2201      	movs	r2, #1
 80011be:	2122      	movs	r1, #34	; 0x22
 80011c0:	f10d 0007 	add.w	r0, sp, #7
 80011c4:	f001 fc8c 	bl	8002ae0 <GYRO_IO_Write>
 80011c8:	b002      	add	sp, #8
 80011ca:	bd10      	pop	{r4, pc}

080011cc <L3GD20_EnableIT>:
 80011cc:	b513      	push	{r0, r1, r4, lr}
 80011ce:	2201      	movs	r2, #1
 80011d0:	4604      	mov	r4, r0
 80011d2:	2122      	movs	r1, #34	; 0x22
 80011d4:	f10d 0007 	add.w	r0, sp, #7
 80011d8:	f001 fca4 	bl	8002b24 <GYRO_IO_Read>
 80011dc:	b96c      	cbnz	r4, 80011fa <L3GD20_EnableIT+0x2e>
 80011de:	f89d 3007 	ldrb.w	r3, [sp, #7]
 80011e2:	f063 037f 	orn	r3, r3, #127	; 0x7f
 80011e6:	f88d 3007 	strb.w	r3, [sp, #7]
 80011ea:	2201      	movs	r2, #1
 80011ec:	2122      	movs	r1, #34	; 0x22
 80011ee:	f10d 0007 	add.w	r0, sp, #7
 80011f2:	f001 fc75 	bl	8002ae0 <GYRO_IO_Write>
 80011f6:	b002      	add	sp, #8
 80011f8:	bd10      	pop	{r4, pc}
 80011fa:	2c01      	cmp	r4, #1
 80011fc:	d1f5      	bne.n	80011ea <L3GD20_EnableIT+0x1e>
 80011fe:	f89d 3007 	ldrb.w	r3, [sp, #7]
 8001202:	f023 0308 	bic.w	r3, r3, #8
 8001206:	f043 0308 	orr.w	r3, r3, #8
 800120a:	e7ec      	b.n	80011e6 <L3GD20_EnableIT+0x1a>

0800120c <L3GD20_DisableIT>:
 800120c:	b513      	push	{r0, r1, r4, lr}
 800120e:	2201      	movs	r2, #1
 8001210:	4604      	mov	r4, r0
 8001212:	2122      	movs	r1, #34	; 0x22
 8001214:	f10d 0007 	add.w	r0, sp, #7
 8001218:	f001 fc84 	bl	8002b24 <GYRO_IO_Read>
 800121c:	b96c      	cbnz	r4, 800123a <L3GD20_DisableIT+0x2e>
 800121e:	f89d 3007 	ldrb.w	r3, [sp, #7]
 8001222:	f003 037f 	and.w	r3, r3, #127	; 0x7f
 8001226:	f88d 3007 	strb.w	r3, [sp, #7]
 800122a:	2201      	movs	r2, #1
 800122c:	2122      	movs	r1, #34	; 0x22
 800122e:	f10d 0007 	add.w	r0, sp, #7
 8001232:	f001 fc55 	bl	8002ae0 <GYRO_IO_Write>
 8001236:	b002      	add	sp, #8
 8001238:	bd10      	pop	{r4, pc}
 800123a:	2c01      	cmp	r4, #1
 800123c:	d1f5      	bne.n	800122a <L3GD20_DisableIT+0x1e>
 800123e:	f89d 3007 	ldrb.w	r3, [sp, #7]
 8001242:	f023 0308 	bic.w	r3, r3, #8
 8001246:	e7ee      	b.n	8001226 <L3GD20_DisableIT+0x1a>

08001248 <L3GD20_FilterConfig>:
 8001248:	b513      	push	{r0, r1, r4, lr}
 800124a:	2201      	movs	r2, #1
 800124c:	4604      	mov	r4, r0
 800124e:	2121      	movs	r1, #33	; 0x21
 8001250:	f10d 0007 	add.w	r0, sp, #7
 8001254:	f001 fc66 	bl	8002b24 <GYRO_IO_Read>
 8001258:	f89d 0007 	ldrb.w	r0, [sp, #7]
 800125c:	f020 003f 	bic.w	r0, r0, #63	; 0x3f
 8001260:	4304      	orrs	r4, r0
 8001262:	2201      	movs	r2, #1
 8001264:	2121      	movs	r1, #33	; 0x21
 8001266:	f10d 0007 	add.w	r0, sp, #7
 800126a:	f88d 4007 	strb.w	r4, [sp, #7]
 800126e:	f001 fc37 	bl	8002ae0 <GYRO_IO_Write>
 8001272:	b002      	add	sp, #8
 8001274:	bd10      	pop	{r4, pc}

08001276 <L3GD20_FilterCmd>:
 8001276:	b513      	push	{r0, r1, r4, lr}
 8001278:	2201      	movs	r2, #1
 800127a:	4604      	mov	r4, r0
 800127c:	2124      	movs	r1, #36	; 0x24
 800127e:	f10d 0007 	add.w	r0, sp, #7
 8001282:	f001 fc4f 	bl	8002b24 <GYRO_IO_Read>
 8001286:	f89d 0007 	ldrb.w	r0, [sp, #7]
 800128a:	f020 0010 	bic.w	r0, r0, #16
 800128e:	4304      	orrs	r4, r0
 8001290:	2201      	movs	r2, #1
 8001292:	2124      	movs	r1, #36	; 0x24
 8001294:	f10d 0007 	add.w	r0, sp, #7
 8001298:	f88d 4007 	strb.w	r4, [sp, #7]
 800129c:	f001 fc20 	bl	8002ae0 <GYRO_IO_Write>
 80012a0:	b002      	add	sp, #8
 80012a2:	bd10      	pop	{r4, pc}

080012a4 <L3GD20_ReadXYZAngRate>:
 80012a4:	b5f0      	push	{r4, r5, r6, r7, lr}
 80012a6:	b087      	sub	sp, #28
 80012a8:	2300      	movs	r3, #0
 80012aa:	2201      	movs	r2, #1
 80012ac:	2123      	movs	r1, #35	; 0x23
 80012ae:	4604      	mov	r4, r0
 80012b0:	f10d 0007 	add.w	r0, sp, #7
 80012b4:	9302      	str	r3, [sp, #8]
 80012b6:	f8ad 300c 	strh.w	r3, [sp, #12]
 80012ba:	f88d 3007 	strb.w	r3, [sp, #7]
 80012be:	f001 fc31 	bl	8002b24 <GYRO_IO_Read>
 80012c2:	2206      	movs	r2, #6
 80012c4:	2128      	movs	r1, #40	; 0x28
 80012c6:	a802      	add	r0, sp, #8
 80012c8:	f001 fc2c 	bl	8002b24 <GYRO_IO_Read>
 80012cc:	f89d 3007 	ldrb.w	r3, [sp, #7]
 80012d0:	f89d 6008 	ldrb.w	r6, [sp, #8]
 80012d4:	f89d 7009 	ldrb.w	r7, [sp, #9]
 80012d8:	f89d 000a 	ldrb.w	r0, [sp, #10]
 80012dc:	f89d 500b 	ldrb.w	r5, [sp, #11]
 80012e0:	f89d 200c 	ldrb.w	r2, [sp, #12]
 80012e4:	f89d 100d 	ldrb.w	r1, [sp, #13]
 80012e8:	f013 0f40 	tst.w	r3, #64	; 0x40
 80012ec:	d039      	beq.n	8001362 <L3GD20_ReadXYZAngRate+0xbe>
 80012ee:	eb07 2606 	add.w	r6, r7, r6, lsl #8
 80012f2:	eb05 2000 	add.w	r0, r5, r0, lsl #8
 80012f6:	f8ad 6010 	strh.w	r6, [sp, #16]
 80012fa:	f8ad 0012 	strh.w	r0, [sp, #18]
 80012fe:	eb01 2202 	add.w	r2, r1, r2, lsl #8
 8001302:	f003 0330 	and.w	r3, r3, #48	; 0x30
 8001306:	2b10      	cmp	r3, #16
 8001308:	f8ad 2014 	strh.w	r2, [sp, #20]
 800130c:	d034      	beq.n	8001378 <L3GD20_ReadXYZAngRate+0xd4>
 800130e:	2b20      	cmp	r3, #32
 8001310:	d035      	beq.n	800137e <L3GD20_ReadXYZAngRate+0xda>
 8001312:	eddf 7a1c 	vldr	s15, [pc, #112]	; 8001384 <L3GD20_ReadXYZAngRate+0xe0>
 8001316:	ed9f 7a1c 	vldr	s14, [pc, #112]	; 8001388 <L3GD20_ReadXYZAngRate+0xe4>
 800131a:	2b00      	cmp	r3, #0
 800131c:	bf08      	it	eq
 800131e:	eef0 7a47 	vmoveq.f32	s15, s14
 8001322:	f9bd 3010 	ldrsh.w	r3, [sp, #16]
 8001326:	ee07 3a10 	vmov	s14, r3
 800132a:	eeb8 7ac7 	vcvt.f32.s32	s14, s14
 800132e:	f9bd 3012 	ldrsh.w	r3, [sp, #18]
 8001332:	ee27 7a27 	vmul.f32	s14, s14, s15
 8001336:	ed84 7a00 	vstr	s14, [r4]
 800133a:	ee07 3a10 	vmov	s14, r3
 800133e:	eeb8 7ac7 	vcvt.f32.s32	s14, s14
 8001342:	f9bd 3014 	ldrsh.w	r3, [sp, #20]
 8001346:	ee27 7a27 	vmul.f32	s14, s14, s15
 800134a:	ed84 7a01 	vstr	s14, [r4, #4]
 800134e:	ee07 3a10 	vmov	s14, r3
 8001352:	eeb8 7ac7 	vcvt.f32.s32	s14, s14
 8001356:	ee67 7a27 	vmul.f32	s15, s14, s15
 800135a:	edc4 7a02 	vstr	s15, [r4, #8]
 800135e:	b007      	add	sp, #28
 8001360:	bdf0      	pop	{r4, r5, r6, r7, pc}
 8001362:	eb06 2607 	add.w	r6, r6, r7, lsl #8
 8001366:	eb00 2005 	add.w	r0, r0, r5, lsl #8
 800136a:	f8ad 6010 	strh.w	r6, [sp, #16]
 800136e:	f8ad 0012 	strh.w	r0, [sp, #18]
 8001372:	eb02 2201 	add.w	r2, r2, r1, lsl #8
 8001376:	e7c4      	b.n	8001302 <L3GD20_ReadXYZAngRate+0x5e>
 8001378:	eddf 7a04 	vldr	s15, [pc, #16]	; 800138c <L3GD20_ReadXYZAngRate+0xe8>
 800137c:	e7d1      	b.n	8001322 <L3GD20_ReadXYZAngRate+0x7e>
 800137e:	eddf 7a04 	vldr	s15, [pc, #16]	; 8001390 <L3GD20_ReadXYZAngRate+0xec>
 8001382:	e7ce      	b.n	8001322 <L3GD20_ReadXYZAngRate+0x7e>
 8001384:	00000000 	.word	0x00000000
 8001388:	410c0000 	.word	0x410c0000
 800138c:	418c0000 	.word	0x418c0000
 8001390:	428c0000 	.word	0x428c0000

08001394 <LSM303AGR_AccDeInit>:
 8001394:	4770      	bx	lr

08001396 <LSM303AGR_AccInit>:
 8001396:	b510      	push	{r4, lr}
 8001398:	4604      	mov	r4, r0
 800139a:	f001 fbe7 	bl	8002b6c <COMPASSACCELERO_IO_Init>
 800139e:	b2e2      	uxtb	r2, r4
 80013a0:	2120      	movs	r1, #32
 80013a2:	2032      	movs	r0, #50	; 0x32
 80013a4:	f001 fc2c 	bl	8002c00 <COMPASSACCELERO_IO_Write>
 80013a8:	e8bd 4010 	ldmia.w	sp!, {r4, lr}
 80013ac:	2200      	movs	r2, #0
 80013ae:	2123      	movs	r1, #35	; 0x23
 80013b0:	2032      	movs	r0, #50	; 0x32
 80013b2:	f001 bc25 	b.w	8002c00 <COMPASSACCELERO_IO_Write>

080013b6 <LSM303AGR_AccReadID>:
 80013b6:	b508      	push	{r3, lr}
 80013b8:	f001 fbd8 	bl	8002b6c <COMPASSACCELERO_IO_Init>
 80013bc:	e8bd 4008 	ldmia.w	sp!, {r3, lr}
 80013c0:	210f      	movs	r1, #15
 80013c2:	2032      	movs	r0, #50	; 0x32
 80013c4:	f001 bc1e 	b.w	8002c04 <COMPASSACCELERO_IO_Read>

080013c8 <LSM303AGR_AccRebootCmd>:
 80013c8:	b508      	push	{r3, lr}
 80013ca:	2124      	movs	r1, #36	; 0x24
 80013cc:	2032      	movs	r0, #50	; 0x32
 80013ce:	f001 fc19 	bl	8002c04 <COMPASSACCELERO_IO_Read>
 80013d2:	f060 007f 	orn	r0, r0, #127	; 0x7f
 80013d6:	b2c2      	uxtb	r2, r0
 80013d8:	e8bd 4008 	ldmia.w	sp!, {r3, lr}
 80013dc:	2124      	movs	r1, #36	; 0x24
 80013de:	2032      	movs	r0, #50	; 0x32
 80013e0:	f001 bc0e 	b.w	8002c00 <COMPASSACCELERO_IO_Write>

080013e4 <LSM303AGR_AccFilterConfig>:
 80013e4:	b510      	push	{r4, lr}
 80013e6:	2121      	movs	r1, #33	; 0x21
 80013e8:	4604      	mov	r4, r0
 80013ea:	2032      	movs	r0, #50	; 0x32
 80013ec:	f001 fc0a 	bl	8002c04 <COMPASSACCELERO_IO_Read>
 80013f0:	f000 000c 	and.w	r0, r0, #12
 80013f4:	ea40 0204 	orr.w	r2, r0, r4
 80013f8:	2121      	movs	r1, #33	; 0x21
 80013fa:	e8bd 4010 	ldmia.w	sp!, {r4, lr}
 80013fe:	2032      	movs	r0, #50	; 0x32
 8001400:	f001 bbfe 	b.w	8002c00 <COMPASSACCELERO_IO_Write>

08001404 <LSM303AGR_AccFilterCmd>:
 8001404:	b510      	push	{r4, lr}
 8001406:	2121      	movs	r1, #33	; 0x21
 8001408:	4604      	mov	r4, r0
 800140a:	2032      	movs	r0, #50	; 0x32
 800140c:	f001 fbfa 	bl	8002c04 <COMPASSACCELERO_IO_Read>
 8001410:	f000 00f7 	and.w	r0, r0, #247	; 0xf7
 8001414:	ea40 0204 	orr.w	r2, r0, r4
 8001418:	2121      	movs	r1, #33	; 0x21
 800141a:	e8bd 4010 	ldmia.w	sp!, {r4, lr}
 800141e:	2032      	movs	r0, #50	; 0x32
 8001420:	f001 bbee 	b.w	8002c00 <COMPASSACCELERO_IO_Write>

08001424 <LSM303AGR_AccReadXYZ>:
 8001424:	e92d 47f0 	stmdb	sp!, {r4, r5, r6, r7, r8, r9, sl, lr}
 8001428:	2123      	movs	r1, #35	; 0x23
 800142a:	4606      	mov	r6, r0
 800142c:	2032      	movs	r0, #50	; 0x32
 800142e:	f001 fbe9 	bl	8002c04 <COMPASSACCELERO_IO_Read>
 8001432:	2124      	movs	r1, #36	; 0x24
 8001434:	4607      	mov	r7, r0
 8001436:	2032      	movs	r0, #50	; 0x32
 8001438:	f001 fbe4 	bl	8002c04 <COMPASSACCELERO_IO_Read>
 800143c:	2128      	movs	r1, #40	; 0x28
 800143e:	2032      	movs	r0, #50	; 0x32
 8001440:	f001 fbe0 	bl	8002c04 <COMPASSACCELERO_IO_Read>
 8001444:	2129      	movs	r1, #41	; 0x29
 8001446:	fa4f f880 	sxtb.w	r8, r0
 800144a:	2032      	movs	r0, #50	; 0x32
 800144c:	f001 fbda 	bl	8002c04 <COMPASSACCELERO_IO_Read>
 8001450:	212a      	movs	r1, #42	; 0x2a
 8001452:	fa4f f980 	sxtb.w	r9, r0
 8001456:	2032      	movs	r0, #50	; 0x32
 8001458:	f001 fbd4 	bl	8002c04 <COMPASSACCELERO_IO_Read>
 800145c:	212b      	movs	r1, #43	; 0x2b
 800145e:	b244      	sxtb	r4, r0
 8001460:	2032      	movs	r0, #50	; 0x32
 8001462:	f001 fbcf 	bl	8002c04 <COMPASSACCELERO_IO_Read>
 8001466:	212c      	movs	r1, #44	; 0x2c
 8001468:	fa4f fa80 	sxtb.w	sl, r0
 800146c:	2032      	movs	r0, #50	; 0x32
 800146e:	f001 fbc9 	bl	8002c04 <COMPASSACCELERO_IO_Read>
 8001472:	212d      	movs	r1, #45	; 0x2d
 8001474:	b245      	sxtb	r5, r0
 8001476:	2032      	movs	r0, #50	; 0x32
 8001478:	f001 fbc4 	bl	8002c04 <COMPASSACCELERO_IO_Read>
 800147c:	067a      	lsls	r2, r7, #25
 800147e:	b243      	sxtb	r3, r0
 8001480:	d51d      	bpl.n	80014be <LSM303AGR_AccReadXYZ+0x9a>
 8001482:	eb09 2808 	add.w	r8, r9, r8, lsl #8
 8001486:	eb0a 2404 	add.w	r4, sl, r4, lsl #8
 800148a:	fa0f f888 	sxth.w	r8, r8
 800148e:	b224      	sxth	r4, r4
 8001490:	eb03 2505 	add.w	r5, r3, r5, lsl #8
 8001494:	f007 0030 	and.w	r0, r7, #48	; 0x30
 8001498:	2820      	cmp	r0, #32
 800149a:	b22d      	sxth	r5, r5
 800149c:	d019      	beq.n	80014d2 <LSM303AGR_AccReadXYZ+0xae>
 800149e:	2830      	cmp	r0, #48	; 0x30
 80014a0:	d019      	beq.n	80014d6 <LSM303AGR_AccReadXYZ+0xb2>
 80014a2:	2810      	cmp	r0, #16
 80014a4:	bf14      	ite	ne
 80014a6:	2301      	movne	r3, #1
 80014a8:	2302      	moveq	r3, #2
 80014aa:	fb08 f803 	mul.w	r8, r8, r3
 80014ae:	435c      	muls	r4, r3
 80014b0:	435d      	muls	r5, r3
 80014b2:	f8a6 8000 	strh.w	r8, [r6]
 80014b6:	8074      	strh	r4, [r6, #2]
 80014b8:	80b5      	strh	r5, [r6, #4]
 80014ba:	e8bd 87f0 	ldmia.w	sp!, {r4, r5, r6, r7, r8, r9, sl, pc}
 80014be:	eb08 2809 	add.w	r8, r8, r9, lsl #8
 80014c2:	eb04 240a 	add.w	r4, r4, sl, lsl #8
 80014c6:	fa0f f888 	sxth.w	r8, r8
 80014ca:	b224      	sxth	r4, r4
 80014cc:	eb05 2503 	add.w	r5, r5, r3, lsl #8
 80014d0:	e7e0      	b.n	8001494 <LSM303AGR_AccReadXYZ+0x70>
 80014d2:	2304      	movs	r3, #4
 80014d4:	e7e9      	b.n	80014aa <LSM303AGR_AccReadXYZ+0x86>
 80014d6:	230c      	movs	r3, #12
 80014d8:	e7e7      	b.n	80014aa <LSM303AGR_AccReadXYZ+0x86>

080014da <LSM303AGR_AccFilterClickCmd>:
 80014da:	b510      	push	{r4, lr}
 80014dc:	2121      	movs	r1, #33	; 0x21
 80014de:	4604      	mov	r4, r0
 80014e0:	2032      	movs	r0, #50	; 0x32
 80014e2:	f001 fb8f 	bl	8002c04 <COMPASSACCELERO_IO_Read>
 80014e6:	f000 00fb 	and.w	r0, r0, #251	; 0xfb
 80014ea:	ea40 0204 	orr.w	r2, r0, r4
 80014ee:	2121      	movs	r1, #33	; 0x21
 80014f0:	e8bd 4010 	ldmia.w	sp!, {r4, lr}
 80014f4:	2032      	movs	r0, #50	; 0x32
 80014f6:	f001 bb83 	b.w	8002c00 <COMPASSACCELERO_IO_Write>

080014fa <LSM303AGR_AccIT1Enable>:
 80014fa:	b510      	push	{r4, lr}
 80014fc:	2122      	movs	r1, #34	; 0x22
 80014fe:	4604      	mov	r4, r0
 8001500:	2032      	movs	r0, #50	; 0x32
 8001502:	f001 fb7f 	bl	8002c04 <COMPASSACCELERO_IO_Read>
 8001506:	4320      	orrs	r0, r4
 8001508:	b2c2      	uxtb	r2, r0
 800150a:	e8bd 4010 	ldmia.w	sp!, {r4, lr}
 800150e:	2122      	movs	r1, #34	; 0x22
 8001510:	2032      	movs	r0, #50	; 0x32
 8001512:	f001 bb75 	b.w	8002c00 <COMPASSACCELERO_IO_Write>

08001516 <LSM303AGR_AccClickITEnable>:
 8001516:	b510      	push	{r4, lr}
 8001518:	2138      	movs	r1, #56	; 0x38
 800151a:	4604      	mov	r4, r0
 800151c:	2032      	movs	r0, #50	; 0x32
 800151e:	f001 fb71 	bl	8002c04 <COMPASSACCELERO_IO_Read>
 8001522:	4320      	orrs	r0, r4
 8001524:	b2c2      	uxtb	r2, r0
 8001526:	2138      	movs	r1, #56	; 0x38
 8001528:	2032      	movs	r0, #50	; 0x32
 800152a:	f001 fb69 	bl	8002c00 <COMPASSACCELERO_IO_Write>
 800152e:	220a      	movs	r2, #10
 8001530:	213a      	movs	r1, #58	; 0x3a
 8001532:	2032      	movs	r0, #50	; 0x32
 8001534:	f001 fb64 	bl	8002c00 <COMPASSACCELERO_IO_Write>
 8001538:	2205      	movs	r2, #5
 800153a:	213b      	movs	r1, #59	; 0x3b
 800153c:	2032      	movs	r0, #50	; 0x32
 800153e:	f001 fb5f 	bl	8002c00 <COMPASSACCELERO_IO_Write>
 8001542:	2205      	movs	r2, #5
 8001544:	213c      	movs	r1, #60	; 0x3c
 8001546:	2032      	movs	r0, #50	; 0x32
 8001548:	f001 fb5a 	bl	8002c00 <COMPASSACCELERO_IO_Write>
 800154c:	2232      	movs	r2, #50	; 0x32
 800154e:	e8bd 4010 	ldmia.w	sp!, {r4, lr}
 8001552:	213d      	movs	r1, #61	; 0x3d
 8001554:	4610      	mov	r0, r2
 8001556:	f001 bb53 	b.w	8002c00 <COMPASSACCELERO_IO_Write>

0800155a <LSM303AGR_AccZClickITConfig>:
 800155a:	b508      	push	{r3, lr}
 800155c:	f001 fb28 	bl	8002bb0 <COMPASSACCELERO_IO_ITConfig>
 8001560:	2080      	movs	r0, #128	; 0x80
 8001562:	f7ff ffca 	bl	80014fa <LSM303AGR_AccIT1Enable>
 8001566:	2004      	movs	r0, #4
 8001568:	f7ff ffb7 	bl	80014da <LSM303AGR_AccFilterClickCmd>
 800156c:	e8bd 4008 	ldmia.w	sp!, {r3, lr}
 8001570:	2010      	movs	r0, #16
 8001572:	f7ff bfd0 	b.w	8001516 <LSM303AGR_AccClickITEnable>

08001576 <LSM303DLHC_AccDeInit>:
 8001576:	4770      	bx	lr

08001578 <LSM303DLHC_AccInit>:
 8001578:	b510      	push	{r4, lr}
 800157a:	4604      	mov	r4, r0
 800157c:	f001 faf6 	bl	8002b6c <COMPASSACCELERO_IO_Init>
 8001580:	b2e2      	uxtb	r2, r4
 8001582:	2120      	movs	r1, #32
 8001584:	2032      	movs	r0, #50	; 0x32
 8001586:	f001 fb3b 	bl	8002c00 <COMPASSACCELERO_IO_Write>
 800158a:	e8bd 4010 	ldmia.w	sp!, {r4, lr}
 800158e:	2200      	movs	r2, #0
 8001590:	2123      	movs	r1, #35	; 0x23
 8001592:	2032      	movs	r0, #50	; 0x32
 8001594:	f001 bb34 	b.w	8002c00 <COMPASSACCELERO_IO_Write>

08001598 <LSM303DLHC_AccReadID>:
 8001598:	b508      	push	{r3, lr}
 800159a:	f001 fae7 	bl	8002b6c <COMPASSACCELERO_IO_Init>
 800159e:	e8bd 4008 	ldmia.w	sp!, {r3, lr}
 80015a2:	210f      	movs	r1, #15
 80015a4:	2032      	movs	r0, #50	; 0x32
 80015a6:	f001 bb2d 	b.w	8002c04 <COMPASSACCELERO_IO_Read>

080015aa <LSM303DLHC_AccRebootCmd>:
 80015aa:	b508      	push	{r3, lr}
 80015ac:	2124      	movs	r1, #36	; 0x24
 80015ae:	2032      	movs	r0, #50	; 0x32
 80015b0:	f001 fb28 	bl	8002c04 <COMPASSACCELERO_IO_Read>
 80015b4:	f060 007f 	orn	r0, r0, #127	; 0x7f
 80015b8:	b2c2      	uxtb	r2, r0
 80015ba:	e8bd 4008 	ldmia.w	sp!, {r3, lr}
 80015be:	2124      	movs	r1, #36	; 0x24
 80015c0:	2032      	movs	r0, #50	; 0x32
 80015c2:	f001 bb1d 	b.w	8002c00 <COMPASSACCELERO_IO_Write>

080015c6 <LSM303DLHC_AccFilterConfig>:
 80015c6:	b510      	push	{r4, lr}
 80015c8:	2121      	movs	r1, #33	; 0x21
 80015ca:	4604      	mov	r4, r0
 80015cc:	2032      	movs	r0, #50	; 0x32
 80015ce:	f001 fb19 	bl	8002c04 <COMPASSACCELERO_IO_Read>
 80015d2:	f000 000c 	and.w	r0, r0, #12
 80015d6:	ea40 0204 	orr.w	r2, r0, r4
 80015da:	2121      	movs	r1, #33	; 0x21
 80015dc:	e8bd 4010 	ldmia.w	sp!, {r4, lr}
 80015e0:	2032      	movs	r0, #50	; 0x32
 80015e2:	f001 bb0d 	b.w	8002c00 <COMPASSACCELERO_IO_Write>

080015e6 <LSM303DLHC_AccFilterCmd>:
 80015e6:	b510      	push	{r4, lr}
 80015e8:	2121      	movs	r1, #33	; 0x21
 80015ea:	4604      	mov	r4, r0
 80015ec:	2032      	movs	r0, #50	; 0x32
 80015ee:	f001 fb09 	bl	8002c04 <COMPASSACCELERO_IO_Read>
 80015f2:	f000 00f7 	and.w	r0, r0, #247	; 0xf7
 80015f6:	ea40 0204 	orr.w	r2, r0, r4
 80015fa:	2121      	movs	r1, #33	; 0x21
 80015fc:	e8bd 4010 	ldmia.w	sp!, {r4, lr}
 8001600:	2032      	movs	r0, #50	; 0x32
 8001602:	f001 bafd 	b.w	8002c00 <COMPASSACCELERO_IO_Write>

08001606 <LSM303DLHC_AccReadXYZ>:
 8001606:	e92d 47f0 	stmdb	sp!, {r4, r5, r6, r7, r8, r9, sl, lr}
 800160a:	2123      	movs	r1, #35	; 0x23
 800160c:	4606      	mov	r6, r0
 800160e:	2032      	movs	r0, #50	; 0x32
 8001610:	f001 faf8 	bl	8002c04 <COMPASSACCELERO_IO_Read>
 8001614:	2124      	movs	r1, #36	; 0x24
 8001616:	4607      	mov	r7, r0
 8001618:	2032      	movs	r0, #50	; 0x32
 800161a:	f001 faf3 	bl	8002c04 <COMPASSACCELERO_IO_Read>
 800161e:	2128      	movs	r1, #40	; 0x28
 8001620:	2032      	movs	r0, #50	; 0x32
 8001622:	f001 faef 	bl	8002c04 <COMPASSACCELERO_IO_Read>
 8001626:	2129      	movs	r1, #41	; 0x29
 8001628:	fa4f f880 	sxtb.w	r8, r0
 800162c:	2032      	movs	r0, #50	; 0x32
 800162e:	f001 fae9 	bl	8002c04 <COMPASSACCELERO_IO_Read>
 8001632:	212a      	movs	r1, #42	; 0x2a
 8001634:	fa4f f980 	sxtb.w	r9, r0
 8001638:	2032      	movs	r0, #50	; 0x32
 800163a:	f001 fae3 	bl	8002c04 <COMPASSACCELERO_IO_Read>
 800163e:	212b      	movs	r1, #43	; 0x2b
 8001640:	b244      	sxtb	r4, r0
 8001642:	2032      	movs	r0, #50	; 0x32
 8001644:	f001 fade 	bl	8002c04 <COMPASSACCELERO_IO_Read>
 8001648:	212c      	movs	r1, #44	; 0x2c
 800164a:	fa4f fa80 	sxtb.w	sl, r0
 800164e:	2032      	movs	r0, #50	; 0x32
 8001650:	f001 fad8 	bl	8002c04 <COMPASSACCELERO_IO_Read>
 8001654:	212d      	movs	r1, #45	; 0x2d
 8001656:	b245      	sxtb	r5, r0
 8001658:	2032      	movs	r0, #50	; 0x32
 800165a:	f001 fad3 	bl	8002c04 <COMPASSACCELERO_IO_Read>
 800165e:	067a      	lsls	r2, r7, #25
 8001660:	b243      	sxtb	r3, r0
 8001662:	d51d      	bpl.n	80016a0 <LSM303DLHC_AccReadXYZ+0x9a>
 8001664:	eb09 2808 	add.w	r8, r9, r8, lsl #8
 8001668:	eb0a 2404 	add.w	r4, sl, r4, lsl #8
 800166c:	fa0f f888 	sxth.w	r8, r8
 8001670:	b224      	sxth	r4, r4
 8001672:	eb03 2505 	add.w	r5, r3, r5, lsl #8
 8001676:	f007 0030 	and.w	r0, r7, #48	; 0x30
 800167a:	2820      	cmp	r0, #32
 800167c:	b22d      	sxth	r5, r5
 800167e:	d019      	beq.n	80016b4 <LSM303DLHC_AccReadXYZ+0xae>
 8001680:	2830      	cmp	r0, #48	; 0x30
 8001682:	d019      	beq.n	80016b8 <LSM303DLHC_AccReadXYZ+0xb2>
 8001684:	2810      	cmp	r0, #16
 8001686:	bf14      	ite	ne
 8001688:	2301      	movne	r3, #1
 800168a:	2302      	moveq	r3, #2
 800168c:	fb08 f803 	mul.w	r8, r8, r3
 8001690:	435c      	muls	r4, r3
 8001692:	435d      	muls	r5, r3
 8001694:	f8a6 8000 	strh.w	r8, [r6]
 8001698:	8074      	strh	r4, [r6, #2]
 800169a:	80b5      	strh	r5, [r6, #4]
 800169c:	e8bd 87f0 	ldmia.w	sp!, {r4, r5, r6, r7, r8, r9, sl, pc}
 80016a0:	eb08 2809 	add.w	r8, r8, r9, lsl #8
 80016a4:	eb04 240a 	add.w	r4, r4, sl, lsl #8
 80016a8:	fa0f f888 	sxth.w	r8, r8
 80016ac:	b224      	sxth	r4, r4
 80016ae:	eb05 2503 	add.w	r5, r5, r3, lsl #8
 80016b2:	e7e0      	b.n	8001676 <LSM303DLHC_AccReadXYZ+0x70>
 80016b4:	2304      	movs	r3, #4
 80016b6:	e7e9      	b.n	800168c <LSM303DLHC_AccReadXYZ+0x86>
 80016b8:	230c      	movs	r3, #12
 80016ba:	e7e7      	b.n	800168c <LSM303DLHC_AccReadXYZ+0x86>

080016bc <LSM303DLHC_AccFilterClickCmd>:
 80016bc:	b510      	push	{r4, lr}
 80016be:	2121      	movs	r1, #33	; 0x21
 80016c0:	4604      	mov	r4, r0
 80016c2:	2032      	movs	r0, #50	; 0x32
 80016c4:	f001 fa9e 	bl	8002c04 <COMPASSACCELERO_IO_Read>
 80016c8:	f000 00fb 	and.w	r0, r0, #251	; 0xfb
 80016cc:	ea40 0204 	orr.w	r2, r0, r4
 80016d0:	2121      	movs	r1, #33	; 0x21
 80016d2:	e8bd 4010 	ldmia.w	sp!, {r4, lr}
 80016d6:	2032      	movs	r0, #50	; 0x32
 80016d8:	f001 ba92 	b.w	8002c00 <COMPASSACCELERO_IO_Write>

080016dc <LSM303DLHC_AccIT1Enable>:
 80016dc:	b510      	push	{r4, lr}
 80016de:	2122      	movs	r1, #34	; 0x22
 80016e0:	4604      	mov	r4, r0
 80016e2:	2032      	movs	r0, #50	; 0x32
 80016e4:	f001 fa8e 	bl	8002c04 <COMPASSACCELERO_IO_Read>
 80016e8:	4320      	orrs	r0, r4
 80016ea:	b2c2      	uxtb	r2, r0
 80016ec:	e8bd 4010 	ldmia.w	sp!, {r4, lr}
 80016f0:	2122      	movs	r1, #34	; 0x22
 80016f2:	2032      	movs	r0, #50	; 0x32
 80016f4:	f001 ba84 	b.w	8002c00 <COMPASSACCELERO_IO_Write>

080016f8 <LSM303DLHC_AccClickITEnable>:
 80016f8:	b510      	push	{r4, lr}
 80016fa:	2138      	movs	r1, #56	; 0x38
 80016fc:	4604      	mov	r4, r0
 80016fe:	2032      	movs	r0, #50	; 0x32
 8001700:	f001 fa80 	bl	8002c04 <COMPASSACCELERO_IO_Read>
 8001704:	4320      	orrs	r0, r4
 8001706:	b2c2      	uxtb	r2, r0
 8001708:	2138      	movs	r1, #56	; 0x38
 800170a:	2032      	movs	r0, #50	; 0x32
 800170c:	f001 fa78 	bl	8002c00 <COMPASSACCELERO_IO_Write>
 8001710:	220a      	movs	r2, #10
 8001712:	213a      	movs	r1, #58	; 0x3a
 8001714:	2032      	movs	r0, #50	; 0x32
 8001716:	f001 fa73 	bl	8002c00 <COMPASSACCELERO_IO_Write>
 800171a:	2205      	movs	r2, #5
 800171c:	213b      	movs	r1, #59	; 0x3b
 800171e:	2032      	movs	r0, #50	; 0x32
 8001720:	f001 fa6e 	bl	8002c00 <COMPASSACCELERO_IO_Write>
 8001724:	2205      	movs	r2, #5
 8001726:	213c      	movs	r1, #60	; 0x3c
 8001728:	2032      	movs	r0, #50	; 0x32
 800172a:	f001 fa69 	bl	8002c00 <COMPASSACCELERO_IO_Write>
 800172e:	2232      	movs	r2, #50	; 0x32
 8001730:	e8bd 4010 	ldmia.w	sp!, {r4, lr}
 8001734:	213d      	movs	r1, #61	; 0x3d
 8001736:	4610      	mov	r0, r2
 8001738:	f001 ba62 	b.w	8002c00 <COMPASSACCELERO_IO_Write>

0800173c <LSM303DLHC_AccZClickITConfig>:
 800173c:	b508      	push	{r3, lr}
 800173e:	f001 fa37 	bl	8002bb0 <COMPASSACCELERO_IO_ITConfig>
 8001742:	2080      	movs	r0, #128	; 0x80
 8001744:	f7ff ffca 	bl	80016dc <LSM303DLHC_AccIT1Enable>
 8001748:	2004      	movs	r0, #4
 800174a:	f7ff ffb7 	bl	80016bc <LSM303DLHC_AccFilterClickCmd>
 800174e:	e8bd 4008 	ldmia.w	sp!, {r3, lr}
 8001752:	2010      	movs	r0, #16
 8001754:	f7ff bfd0 	b.w	80016f8 <LSM303DLHC_AccClickITEnable>

08001758 <MX_ADC1_Init>:
 8001758:	b51f      	push	{r0, r1, r2, r3, r4, lr}
 800175a:	2210      	movs	r2, #16
 800175c:	2100      	movs	r1, #0
 800175e:	4668      	mov	r0, sp
 8001760:	f007 fbba 	bl	8008ed8 <memset>
 8001764:	4817      	ldr	r0, [pc, #92]	; (80017c4 <MX_ADC1_Init+0x6c>)
 8001766:	4a18      	ldr	r2, [pc, #96]	; (80017c8 <MX_ADC1_Init+0x70>)
 8001768:	2300      	movs	r3, #0
 800176a:	e9c0 2300 	strd	r2, r3, [r0]
 800176e:	4a17      	ldr	r2, [pc, #92]	; (80017cc <MX_ADC1_Init+0x74>)
 8001770:	6282      	str	r2, [r0, #40]	; 0x28
 8001772:	2401      	movs	r4, #1
 8001774:	2202      	movs	r2, #2
 8001776:	6083      	str	r3, [r0, #8]
 8001778:	6104      	str	r4, [r0, #16]
 800177a:	7604      	strb	r4, [r0, #24]
 800177c:	f880 3020 	strb.w	r3, [r0, #32]
 8001780:	62c3      	str	r3, [r0, #44]	; 0x2c
 8001782:	60c3      	str	r3, [r0, #12]
 8001784:	61c2      	str	r2, [r0, #28]
 8001786:	f880 3030 	strb.w	r3, [r0, #48]	; 0x30
 800178a:	6144      	str	r4, [r0, #20]
 800178c:	f001 fcda 	bl	8003144 <HAL_ADC_Init>
 8001790:	b108      	cbz	r0, 8001796 <MX_ADC1_Init+0x3e>
 8001792:	f000 ff91 	bl	80026b8 <Error_Handler>
 8001796:	2307      	movs	r3, #7
 8001798:	480a      	ldr	r0, [pc, #40]	; (80017c4 <MX_ADC1_Init+0x6c>)
 800179a:	9302      	str	r3, [sp, #8]
 800179c:	4669      	mov	r1, sp
 800179e:	e9cd 4400 	strd	r4, r4, [sp]
 80017a2:	f001 fe05 	bl	80033b0 <HAL_ADC_ConfigChannel>
 80017a6:	b108      	cbz	r0, 80017ac <MX_ADC1_Init+0x54>
 80017a8:	f000 ff86 	bl	80026b8 <Error_Handler>
 80017ac:	2302      	movs	r3, #2
 80017ae:	4805      	ldr	r0, [pc, #20]	; (80017c4 <MX_ADC1_Init+0x6c>)
 80017b0:	4669      	mov	r1, sp
 80017b2:	e9cd 3300 	strd	r3, r3, [sp]
 80017b6:	f001 fdfb 	bl	80033b0 <HAL_ADC_ConfigChannel>
 80017ba:	b108      	cbz	r0, 80017c0 <MX_ADC1_Init+0x68>
 80017bc:	f000 ff7c 	bl	80026b8 <Error_Handler>
 80017c0:	b004      	add	sp, #16
 80017c2:	bd10      	pop	{r4, pc}
 80017c4:	20000290 	.word	0x20000290
 80017c8:	40012000 	.word	0x40012000
 80017cc:	0f000001 	.word	0x0f000001

080017d0 <HAL_ADC_MspInit>:
 80017d0:	b570      	push	{r4, r5, r6, lr}
 80017d2:	4606      	mov	r6, r0
 80017d4:	b088      	sub	sp, #32
 80017d6:	2214      	movs	r2, #20
 80017d8:	2100      	movs	r1, #0
 80017da:	a803      	add	r0, sp, #12
 80017dc:	f007 fb7c 	bl	8008ed8 <memset>
 80017e0:	6832      	ldr	r2, [r6, #0]
 80017e2:	4b20      	ldr	r3, [pc, #128]	; (8001864 <HAL_ADC_MspInit+0x94>)
 80017e4:	429a      	cmp	r2, r3
 80017e6:	d13b      	bne.n	8001860 <HAL_ADC_MspInit+0x90>
 80017e8:	2500      	movs	r5, #0
 80017ea:	f503 338c 	add.w	r3, r3, #71680	; 0x11800
 80017ee:	9501      	str	r5, [sp, #4]
 80017f0:	6c5a      	ldr	r2, [r3, #68]	; 0x44
 80017f2:	481d      	ldr	r0, [pc, #116]	; (8001868 <HAL_ADC_MspInit+0x98>)
 80017f4:	4c1d      	ldr	r4, [pc, #116]	; (800186c <HAL_ADC_MspInit+0x9c>)
 80017f6:	f442 7280 	orr.w	r2, r2, #256	; 0x100
 80017fa:	645a      	str	r2, [r3, #68]	; 0x44
 80017fc:	6c5a      	ldr	r2, [r3, #68]	; 0x44
 80017fe:	f402 7280 	and.w	r2, r2, #256	; 0x100
 8001802:	9201      	str	r2, [sp, #4]
 8001804:	9a01      	ldr	r2, [sp, #4]
 8001806:	9502      	str	r5, [sp, #8]
 8001808:	6b1a      	ldr	r2, [r3, #48]	; 0x30
 800180a:	f042 0201 	orr.w	r2, r2, #1
 800180e:	631a      	str	r2, [r3, #48]	; 0x30
 8001810:	6b1b      	ldr	r3, [r3, #48]	; 0x30
 8001812:	9505      	str	r5, [sp, #20]
 8001814:	f003 0301 	and.w	r3, r3, #1
 8001818:	9302      	str	r3, [sp, #8]
 800181a:	9b02      	ldr	r3, [sp, #8]
 800181c:	2206      	movs	r2, #6
 800181e:	2303      	movs	r3, #3
 8001820:	a903      	add	r1, sp, #12
 8001822:	e9cd 2303 	strd	r2, r3, [sp, #12]
 8001826:	f002 f96b 	bl	8003b00 <HAL_GPIO_Init>
 800182a:	4b11      	ldr	r3, [pc, #68]	; (8001870 <HAL_ADC_MspInit+0xa0>)
 800182c:	f44f 6180 	mov.w	r1, #1024	; 0x400
 8001830:	e9c4 3500 	strd	r3, r5, [r4]
 8001834:	f44f 5380 	mov.w	r3, #4096	; 0x1000
 8001838:	f44f 4080 	mov.w	r0, #16384	; 0x4000
 800183c:	e9c4 1304 	strd	r1, r3, [r4, #16]
 8001840:	f44f 7380 	mov.w	r3, #256	; 0x100
 8001844:	e9c4 0306 	strd	r0, r3, [r4, #24]
 8001848:	4620      	mov	r0, r4
 800184a:	e9c4 5502 	strd	r5, r5, [r4, #8]
 800184e:	e9c4 5508 	strd	r5, r5, [r4, #32]
 8001852:	f001 ff09 	bl	8003668 <HAL_DMA_Init>
 8001856:	b108      	cbz	r0, 800185c <HAL_ADC_MspInit+0x8c>
 8001858:	f000 ff2e 	bl	80026b8 <Error_Handler>
 800185c:	63b4      	str	r4, [r6, #56]	; 0x38
 800185e:	63a6      	str	r6, [r4, #56]	; 0x38
 8001860:	b008      	add	sp, #32
 8001862:	bd70      	pop	{r4, r5, r6, pc}
 8001864:	40012000 	.word	0x40012000
 8001868:	40020000 	.word	0x40020000
 800186c:	200002d8 	.word	0x200002d8
 8001870:	40026410 	.word	0x40026410

08001874 <MX_DMA_Init>:
 8001874:	b507      	push	{r0, r1, r2, lr}
 8001876:	4b0f      	ldr	r3, [pc, #60]	; (80018b4 <MX_DMA_Init+0x40>)
 8001878:	2200      	movs	r2, #0
 800187a:	9201      	str	r2, [sp, #4]
 800187c:	6b19      	ldr	r1, [r3, #48]	; 0x30
 800187e:	f441 0180 	orr.w	r1, r1, #4194304	; 0x400000
 8001882:	6319      	str	r1, [r3, #48]	; 0x30
 8001884:	6b1b      	ldr	r3, [r3, #48]	; 0x30
 8001886:	f403 0380 	and.w	r3, r3, #4194304	; 0x400000
 800188a:	4611      	mov	r1, r2
 800188c:	9301      	str	r3, [sp, #4]
 800188e:	2038      	movs	r0, #56	; 0x38
 8001890:	9b01      	ldr	r3, [sp, #4]
 8001892:	f001 fe65 	bl	8003560 <HAL_NVIC_SetPriority>
 8001896:	2038      	movs	r0, #56	; 0x38
 8001898:	f001 fea6 	bl	80035e8 <HAL_NVIC_EnableIRQ>
 800189c:	2200      	movs	r2, #0
 800189e:	4611      	mov	r1, r2
 80018a0:	2039      	movs	r0, #57	; 0x39
 80018a2:	f001 fe5d 	bl	8003560 <HAL_NVIC_SetPriority>
 80018a6:	2039      	movs	r0, #57	; 0x39
 80018a8:	b003      	add	sp, #12
 80018aa:	f85d eb04 	ldr.w	lr, [sp], #4
 80018ae:	f001 be9b 	b.w	80035e8 <HAL_NVIC_EnableIRQ>
 80018b2:	bf00      	nop
 80018b4:	40023800 	.word	0x40023800

080018b8 <MX_GPIO_Init>:
 80018b8:	e92d 47f0 	stmdb	sp!, {r4, r5, r6, r7, r8, r9, sl, lr}
 80018bc:	b08c      	sub	sp, #48	; 0x30
 80018be:	2214      	movs	r2, #20
 80018c0:	2100      	movs	r1, #0
 80018c2:	a807      	add	r0, sp, #28
 80018c4:	f007 fb08 	bl	8008ed8 <memset>
 80018c8:	2400      	movs	r4, #0
 80018ca:	4b6e      	ldr	r3, [pc, #440]	; (8001a84 <MX_GPIO_Init+0x1cc>)
 80018cc:	9401      	str	r4, [sp, #4]
 80018ce:	6b1a      	ldr	r2, [r3, #48]	; 0x30
 80018d0:	f8df 81c0 	ldr.w	r8, [pc, #448]	; 8001a94 <MX_GPIO_Init+0x1dc>
 80018d4:	4f6c      	ldr	r7, [pc, #432]	; (8001a88 <MX_GPIO_Init+0x1d0>)
 80018d6:	f8df a1c0 	ldr.w	sl, [pc, #448]	; 8001a98 <MX_GPIO_Init+0x1e0>
 80018da:	4e6c      	ldr	r6, [pc, #432]	; (8001a8c <MX_GPIO_Init+0x1d4>)
 80018dc:	f042 0210 	orr.w	r2, r2, #16
 80018e0:	631a      	str	r2, [r3, #48]	; 0x30
 80018e2:	6b1a      	ldr	r2, [r3, #48]	; 0x30
 80018e4:	f002 0210 	and.w	r2, r2, #16
 80018e8:	9201      	str	r2, [sp, #4]
 80018ea:	9a01      	ldr	r2, [sp, #4]
 80018ec:	9402      	str	r4, [sp, #8]
 80018ee:	6b1a      	ldr	r2, [r3, #48]	; 0x30
 80018f0:	f042 0204 	orr.w	r2, r2, #4
 80018f4:	631a      	str	r2, [r3, #48]	; 0x30
 80018f6:	6b1a      	ldr	r2, [r3, #48]	; 0x30
 80018f8:	f002 0204 	and.w	r2, r2, #4
 80018fc:	9202      	str	r2, [sp, #8]
 80018fe:	9a02      	ldr	r2, [sp, #8]
 8001900:	9403      	str	r4, [sp, #12]
 8001902:	6b1a      	ldr	r2, [r3, #48]	; 0x30
 8001904:	f042 0280 	orr.w	r2, r2, #128	; 0x80
 8001908:	631a      	str	r2, [r3, #48]	; 0x30
 800190a:	6b1a      	ldr	r2, [r3, #48]	; 0x30
 800190c:	f002 0280 	and.w	r2, r2, #128	; 0x80
 8001910:	9203      	str	r2, [sp, #12]
 8001912:	9a03      	ldr	r2, [sp, #12]
 8001914:	9404      	str	r4, [sp, #16]
 8001916:	6b1a      	ldr	r2, [r3, #48]	; 0x30
 8001918:	f042 0201 	orr.w	r2, r2, #1
 800191c:	631a      	str	r2, [r3, #48]	; 0x30
 800191e:	6b1a      	ldr	r2, [r3, #48]	; 0x30
 8001920:	f002 0201 	and.w	r2, r2, #1
 8001924:	9204      	str	r2, [sp, #16]
 8001926:	9a04      	ldr	r2, [sp, #16]
 8001928:	9405      	str	r4, [sp, #20]
 800192a:	6b1a      	ldr	r2, [r3, #48]	; 0x30
 800192c:	f042 0202 	orr.w	r2, r2, #2
 8001930:	631a      	str	r2, [r3, #48]	; 0x30
 8001932:	6b1a      	ldr	r2, [r3, #48]	; 0x30
 8001934:	f002 0202 	and.w	r2, r2, #2
 8001938:	9205      	str	r2, [sp, #20]
 800193a:	9a05      	ldr	r2, [sp, #20]
 800193c:	9406      	str	r4, [sp, #24]
 800193e:	6b1a      	ldr	r2, [r3, #48]	; 0x30
 8001940:	f042 0208 	orr.w	r2, r2, #8
 8001944:	631a      	str	r2, [r3, #48]	; 0x30
 8001946:	6b1b      	ldr	r3, [r3, #48]	; 0x30
 8001948:	f003 0308 	and.w	r3, r3, #8
 800194c:	9306      	str	r3, [sp, #24]
 800194e:	4622      	mov	r2, r4
 8001950:	4640      	mov	r0, r8
 8001952:	2108      	movs	r1, #8
 8001954:	9b06      	ldr	r3, [sp, #24]
 8001956:	f002 faa1 	bl	8003e9c <HAL_GPIO_WritePin>
 800195a:	2201      	movs	r2, #1
 800195c:	4611      	mov	r1, r2
 800195e:	4638      	mov	r0, r7
 8001960:	f002 fa9c 	bl	8003e9c <HAL_GPIO_WritePin>
 8001964:	4622      	mov	r2, r4
 8001966:	4650      	mov	r0, sl
 8001968:	f244 0182 	movw	r1, #16514	; 0x4082
 800196c:	f002 fa96 	bl	8003e9c <HAL_GPIO_WritePin>
 8001970:	4622      	mov	r2, r4
 8001972:	4630      	mov	r0, r6
 8001974:	f24f 2110 	movw	r1, #61968	; 0xf210
 8001978:	f002 fa90 	bl	8003e9c <HAL_GPIO_WritePin>
 800197c:	2304      	movs	r3, #4
 800197e:	a907      	add	r1, sp, #28
 8001980:	4640      	mov	r0, r8
 8001982:	2501      	movs	r5, #1
 8001984:	e9cd 3407 	strd	r3, r4, [sp, #28]
 8001988:	f04f 0908 	mov.w	r9, #8
 800198c:	9409      	str	r4, [sp, #36]	; 0x24
 800198e:	f002 f8b7 	bl	8003b00 <HAL_GPIO_Init>
 8001992:	a907      	add	r1, sp, #28
 8001994:	4640      	mov	r0, r8
 8001996:	e9cd 9507 	strd	r9, r5, [sp, #28]
 800199a:	e9cd 4409 	strd	r4, r4, [sp, #36]	; 0x24
 800199e:	f002 f8af 	bl	8003b00 <HAL_GPIO_Init>
 80019a2:	2232      	movs	r2, #50	; 0x32
 80019a4:	f44f 1390 	mov.w	r3, #1179648	; 0x120000
 80019a8:	a907      	add	r1, sp, #28
 80019aa:	4640      	mov	r0, r8
 80019ac:	e9cd 2307 	strd	r2, r3, [sp, #28]
 80019b0:	9409      	str	r4, [sp, #36]	; 0x24
 80019b2:	f002 f8a5 	bl	8003b00 <HAL_GPIO_Init>
 80019b6:	a907      	add	r1, sp, #28
 80019b8:	4638      	mov	r0, r7
 80019ba:	f04f 0802 	mov.w	r8, #2
 80019be:	e9cd 5507 	strd	r5, r5, [sp, #28]
 80019c2:	e9cd 4409 	strd	r4, r4, [sp, #36]	; 0x24
 80019c6:	f002 f89b 	bl	8003b00 <HAL_GPIO_Init>
 80019ca:	2305      	movs	r3, #5
 80019cc:	a907      	add	r1, sp, #28
 80019ce:	4638      	mov	r0, r7
 80019d0:	930b      	str	r3, [sp, #44]	; 0x2c
 80019d2:	f8cd 901c 	str.w	r9, [sp, #28]
 80019d6:	e9cd 8408 	strd	r8, r4, [sp, #32]
 80019da:	940a      	str	r4, [sp, #40]	; 0x28
 80019dc:	f002 f890 	bl	8003b00 <HAL_GPIO_Init>
 80019e0:	a907      	add	r1, sp, #28
 80019e2:	482b      	ldr	r0, [pc, #172]	; (8001a90 <MX_GPIO_Init+0x1d8>)
 80019e4:	9409      	str	r4, [sp, #36]	; 0x24
 80019e6:	f04f 0906 	mov.w	r9, #6
 80019ea:	e9cd 5407 	strd	r5, r4, [sp, #28]
 80019ee:	f002 f887 	bl	8003b00 <HAL_GPIO_Init>
 80019f2:	2310      	movs	r3, #16
 80019f4:	a907      	add	r1, sp, #28
 80019f6:	4826      	ldr	r0, [pc, #152]	; (8001a90 <MX_GPIO_Init+0x1d8>)
 80019f8:	f8cd 902c 	str.w	r9, [sp, #44]	; 0x2c
 80019fc:	e9cd 3807 	strd	r3, r8, [sp, #28]
 8001a00:	e9cd 4409 	strd	r4, r4, [sp, #36]	; 0x24
 8001a04:	f002 f87c 	bl	8003b00 <HAL_GPIO_Init>
 8001a08:	f244 0382 	movw	r3, #16514	; 0x4082
 8001a0c:	a907      	add	r1, sp, #28
 8001a0e:	4650      	mov	r0, sl
 8001a10:	e9cd 3507 	strd	r3, r5, [sp, #28]
 8001a14:	e9cd 4409 	strd	r4, r4, [sp, #36]	; 0x24
 8001a18:	f002 f872 	bl	8003b00 <HAL_GPIO_Init>
 8001a1c:	f44f 1388 	mov.w	r3, #1114112	; 0x110000
 8001a20:	f44f 61a0 	mov.w	r1, #1280	; 0x500
 8001a24:	e9cd 1307 	strd	r1, r3, [sp, #28]
 8001a28:	4630      	mov	r0, r6
 8001a2a:	a907      	add	r1, sp, #28
 8001a2c:	9409      	str	r4, [sp, #36]	; 0x24
 8001a2e:	f002 f867 	bl	8003b00 <HAL_GPIO_Init>
 8001a32:	f24f 2310 	movw	r3, #61968	; 0xf210
 8001a36:	a907      	add	r1, sp, #28
 8001a38:	4630      	mov	r0, r6
 8001a3a:	e9cd 3507 	strd	r3, r5, [sp, #28]
 8001a3e:	e9cd 4409 	strd	r4, r4, [sp, #36]	; 0x24
 8001a42:	f002 f85d 	bl	8003b00 <HAL_GPIO_Init>
 8001a46:	f44f 53a4 	mov.w	r3, #5248	; 0x1480
 8001a4a:	a907      	add	r1, sp, #28
 8001a4c:	4638      	mov	r0, r7
 8001a4e:	e9cd 3807 	strd	r3, r8, [sp, #28]
 8001a52:	e9cd 4409 	strd	r4, r4, [sp, #36]	; 0x24
 8001a56:	f8cd 902c 	str.w	r9, [sp, #44]	; 0x2c
 8001a5a:	f002 f851 	bl	8003b00 <HAL_GPIO_Init>
 8001a5e:	2320      	movs	r3, #32
 8001a60:	a907      	add	r1, sp, #28
 8001a62:	4630      	mov	r0, r6
 8001a64:	e9cd 3407 	strd	r3, r4, [sp, #28]
 8001a68:	9409      	str	r4, [sp, #36]	; 0x24
 8001a6a:	f002 f849 	bl	8003b00 <HAL_GPIO_Init>
 8001a6e:	4622      	mov	r2, r4
 8001a70:	4621      	mov	r1, r4
 8001a72:	2017      	movs	r0, #23
 8001a74:	f001 fd74 	bl	8003560 <HAL_NVIC_SetPriority>
 8001a78:	2017      	movs	r0, #23
 8001a7a:	f001 fdb5 	bl	80035e8 <HAL_NVIC_EnableIRQ>
 8001a7e:	b00c      	add	sp, #48	; 0x30
 8001a80:	e8bd 87f0 	ldmia.w	sp!, {r4, r5, r6, r7, r8, r9, sl, pc}
 8001a84:	40023800 	.word	0x40023800
 8001a88:	40020800 	.word	0x40020800
 8001a8c:	40020c00 	.word	0x40020c00
 8001a90:	40020000 	.word	0x40020000
 8001a94:	40021000 	.word	0x40021000
 8001a98:	40020400 	.word	0x40020400

08001a9c <MX_I2C1_Init>:
 8001a9c:	b508      	push	{r3, lr}
 8001a9e:	480b      	ldr	r0, [pc, #44]	; (8001acc <MX_I2C1_Init+0x30>)
 8001aa0:	4a0b      	ldr	r2, [pc, #44]	; (8001ad0 <MX_I2C1_Init+0x34>)
 8001aa2:	4b0c      	ldr	r3, [pc, #48]	; (8001ad4 <MX_I2C1_Init+0x38>)
 8001aa4:	e9c0 2300 	strd	r2, r3, [r0]
 8001aa8:	2300      	movs	r3, #0
 8001aaa:	f44f 4280 	mov.w	r2, #16384	; 0x4000
 8001aae:	e9c0 3302 	strd	r3, r3, [r0, #8]
 8001ab2:	e9c0 2304 	strd	r2, r3, [r0, #16]
 8001ab6:	e9c0 3306 	strd	r3, r3, [r0, #24]
 8001aba:	6203      	str	r3, [r0, #32]
 8001abc:	f003 f87e 	bl	8004bbc <HAL_I2C_Init>
 8001ac0:	b118      	cbz	r0, 8001aca <MX_I2C1_Init+0x2e>
 8001ac2:	e8bd 4008 	ldmia.w	sp!, {r3, lr}
 8001ac6:	f000 bdf7 	b.w	80026b8 <Error_Handler>
 8001aca:	bd08      	pop	{r3, pc}
 8001acc:	20000338 	.word	0x20000338
 8001ad0:	40005400 	.word	0x40005400
 8001ad4:	000186a0 	.word	0x000186a0

08001ad8 <MX_I2C2_Init>:
 8001ad8:	b508      	push	{r3, lr}
 8001ada:	480b      	ldr	r0, [pc, #44]	; (8001b08 <MX_I2C2_Init+0x30>)
 8001adc:	4a0b      	ldr	r2, [pc, #44]	; (8001b0c <MX_I2C2_Init+0x34>)
 8001ade:	4b0c      	ldr	r3, [pc, #48]	; (8001b10 <MX_I2C2_Init+0x38>)
 8001ae0:	e9c0 2300 	strd	r2, r3, [r0]
 8001ae4:	2300      	movs	r3, #0
 8001ae6:	f44f 4280 	mov.w	r2, #16384	; 0x4000
 8001aea:	e9c0 3302 	strd	r3, r3, [r0, #8]
 8001aee:	e9c0 2304 	strd	r2, r3, [r0, #16]
 8001af2:	e9c0 3306 	strd	r3, r3, [r0, #24]
 8001af6:	6203      	str	r3, [r0, #32]
 8001af8:	f003 f860 	bl	8004bbc <HAL_I2C_Init>
 8001afc:	b118      	cbz	r0, 8001b06 <MX_I2C2_Init+0x2e>
 8001afe:	e8bd 4008 	ldmia.w	sp!, {r3, lr}
 8001b02:	f000 bdd9 	b.w	80026b8 <Error_Handler>
 8001b06:	bd08      	pop	{r3, pc}
 8001b08:	2000038c 	.word	0x2000038c
 8001b0c:	40005800 	.word	0x40005800
 8001b10:	000186a0 	.word	0x000186a0

08001b14 <HAL_I2C_MspInit>:
 8001b14:	b5f0      	push	{r4, r5, r6, r7, lr}
 8001b16:	2214      	movs	r2, #20
 8001b18:	b08b      	sub	sp, #44	; 0x2c
 8001b1a:	4604      	mov	r4, r0
 8001b1c:	2100      	movs	r1, #0
 8001b1e:	eb0d 0002 	add.w	r0, sp, r2
 8001b22:	f007 f9d9 	bl	8008ed8 <memset>
 8001b26:	6823      	ldr	r3, [r4, #0]
 8001b28:	4a2d      	ldr	r2, [pc, #180]	; (8001be0 <HAL_I2C_MspInit+0xcc>)
 8001b2a:	4293      	cmp	r3, r2
 8001b2c:	d125      	bne.n	8001b7a <HAL_I2C_MspInit+0x66>
 8001b2e:	4c2d      	ldr	r4, [pc, #180]	; (8001be4 <HAL_I2C_MspInit+0xd0>)
 8001b30:	482d      	ldr	r0, [pc, #180]	; (8001be8 <HAL_I2C_MspInit+0xd4>)
 8001b32:	2500      	movs	r5, #0
 8001b34:	9501      	str	r5, [sp, #4]
 8001b36:	6b23      	ldr	r3, [r4, #48]	; 0x30
 8001b38:	f043 0302 	orr.w	r3, r3, #2
 8001b3c:	6323      	str	r3, [r4, #48]	; 0x30
 8001b3e:	6b23      	ldr	r3, [r4, #48]	; 0x30
 8001b40:	f003 0302 	and.w	r3, r3, #2
 8001b44:	9301      	str	r3, [sp, #4]
 8001b46:	9b01      	ldr	r3, [sp, #4]
 8001b48:	f44f 7210 	mov.w	r2, #576	; 0x240
 8001b4c:	2312      	movs	r3, #18
 8001b4e:	e9cd 2305 	strd	r2, r3, [sp, #20]
 8001b52:	2301      	movs	r3, #1
 8001b54:	e9cd 3507 	strd	r3, r5, [sp, #28]
 8001b58:	a905      	add	r1, sp, #20
 8001b5a:	2304      	movs	r3, #4
 8001b5c:	9309      	str	r3, [sp, #36]	; 0x24
 8001b5e:	f001 ffcf 	bl	8003b00 <HAL_GPIO_Init>
 8001b62:	9502      	str	r5, [sp, #8]
 8001b64:	6c23      	ldr	r3, [r4, #64]	; 0x40
 8001b66:	f443 1300 	orr.w	r3, r3, #2097152	; 0x200000
 8001b6a:	6423      	str	r3, [r4, #64]	; 0x40
 8001b6c:	6c23      	ldr	r3, [r4, #64]	; 0x40
 8001b6e:	f403 1300 	and.w	r3, r3, #2097152	; 0x200000
 8001b72:	9302      	str	r3, [sp, #8]
 8001b74:	9b02      	ldr	r3, [sp, #8]
 8001b76:	b00b      	add	sp, #44	; 0x2c
 8001b78:	bdf0      	pop	{r4, r5, r6, r7, pc}
 8001b7a:	4a1c      	ldr	r2, [pc, #112]	; (8001bec <HAL_I2C_MspInit+0xd8>)
 8001b7c:	4293      	cmp	r3, r2
 8001b7e:	d1fa      	bne.n	8001b76 <HAL_I2C_MspInit+0x62>
 8001b80:	4c18      	ldr	r4, [pc, #96]	; (8001be4 <HAL_I2C_MspInit+0xd0>)
 8001b82:	4819      	ldr	r0, [pc, #100]	; (8001be8 <HAL_I2C_MspInit+0xd4>)
 8001b84:	2500      	movs	r5, #0
 8001b86:	9503      	str	r5, [sp, #12]
 8001b88:	6b23      	ldr	r3, [r4, #48]	; 0x30
 8001b8a:	f043 0302 	orr.w	r3, r3, #2
 8001b8e:	6323      	str	r3, [r4, #48]	; 0x30
 8001b90:	6b23      	ldr	r3, [r4, #48]	; 0x30
 8001b92:	9507      	str	r5, [sp, #28]
 8001b94:	f003 0302 	and.w	r3, r3, #2
 8001b98:	9303      	str	r3, [sp, #12]
 8001b9a:	9b03      	ldr	r3, [sp, #12]
 8001b9c:	2712      	movs	r7, #18
 8001b9e:	f44f 6380 	mov.w	r3, #1024	; 0x400
 8001ba2:	e9cd 3705 	strd	r3, r7, [sp, #20]
 8001ba6:	2603      	movs	r6, #3
 8001ba8:	2304      	movs	r3, #4
 8001baa:	a905      	add	r1, sp, #20
 8001bac:	e9cd 6308 	strd	r6, r3, [sp, #32]
 8001bb0:	f001 ffa6 	bl	8003b00 <HAL_GPIO_Init>
 8001bb4:	2308      	movs	r3, #8
 8001bb6:	e9cd 3705 	strd	r3, r7, [sp, #20]
 8001bba:	480b      	ldr	r0, [pc, #44]	; (8001be8 <HAL_I2C_MspInit+0xd4>)
 8001bbc:	2309      	movs	r3, #9
 8001bbe:	a905      	add	r1, sp, #20
 8001bc0:	9309      	str	r3, [sp, #36]	; 0x24
 8001bc2:	e9cd 5607 	strd	r5, r6, [sp, #28]
 8001bc6:	f001 ff9b 	bl	8003b00 <HAL_GPIO_Init>
 8001bca:	9504      	str	r5, [sp, #16]
 8001bcc:	6c23      	ldr	r3, [r4, #64]	; 0x40
 8001bce:	f443 0380 	orr.w	r3, r3, #4194304	; 0x400000
 8001bd2:	6423      	str	r3, [r4, #64]	; 0x40
 8001bd4:	6c23      	ldr	r3, [r4, #64]	; 0x40
 8001bd6:	f403 0380 	and.w	r3, r3, #4194304	; 0x400000
 8001bda:	9304      	str	r3, [sp, #16]
 8001bdc:	9b04      	ldr	r3, [sp, #16]
 8001bde:	e7ca      	b.n	8001b76 <HAL_I2C_MspInit+0x62>
 8001be0:	40005400 	.word	0x40005400
 8001be4:	40023800 	.word	0x40023800
 8001be8:	40020400 	.word	0x40020400
 8001bec:	40005800 	.word	0x40005800

08001bf0 <HAL_I2C_MspDeInit>:
 8001bf0:	b508      	push	{r3, lr}
 8001bf2:	4a13      	ldr	r2, [pc, #76]	; (8001c40 <HAL_I2C_MspDeInit+0x50>)
 8001bf4:	6803      	ldr	r3, [r0, #0]
 8001bf6:	4293      	cmp	r3, r2
 8001bf8:	d110      	bne.n	8001c1c <HAL_I2C_MspDeInit+0x2c>
 8001bfa:	f502 32f2 	add.w	r2, r2, #123904	; 0x1e400
 8001bfe:	2140      	movs	r1, #64	; 0x40
 8001c00:	6c13      	ldr	r3, [r2, #64]	; 0x40
 8001c02:	4810      	ldr	r0, [pc, #64]	; (8001c44 <HAL_I2C_MspDeInit+0x54>)
 8001c04:	f423 1300 	bic.w	r3, r3, #2097152	; 0x200000
 8001c08:	6413      	str	r3, [r2, #64]	; 0x40
 8001c0a:	f002 f8ab 	bl	8003d64 <HAL_GPIO_DeInit>
 8001c0e:	f44f 7100 	mov.w	r1, #512	; 0x200
 8001c12:	e8bd 4008 	ldmia.w	sp!, {r3, lr}
 8001c16:	480b      	ldr	r0, [pc, #44]	; (8001c44 <HAL_I2C_MspDeInit+0x54>)
 8001c18:	f002 b8a4 	b.w	8003d64 <HAL_GPIO_DeInit>
 8001c1c:	4a0a      	ldr	r2, [pc, #40]	; (8001c48 <HAL_I2C_MspDeInit+0x58>)
 8001c1e:	4293      	cmp	r3, r2
 8001c20:	d10c      	bne.n	8001c3c <HAL_I2C_MspDeInit+0x4c>
 8001c22:	f502 32f0 	add.w	r2, r2, #122880	; 0x1e000
 8001c26:	f44f 6180 	mov.w	r1, #1024	; 0x400
 8001c2a:	6c13      	ldr	r3, [r2, #64]	; 0x40
 8001c2c:	4805      	ldr	r0, [pc, #20]	; (8001c44 <HAL_I2C_MspDeInit+0x54>)
 8001c2e:	f423 0380 	bic.w	r3, r3, #4194304	; 0x400000
 8001c32:	6413      	str	r3, [r2, #64]	; 0x40
 8001c34:	f002 f896 	bl	8003d64 <HAL_GPIO_DeInit>
 8001c38:	2108      	movs	r1, #8
 8001c3a:	e7ea      	b.n	8001c12 <HAL_I2C_MspDeInit+0x22>
 8001c3c:	bd08      	pop	{r3, pc}
 8001c3e:	bf00      	nop
 8001c40:	40005400 	.word	0x40005400
 8001c44:	40020400 	.word	0x40020400
 8001c48:	40005800 	.word	0x40005800

08001c4c <LCD5110_wputchar>:
 8001c4c:	b5f0      	push	{r4, r5, r6, r7, lr}
 8001c4e:	b085      	sub	sp, #20
 8001c50:	9c0a      	ldr	r4, [sp, #40]	; 0x28
 8001c52:	f9b4 500a 	ldrsh.w	r5, [r4, #10]
 8001c56:	2d00      	cmp	r5, #0
 8001c58:	db23      	blt.n	8001ca2 <LCD5110_wputchar+0x56>
 8001c5a:	f9b4 6008 	ldrsh.w	r6, [r4, #8]
 8001c5e:	2e00      	cmp	r6, #0
 8001c60:	db1f      	blt.n	8001ca2 <LCD5110_wputchar+0x56>
 8001c62:	f9b4 7004 	ldrsh.w	r7, [r4, #4]
 8001c66:	3606      	adds	r6, #6
 8001c68:	42be      	cmp	r6, r7
 8001c6a:	d81a      	bhi.n	8001ca2 <LCD5110_wputchar+0x56>
 8001c6c:	f9b4 6006 	ldrsh.w	r6, [r4, #6]
 8001c70:	3508      	adds	r5, #8
 8001c72:	42b5      	cmp	r5, r6
 8001c74:	d815      	bhi.n	8001ca2 <LCD5110_wputchar+0x56>
 8001c76:	9e0b      	ldr	r6, [sp, #44]	; 0x2c
 8001c78:	f9b4 5002 	ldrsh.w	r5, [r4, #2]
 8001c7c:	f9b4 4000 	ldrsh.w	r4, [r4]
 8001c80:	9602      	str	r6, [sp, #8]
 8001c82:	fab3 f383 	clz	r3, r3
 8001c86:	095b      	lsrs	r3, r3, #5
 8001c88:	4e07      	ldr	r6, [pc, #28]	; (8001ca8 <LCD5110_wputchar+0x5c>)
 8001c8a:	9301      	str	r3, [sp, #4]
 8001c8c:	eb02 0242 	add.w	r2, r2, r2, lsl #1
 8001c90:	2308      	movs	r3, #8
 8001c92:	9300      	str	r3, [sp, #0]
 8001c94:	eb06 0242 	add.w	r2, r6, r2, lsl #1
 8001c98:	2306      	movs	r3, #6
 8001c9a:	4429      	add	r1, r5
 8001c9c:	4420      	add	r0, r4
 8001c9e:	f000 f86a 	bl	8001d76 <LCD5110_drawBitmap>
 8001ca2:	b005      	add	sp, #20
 8001ca4:	bdf0      	pop	{r4, r5, r6, r7, pc}
 8001ca6:	bf00      	nop
 8001ca8:	08009090 	.word	0x08009090

08001cac <LCD5110_wendl>:
 8001cac:	4603      	mov	r3, r0
 8001cae:	4608      	mov	r0, r1
 8001cb0:	895a      	ldrh	r2, [r3, #10]
 8001cb2:	3209      	adds	r2, #9
 8001cb4:	815a      	strh	r2, [r3, #10]
 8001cb6:	2202      	movs	r2, #2
 8001cb8:	811a      	strh	r2, [r3, #8]
 8001cba:	7b1b      	ldrb	r3, [r3, #12]
 8001cbc:	b10b      	cbz	r3, 8001cc2 <LCD5110_wendl+0x16>
 8001cbe:	f000 b8f0 	b.w	8001ea2 <LCD5110_refresh_ll>
 8001cc2:	4770      	bx	lr

08001cc4 <LCD5110_wprint>:
 8001cc4:	e92d 41f3 	stmdb	sp!, {r0, r1, r4, r5, r6, r7, r8, lr}
 8001cc8:	f8df 806c 	ldr.w	r8, [pc, #108]	; 8001d38 <LCD5110_wprint+0x74>
 8001ccc:	4605      	mov	r5, r0
 8001cce:	460f      	mov	r7, r1
 8001cd0:	4614      	mov	r4, r2
 8001cd2:	461e      	mov	r6, r3
 8001cd4:	782a      	ldrb	r2, [r5, #0]
 8001cd6:	b912      	cbnz	r2, 8001cde <LCD5110_wprint+0x1a>
 8001cd8:	b002      	add	sp, #8
 8001cda:	e8bd 81f0 	ldmia.w	sp!, {r4, r5, r6, r7, r8, pc}
 8001cde:	2a0a      	cmp	r2, #10
 8001ce0:	d008      	beq.n	8001cf4 <LCD5110_wprint+0x30>
 8001ce2:	e9cd 4600 	strd	r4, r6, [sp]
 8001ce6:	f9b4 100a 	ldrsh.w	r1, [r4, #10]
 8001cea:	f9b4 0008 	ldrsh.w	r0, [r4, #8]
 8001cee:	463b      	mov	r3, r7
 8001cf0:	f7ff ffac 	bl	8001c4c <LCD5110_wputchar>
 8001cf4:	8922      	ldrh	r2, [r4, #8]
 8001cf6:	f9b4 3004 	ldrsh.w	r3, [r4, #4]
 8001cfa:	3206      	adds	r2, #6
 8001cfc:	b212      	sxth	r2, r2
 8001cfe:	8122      	strh	r2, [r4, #8]
 8001d00:	3206      	adds	r2, #6
 8001d02:	429a      	cmp	r2, r3
 8001d04:	d902      	bls.n	8001d0c <LCD5110_wprint+0x48>
 8001d06:	786b      	ldrb	r3, [r5, #1]
 8001d08:	2b0a      	cmp	r3, #10
 8001d0a:	d102      	bne.n	8001d12 <LCD5110_wprint+0x4e>
 8001d0c:	782b      	ldrb	r3, [r5, #0]
 8001d0e:	2b0a      	cmp	r3, #10
 8001d10:	d109      	bne.n	8001d26 <LCD5110_wprint+0x62>
 8001d12:	4631      	mov	r1, r6
 8001d14:	4620      	mov	r0, r4
 8001d16:	f7ff ffc9 	bl	8001cac <LCD5110_wendl>
 8001d1a:	786b      	ldrb	r3, [r5, #1]
 8001d1c:	f813 3008 	ldrb.w	r3, [r3, r8]
 8001d20:	071b      	lsls	r3, r3, #28
 8001d22:	bf48      	it	mi
 8001d24:	3501      	addmi	r5, #1
 8001d26:	f9b4 300a 	ldrsh.w	r3, [r4, #10]
 8001d2a:	f9b4 2006 	ldrsh.w	r2, [r4, #6]
 8001d2e:	3308      	adds	r3, #8
 8001d30:	4293      	cmp	r3, r2
 8001d32:	d8d1      	bhi.n	8001cd8 <LCD5110_wprint+0x14>
 8001d34:	3501      	adds	r5, #1
 8001d36:	e7cd      	b.n	8001cd4 <LCD5110_wprint+0x10>
 8001d38:	08009916 	.word	0x08009916

08001d3c <LCD5110_print>:
 8001d3c:	4613      	mov	r3, r2
 8001d3e:	f502 7205 	add.w	r2, r2, #532	; 0x214
 8001d42:	f7ff bfbf 	b.w	8001cc4 <LCD5110_wprint>

08001d46 <LCD5110_putpix>:
 8001d46:	2853      	cmp	r0, #83	; 0x53
 8001d48:	b530      	push	{r4, r5, lr}
 8001d4a:	d810      	bhi.n	8001d6e <LCD5110_putpix+0x28>
 8001d4c:	292f      	cmp	r1, #47	; 0x2f
 8001d4e:	d80e      	bhi.n	8001d6e <LCD5110_putpix+0x28>
 8001d50:	10cc      	asrs	r4, r1, #3
 8001d52:	2554      	movs	r5, #84	; 0x54
 8001d54:	fb05 0004 	mla	r0, r5, r4, r0
 8001d58:	4403      	add	r3, r0
 8001d5a:	f001 0107 	and.w	r1, r1, #7
 8001d5e:	2401      	movs	r4, #1
 8001d60:	408c      	lsls	r4, r1
 8001d62:	7f19      	ldrb	r1, [r3, #28]
 8001d64:	b122      	cbz	r2, 8001d70 <LCD5110_putpix+0x2a>
 8001d66:	ea41 0204 	orr.w	r2, r1, r4
 8001d6a:	b2d2      	uxtb	r2, r2
 8001d6c:	771a      	strb	r2, [r3, #28]
 8001d6e:	bd30      	pop	{r4, r5, pc}
 8001d70:	ea21 0204 	bic.w	r2, r1, r4
 8001d74:	e7fa      	b.n	8001d6c <LCD5110_putpix+0x26>

08001d76 <LCD5110_drawBitmap>:
 8001d76:	e92d 4ff8 	stmdb	sp!, {r3, r4, r5, r6, r7, r8, r9, sl, fp, lr}
 8001d7a:	460f      	mov	r7, r1
 8001d7c:	4691      	mov	r9, r2
 8001d7e:	461d      	mov	r5, r3
 8001d80:	4606      	mov	r6, r0
 8001d82:	f04f 0800 	mov.w	r8, #0
 8001d86:	f04f 0a01 	mov.w	sl, #1
 8001d8a:	45a8      	cmp	r8, r5
 8001d8c:	db1c      	blt.n	8001dc8 <LCD5110_drawBitmap+0x52>
 8001d8e:	e8bd 8ff8 	ldmia.w	sp!, {r3, r4, r5, r6, r7, r8, r9, sl, fp, pc}
 8001d92:	10e1      	asrs	r1, r4, #3
 8001d94:	4369      	muls	r1, r5
 8001d96:	f004 0207 	and.w	r2, r4, #7
 8001d9a:	fa0a f302 	lsl.w	r3, sl, r2
 8001d9e:	f81b 2001 	ldrb.w	r2, [fp, r1]
 8001da2:	401a      	ands	r2, r3
 8001da4:	9b0b      	ldr	r3, [sp, #44]	; 0x2c
 8001da6:	19e1      	adds	r1, r4, r7
 8001da8:	b113      	cbz	r3, 8001db0 <LCD5110_drawBitmap+0x3a>
 8001daa:	fab2 f282 	clz	r2, r2
 8001dae:	0952      	lsrs	r2, r2, #5
 8001db0:	9b0c      	ldr	r3, [sp, #48]	; 0x30
 8001db2:	4630      	mov	r0, r6
 8001db4:	f7ff ffc7 	bl	8001d46 <LCD5110_putpix>
 8001db8:	3401      	adds	r4, #1
 8001dba:	9b0a      	ldr	r3, [sp, #40]	; 0x28
 8001dbc:	429c      	cmp	r4, r3
 8001dbe:	dbe8      	blt.n	8001d92 <LCD5110_drawBitmap+0x1c>
 8001dc0:	f108 0801 	add.w	r8, r8, #1
 8001dc4:	3601      	adds	r6, #1
 8001dc6:	e7e0      	b.n	8001d8a <LCD5110_drawBitmap+0x14>
 8001dc8:	2400      	movs	r4, #0
 8001dca:	eb09 0b08 	add.w	fp, r9, r8
 8001dce:	e7f4      	b.n	8001dba <LCD5110_drawBitmap+0x44>

08001dd0 <LCD5110_DC_off>:
 8001dd0:	8a81      	ldrh	r1, [r0, #20]
 8001dd2:	6980      	ldr	r0, [r0, #24]
 8001dd4:	2200      	movs	r2, #0
 8001dd6:	f002 b861 	b.w	8003e9c <HAL_GPIO_WritePin>

08001dda <LCD5110_DC_on>:
 8001dda:	8a81      	ldrh	r1, [r0, #20]
 8001ddc:	6980      	ldr	r0, [r0, #24]
 8001dde:	2201      	movs	r2, #1
 8001de0:	f002 b85c 	b.w	8003e9c <HAL_GPIO_WritePin>

08001de4 <send_byte_to_LCD5110.isra.0>:
 8001de4:	b507      	push	{r0, r1, r2, lr}
 8001de6:	4603      	mov	r3, r0
 8001de8:	f88d 3007 	strb.w	r3, [sp, #7]
 8001dec:	4608      	mov	r0, r1
 8001dee:	f44f 737a 	mov.w	r3, #1000	; 0x3e8
 8001df2:	2201      	movs	r2, #1
 8001df4:	f10d 0107 	add.w	r1, sp, #7
 8001df8:	f003 fec2 	bl	8005b80 <HAL_SPI_Transmit>
 8001dfc:	b003      	add	sp, #12
 8001dfe:	f85d fb04 	ldr.w	pc, [sp], #4

08001e02 <LCD5110_init>:
 8001e02:	e92d 41f3 	stmdb	sp!, {r0, r1, r4, r5, r6, r7, r8, lr}
 8001e06:	461e      	mov	r6, r3
 8001e08:	6803      	ldr	r3, [r0, #0]
 8001e0a:	f89d 8020 	ldrb.w	r8, [sp, #32]
 8001e0e:	4617      	mov	r7, r2
 8001e10:	681a      	ldr	r2, [r3, #0]
 8001e12:	6813      	ldr	r3, [r2, #0]
 8001e14:	4604      	mov	r4, r0
 8001e16:	f043 0340 	orr.w	r3, r3, #64	; 0x40
 8001e1a:	6013      	str	r3, [r2, #0]
 8001e1c:	460d      	mov	r5, r1
 8001e1e:	2200      	movs	r2, #0
 8001e20:	8881      	ldrh	r1, [r0, #4]
 8001e22:	6880      	ldr	r0, [r0, #8]
 8001e24:	f002 f83a 	bl	8003e9c <HAL_GPIO_WritePin>
 8001e28:	89a1      	ldrh	r1, [r4, #12]
 8001e2a:	6920      	ldr	r0, [r4, #16]
 8001e2c:	2200      	movs	r2, #0
 8001e2e:	f002 f835 	bl	8003e9c <HAL_GPIO_WritePin>
 8001e32:	2364      	movs	r3, #100	; 0x64
 8001e34:	9301      	str	r3, [sp, #4]
 8001e36:	9b01      	ldr	r3, [sp, #4]
 8001e38:	3b01      	subs	r3, #1
 8001e3a:	9301      	str	r3, [sp, #4]
 8001e3c:	2b00      	cmp	r3, #0
 8001e3e:	d1fa      	bne.n	8001e36 <LCD5110_init+0x34>
 8001e40:	89a1      	ldrh	r1, [r4, #12]
 8001e42:	6920      	ldr	r0, [r4, #16]
 8001e44:	2201      	movs	r2, #1
 8001e46:	f002 f829 	bl	8003e9c <HAL_GPIO_WritePin>
 8001e4a:	4620      	mov	r0, r4
 8001e4c:	f7ff ffc0 	bl	8001dd0 <LCD5110_DC_off>
 8001e50:	6821      	ldr	r1, [r4, #0]
 8001e52:	2021      	movs	r0, #33	; 0x21
 8001e54:	f7ff ffc6 	bl	8001de4 <send_byte_to_LCD5110.isra.0>
 8001e58:	063b      	lsls	r3, r7, #24
 8001e5a:	d404      	bmi.n	8001e66 <LCD5110_init+0x64>
 8001e5c:	6821      	ldr	r1, [r4, #0]
 8001e5e:	f047 0080 	orr.w	r0, r7, #128	; 0x80
 8001e62:	f7ff ffbf 	bl	8001de4 <send_byte_to_LCD5110.isra.0>
 8001e66:	2e03      	cmp	r6, #3
 8001e68:	d804      	bhi.n	8001e74 <LCD5110_init+0x72>
 8001e6a:	6821      	ldr	r1, [r4, #0]
 8001e6c:	f046 0004 	orr.w	r0, r6, #4
 8001e70:	f7ff ffb8 	bl	8001de4 <send_byte_to_LCD5110.isra.0>
 8001e74:	f1b8 0f07 	cmp.w	r8, #7
 8001e78:	d804      	bhi.n	8001e84 <LCD5110_init+0x82>
 8001e7a:	6821      	ldr	r1, [r4, #0]
 8001e7c:	f048 0010 	orr.w	r0, r8, #16
 8001e80:	f7ff ffb0 	bl	8001de4 <send_byte_to_LCD5110.isra.0>
 8001e84:	6821      	ldr	r1, [r4, #0]
 8001e86:	2020      	movs	r0, #32
 8001e88:	f7ff ffac 	bl	8001de4 <send_byte_to_LCD5110.isra.0>
 8001e8c:	f015 0ff2 	tst.w	r5, #242	; 0xf2
 8001e90:	d103      	bne.n	8001e9a <LCD5110_init+0x98>
 8001e92:	6821      	ldr	r1, [r4, #0]
 8001e94:	4628      	mov	r0, r5
 8001e96:	f7ff ffa5 	bl	8001de4 <send_byte_to_LCD5110.isra.0>
 8001e9a:	2000      	movs	r0, #0
 8001e9c:	b002      	add	sp, #8
 8001e9e:	e8bd 81f0 	ldmia.w	sp!, {r4, r5, r6, r7, r8, pc}

08001ea2 <LCD5110_refresh_ll>:
 8001ea2:	b510      	push	{r4, lr}
 8001ea4:	2200      	movs	r2, #0
 8001ea6:	4604      	mov	r4, r0
 8001ea8:	8881      	ldrh	r1, [r0, #4]
 8001eaa:	6880      	ldr	r0, [r0, #8]
 8001eac:	f001 fff6 	bl	8003e9c <HAL_GPIO_WritePin>
 8001eb0:	4620      	mov	r0, r4
 8001eb2:	f7ff ff8d 	bl	8001dd0 <LCD5110_DC_off>
 8001eb6:	6821      	ldr	r1, [r4, #0]
 8001eb8:	2080      	movs	r0, #128	; 0x80
 8001eba:	f7ff ff93 	bl	8001de4 <send_byte_to_LCD5110.isra.0>
 8001ebe:	6821      	ldr	r1, [r4, #0]
 8001ec0:	2040      	movs	r0, #64	; 0x40
 8001ec2:	f7ff ff8f 	bl	8001de4 <send_byte_to_LCD5110.isra.0>
 8001ec6:	4620      	mov	r0, r4
 8001ec8:	f7ff ff87 	bl	8001dda <LCD5110_DC_on>
 8001ecc:	6820      	ldr	r0, [r4, #0]
 8001ece:	f104 011c 	add.w	r1, r4, #28
 8001ed2:	f44f 737a 	mov.w	r3, #1000	; 0x3e8
 8001ed6:	e8bd 4010 	ldmia.w	sp!, {r4, lr}
 8001eda:	f44f 72fc 	mov.w	r2, #504	; 0x1f8
 8001ede:	f003 be4f 	b.w	8005b80 <HAL_SPI_Transmit>
	...

08001ee4 <HAL_GPIO_EXTI_Callback>:
 8001ee4:	f5b0 7f80 	cmp.w	r0, #256	; 0x100
 8001ee8:	b510      	push	{r4, lr}
 8001eea:	d11f      	bne.n	8001f2c <HAL_GPIO_EXTI_Callback+0x48>
 8001eec:	4c11      	ldr	r4, [pc, #68]	; (8001f34 <HAL_GPIO_EXTI_Callback+0x50>)
 8001eee:	f001 f90f 	bl	8003110 <HAL_GetTick>
 8001ef2:	6823      	ldr	r3, [r4, #0]
 8001ef4:	1ac0      	subs	r0, r0, r3
 8001ef6:	2831      	cmp	r0, #49	; 0x31
 8001ef8:	d918      	bls.n	8001f2c <HAL_GPIO_EXTI_Callback+0x48>
 8001efa:	f001 f909 	bl	8003110 <HAL_GetTick>
 8001efe:	4b0e      	ldr	r3, [pc, #56]	; (8001f38 <HAL_GPIO_EXTI_Callback+0x54>)
 8001f00:	6020      	str	r0, [r4, #0]
 8001f02:	6819      	ldr	r1, [r3, #0]
 8001f04:	b971      	cbnz	r1, 8001f24 <HAL_GPIO_EXTI_Callback+0x40>
 8001f06:	4a0d      	ldr	r2, [pc, #52]	; (8001f3c <HAL_GPIO_EXTI_Callback+0x58>)
 8001f08:	6810      	ldr	r0, [r2, #0]
 8001f0a:	b180      	cbz	r0, 8001f2e <HAL_GPIO_EXTI_Callback+0x4a>
 8001f0c:	480c      	ldr	r0, [pc, #48]	; (8001f40 <HAL_GPIO_EXTI_Callback+0x5c>)
 8001f0e:	6011      	str	r1, [r2, #0]
 8001f10:	6802      	ldr	r2, [r0, #0]
 8001f12:	3201      	adds	r2, #1
 8001f14:	6002      	str	r2, [r0, #0]
 8001f16:	4a0b      	ldr	r2, [pc, #44]	; (8001f44 <HAL_GPIO_EXTI_Callback+0x60>)
 8001f18:	6810      	ldr	r0, [r2, #0]
 8001f1a:	3001      	adds	r0, #1
 8001f1c:	bf18      	it	ne
 8001f1e:	f04f 31ff 	movne.w	r1, #4294967295	; 0xffffffff
 8001f22:	6011      	str	r1, [r2, #0]
 8001f24:	681a      	ldr	r2, [r3, #0]
 8001f26:	b10a      	cbz	r2, 8001f2c <HAL_GPIO_EXTI_Callback+0x48>
 8001f28:	2200      	movs	r2, #0
 8001f2a:	601a      	str	r2, [r3, #0]
 8001f2c:	bd10      	pop	{r4, pc}
 8001f2e:	2101      	movs	r1, #1
 8001f30:	e7f7      	b.n	8001f22 <HAL_GPIO_EXTI_Callback+0x3e>
 8001f32:	bf00      	nop
 8001f34:	200001bc 	.word	0x200001bc
 8001f38:	200001b8 	.word	0x200001b8
 8001f3c:	200001b0 	.word	0x200001b0
 8001f40:	200001c4 	.word	0x200001c4
 8001f44:	200001c0 	.word	0x200001c0

08001f48 <HAL_TIM_PWM_PulseFinishedCallback>:
 8001f48:	b508      	push	{r3, lr}
 8001f4a:	4804      	ldr	r0, [pc, #16]	; (8001f5c <HAL_TIM_PWM_PulseFinishedCallback+0x14>)
 8001f4c:	2100      	movs	r1, #0
 8001f4e:	f005 fa19 	bl	8007384 <HAL_TIM_PWM_Stop_DMA>
 8001f52:	4b03      	ldr	r3, [pc, #12]	; (8001f60 <HAL_TIM_PWM_PulseFinishedCallback+0x18>)
 8001f54:	2201      	movs	r2, #1
 8001f56:	601a      	str	r2, [r3, #0]
 8001f58:	bd08      	pop	{r3, pc}
 8001f5a:	bf00      	nop
 8001f5c:	20000e68 	.word	0x20000e68
 8001f60:	200001b4 	.word	0x200001b4

08001f64 <WS2812_Send>:
 8001f64:	481b      	ldr	r0, [pc, #108]	; (8001fd4 <WS2812_Send+0x70>)
 8001f66:	491c      	ldr	r1, [pc, #112]	; (8001fd8 <WS2812_Send+0x74>)
 8001f68:	b5f8      	push	{r3, r4, r5, r6, r7, lr}
 8001f6a:	2300      	movs	r3, #0
 8001f6c:	4606      	mov	r6, r0
 8001f6e:	2701      	movs	r7, #1
 8001f70:	788a      	ldrb	r2, [r1, #2]
 8001f72:	784c      	ldrb	r4, [r1, #1]
 8001f74:	0212      	lsls	r2, r2, #8
 8001f76:	ea42 4204 	orr.w	r2, r2, r4, lsl #16
 8001f7a:	78cc      	ldrb	r4, [r1, #3]
 8001f7c:	4605      	mov	r5, r0
 8001f7e:	4322      	orrs	r2, r4
 8001f80:	2417      	movs	r4, #23
 8001f82:	fa07 fc04 	lsl.w	ip, r7, r4
 8001f86:	ea1c 0f02 	tst.w	ip, r2
 8001f8a:	bf14      	ite	ne
 8001f8c:	f04f 0c39 	movne.w	ip, #57	; 0x39
 8001f90:	f04f 0c1c 	moveq.w	ip, #28
 8001f94:	3c01      	subs	r4, #1
 8001f96:	f825 cb02 	strh.w	ip, [r5], #2
 8001f9a:	d2f2      	bcs.n	8001f82 <WS2812_Send+0x1e>
 8001f9c:	3318      	adds	r3, #24
 8001f9e:	f5b3 7f34 	cmp.w	r3, #720	; 0x2d0
 8001fa2:	f101 0104 	add.w	r1, r1, #4
 8001fa6:	f100 0030 	add.w	r0, r0, #48	; 0x30
 8001faa:	d1e1      	bne.n	8001f70 <WS2812_Send+0xc>
 8001fac:	2100      	movs	r1, #0
 8001fae:	f240 3202 	movw	r2, #770	; 0x302
 8001fb2:	f826 1013 	strh.w	r1, [r6, r3, lsl #1]
 8001fb6:	3301      	adds	r3, #1
 8001fb8:	4293      	cmp	r3, r2
 8001fba:	d1fa      	bne.n	8001fb2 <WS2812_Send+0x4e>
 8001fbc:	4a05      	ldr	r2, [pc, #20]	; (8001fd4 <WS2812_Send+0x70>)
 8001fbe:	4807      	ldr	r0, [pc, #28]	; (8001fdc <WS2812_Send+0x78>)
 8001fc0:	2100      	movs	r1, #0
 8001fc2:	f005 f8d7 	bl	8007174 <HAL_TIM_PWM_Start_DMA>
 8001fc6:	4b06      	ldr	r3, [pc, #24]	; (8001fe0 <WS2812_Send+0x7c>)
 8001fc8:	681a      	ldr	r2, [r3, #0]
 8001fca:	b902      	cbnz	r2, 8001fce <WS2812_Send+0x6a>
 8001fcc:	e7fe      	b.n	8001fcc <WS2812_Send+0x68>
 8001fce:	2200      	movs	r2, #0
 8001fd0:	601a      	str	r2, [r3, #0]
 8001fd2:	bdf8      	pop	{r3, r4, r5, r6, r7, pc}
 8001fd4:	20000700 	.word	0x20000700
 8001fd8:	20000608 	.word	0x20000608
 8001fdc:	20000e68 	.word	0x20000e68
 8001fe0:	200001b4 	.word	0x200001b4

08001fe4 <MPU6050_Init_L>:
 8001fe4:	b5f0      	push	{r4, r5, r6, r7, lr}
 8001fe6:	b087      	sub	sp, #28
 8001fe8:	2401      	movs	r4, #1
 8001fea:	f10d 0316 	add.w	r3, sp, #22
 8001fee:	f44f 757a 	mov.w	r5, #1000	; 0x3e8
 8001ff2:	9300      	str	r3, [sp, #0]
 8001ff4:	e9cd 4501 	strd	r4, r5, [sp, #4]
 8001ff8:	4623      	mov	r3, r4
 8001ffa:	481d      	ldr	r0, [pc, #116]	; (8002070 <MPU6050_Init_L+0x8c>)
 8001ffc:	2275      	movs	r2, #117	; 0x75
 8001ffe:	21d0      	movs	r1, #208	; 0xd0
 8002000:	f002 ffb2 	bl	8004f68 <HAL_I2C_Mem_Read>
 8002004:	f89d 3016 	ldrb.w	r3, [sp, #22]
 8002008:	2b68      	cmp	r3, #104	; 0x68
 800200a:	d12f      	bne.n	800206c <MPU6050_Init_L+0x88>
 800200c:	f10d 0617 	add.w	r6, sp, #23
 8002010:	2700      	movs	r7, #0
 8002012:	4623      	mov	r3, r4
 8002014:	226b      	movs	r2, #107	; 0x6b
 8002016:	21d0      	movs	r1, #208	; 0xd0
 8002018:	e9cd 4501 	strd	r4, r5, [sp, #4]
 800201c:	4814      	ldr	r0, [pc, #80]	; (8002070 <MPU6050_Init_L+0x8c>)
 800201e:	9600      	str	r6, [sp, #0]
 8002020:	f88d 7017 	strb.w	r7, [sp, #23]
 8002024:	f002 ff06 	bl	8004e34 <HAL_I2C_Mem_Write>
 8002028:	2307      	movs	r3, #7
 800202a:	f88d 3017 	strb.w	r3, [sp, #23]
 800202e:	2219      	movs	r2, #25
 8002030:	4623      	mov	r3, r4
 8002032:	21d0      	movs	r1, #208	; 0xd0
 8002034:	e9cd 4501 	strd	r4, r5, [sp, #4]
 8002038:	480d      	ldr	r0, [pc, #52]	; (8002070 <MPU6050_Init_L+0x8c>)
 800203a:	9600      	str	r6, [sp, #0]
 800203c:	f002 fefa 	bl	8004e34 <HAL_I2C_Mem_Write>
 8002040:	4623      	mov	r3, r4
 8002042:	221c      	movs	r2, #28
 8002044:	21d0      	movs	r1, #208	; 0xd0
 8002046:	e9cd 4501 	strd	r4, r5, [sp, #4]
 800204a:	4809      	ldr	r0, [pc, #36]	; (8002070 <MPU6050_Init_L+0x8c>)
 800204c:	9600      	str	r6, [sp, #0]
 800204e:	f88d 7017 	strb.w	r7, [sp, #23]
 8002052:	f002 feef 	bl	8004e34 <HAL_I2C_Mem_Write>
 8002056:	e9cd 4501 	strd	r4, r5, [sp, #4]
 800205a:	4805      	ldr	r0, [pc, #20]	; (8002070 <MPU6050_Init_L+0x8c>)
 800205c:	9600      	str	r6, [sp, #0]
 800205e:	4623      	mov	r3, r4
 8002060:	221b      	movs	r2, #27
 8002062:	21d0      	movs	r1, #208	; 0xd0
 8002064:	f88d 7017 	strb.w	r7, [sp, #23]
 8002068:	f002 fee4 	bl	8004e34 <HAL_I2C_Mem_Write>
 800206c:	b007      	add	sp, #28
 800206e:	bdf0      	pop	{r4, r5, r6, r7, pc}
 8002070:	20000338 	.word	0x20000338
 8002074:	00000000 	.word	0x00000000

08002078 <MPU6050_Read_Accel_L>:
 8002078:	b530      	push	{r4, r5, lr}
 800207a:	2306      	movs	r3, #6
 800207c:	b087      	sub	sp, #28
 800207e:	f44f 727a 	mov.w	r2, #1000	; 0x3e8
 8002082:	e9cd 3201 	strd	r3, r2, [sp, #4]
 8002086:	ab04      	add	r3, sp, #16
 8002088:	9300      	str	r3, [sp, #0]
 800208a:	223b      	movs	r2, #59	; 0x3b
 800208c:	2301      	movs	r3, #1
 800208e:	21d0      	movs	r1, #208	; 0xd0
 8002090:	4825      	ldr	r0, [pc, #148]	; (8002128 <MPU6050_Read_Accel_L+0xb0>)
 8002092:	f002 ff69 	bl	8004f68 <HAL_I2C_Mem_Read>
 8002096:	f89d 3010 	ldrb.w	r3, [sp, #16]
 800209a:	f89d 0011 	ldrb.w	r0, [sp, #17]
 800209e:	f89d 5013 	ldrb.w	r5, [sp, #19]
 80020a2:	f89d 4015 	ldrb.w	r4, [sp, #21]
 80020a6:	ea40 2003 	orr.w	r0, r0, r3, lsl #8
 80020aa:	4b20      	ldr	r3, [pc, #128]	; (800212c <MPU6050_Read_Accel_L+0xb4>)
 80020ac:	b200      	sxth	r0, r0
 80020ae:	8018      	strh	r0, [r3, #0]
 80020b0:	f89d 3012 	ldrb.w	r3, [sp, #18]
 80020b4:	ea45 2503 	orr.w	r5, r5, r3, lsl #8
 80020b8:	4b1d      	ldr	r3, [pc, #116]	; (8002130 <MPU6050_Read_Accel_L+0xb8>)
 80020ba:	b22d      	sxth	r5, r5
 80020bc:	801d      	strh	r5, [r3, #0]
 80020be:	f89d 3014 	ldrb.w	r3, [sp, #20]
 80020c2:	ea44 2403 	orr.w	r4, r4, r3, lsl #8
 80020c6:	4b1b      	ldr	r3, [pc, #108]	; (8002134 <MPU6050_Read_Accel_L+0xbc>)
 80020c8:	b224      	sxth	r4, r4
 80020ca:	801c      	strh	r4, [r3, #0]
 80020cc:	f7fe f9d6 	bl	800047c <__aeabi_i2d>
 80020d0:	2200      	movs	r2, #0
 80020d2:	4b19      	ldr	r3, [pc, #100]	; (8002138 <MPU6050_Read_Accel_L+0xc0>)
 80020d4:	f7fe fa3c 	bl	8000550 <__aeabi_dmul>
 80020d8:	f7fe fcd4 	bl	8000a84 <__aeabi_d2f>
 80020dc:	4b17      	ldr	r3, [pc, #92]	; (800213c <MPU6050_Read_Accel_L+0xc4>)
 80020de:	6018      	str	r0, [r3, #0]
 80020e0:	4628      	mov	r0, r5
 80020e2:	f7fe f9cb 	bl	800047c <__aeabi_i2d>
 80020e6:	2200      	movs	r2, #0
 80020e8:	4b13      	ldr	r3, [pc, #76]	; (8002138 <MPU6050_Read_Accel_L+0xc0>)
 80020ea:	f7fe fa31 	bl	8000550 <__aeabi_dmul>
 80020ee:	f7fe fcc9 	bl	8000a84 <__aeabi_d2f>
 80020f2:	4b13      	ldr	r3, [pc, #76]	; (8002140 <MPU6050_Read_Accel_L+0xc8>)
 80020f4:	6018      	str	r0, [r3, #0]
 80020f6:	4620      	mov	r0, r4
 80020f8:	f7fe f9c0 	bl	800047c <__aeabi_i2d>
 80020fc:	4b0e      	ldr	r3, [pc, #56]	; (8002138 <MPU6050_Read_Accel_L+0xc0>)
 80020fe:	2200      	movs	r2, #0
 8002100:	f7fe fa26 	bl	8000550 <__aeabi_dmul>
 8002104:	a306      	add	r3, pc, #24	; (adr r3, 8002120 <MPU6050_Read_Accel_L+0xa8>)
 8002106:	e9d3 2300 	ldrd	r2, r3, [r3]
 800210a:	f7fe f86b 	bl	80001e4 <__adddf3>
 800210e:	f7fe fcb9 	bl	8000a84 <__aeabi_d2f>
 8002112:	4b0c      	ldr	r3, [pc, #48]	; (8002144 <MPU6050_Read_Accel_L+0xcc>)
 8002114:	6018      	str	r0, [r3, #0]
 8002116:	b007      	add	sp, #28
 8002118:	bd30      	pop	{r4, r5, pc}
 800211a:	bf00      	nop
 800211c:	f3af 8000 	nop.w
 8002120:	0a3d70a4 	.word	0x0a3d70a4
 8002124:	3fd0a3d7 	.word	0x3fd0a3d7
 8002128:	20000338 	.word	0x20000338
 800212c:	20000184 	.word	0x20000184
 8002130:	20000188 	.word	0x20000188
 8002134:	2000018c 	.word	0x2000018c
 8002138:	3f100000 	.word	0x3f100000
 800213c:	20000d0c 	.word	0x20000d0c
 8002140:	20000d04 	.word	0x20000d04
 8002144:	20000d08 	.word	0x20000d08

08002148 <MPU6050_Read_Accel_R>:
 8002148:	b530      	push	{r4, r5, lr}
 800214a:	2306      	movs	r3, #6
 800214c:	b087      	sub	sp, #28
 800214e:	f44f 727a 	mov.w	r2, #1000	; 0x3e8
 8002152:	e9cd 3201 	strd	r3, r2, [sp, #4]
 8002156:	ab04      	add	r3, sp, #16
 8002158:	9300      	str	r3, [sp, #0]
 800215a:	223b      	movs	r2, #59	; 0x3b
 800215c:	2301      	movs	r3, #1
 800215e:	21d0      	movs	r1, #208	; 0xd0
 8002160:	481f      	ldr	r0, [pc, #124]	; (80021e0 <MPU6050_Read_Accel_R+0x98>)
 8002162:	f002 ff01 	bl	8004f68 <HAL_I2C_Mem_Read>
 8002166:	f89d 3010 	ldrb.w	r3, [sp, #16]
 800216a:	f89d 0011 	ldrb.w	r0, [sp, #17]
 800216e:	f89d 5013 	ldrb.w	r5, [sp, #19]
 8002172:	f89d 4015 	ldrb.w	r4, [sp, #21]
 8002176:	ea40 2003 	orr.w	r0, r0, r3, lsl #8
 800217a:	4b1a      	ldr	r3, [pc, #104]	; (80021e4 <MPU6050_Read_Accel_R+0x9c>)
 800217c:	b200      	sxth	r0, r0
 800217e:	8018      	strh	r0, [r3, #0]
 8002180:	f89d 3012 	ldrb.w	r3, [sp, #18]
 8002184:	ea45 2503 	orr.w	r5, r5, r3, lsl #8
 8002188:	4b17      	ldr	r3, [pc, #92]	; (80021e8 <MPU6050_Read_Accel_R+0xa0>)
 800218a:	b22d      	sxth	r5, r5
 800218c:	801d      	strh	r5, [r3, #0]
 800218e:	f89d 3014 	ldrb.w	r3, [sp, #20]
 8002192:	ea44 2403 	orr.w	r4, r4, r3, lsl #8
 8002196:	4b15      	ldr	r3, [pc, #84]	; (80021ec <MPU6050_Read_Accel_R+0xa4>)
 8002198:	b224      	sxth	r4, r4
 800219a:	801c      	strh	r4, [r3, #0]
 800219c:	f7fe f96e 	bl	800047c <__aeabi_i2d>
 80021a0:	2200      	movs	r2, #0
 80021a2:	4b13      	ldr	r3, [pc, #76]	; (80021f0 <MPU6050_Read_Accel_R+0xa8>)
 80021a4:	f7fe f9d4 	bl	8000550 <__aeabi_dmul>
 80021a8:	f7fe fc6c 	bl	8000a84 <__aeabi_d2f>
 80021ac:	4b11      	ldr	r3, [pc, #68]	; (80021f4 <MPU6050_Read_Accel_R+0xac>)
 80021ae:	6018      	str	r0, [r3, #0]
 80021b0:	4628      	mov	r0, r5
 80021b2:	f7fe f963 	bl	800047c <__aeabi_i2d>
 80021b6:	2200      	movs	r2, #0
 80021b8:	4b0d      	ldr	r3, [pc, #52]	; (80021f0 <MPU6050_Read_Accel_R+0xa8>)
 80021ba:	f7fe f9c9 	bl	8000550 <__aeabi_dmul>
 80021be:	f7fe fc61 	bl	8000a84 <__aeabi_d2f>
 80021c2:	4b0d      	ldr	r3, [pc, #52]	; (80021f8 <MPU6050_Read_Accel_R+0xb0>)
 80021c4:	6018      	str	r0, [r3, #0]
 80021c6:	4620      	mov	r0, r4
 80021c8:	f7fe f958 	bl	800047c <__aeabi_i2d>
 80021cc:	4b08      	ldr	r3, [pc, #32]	; (80021f0 <MPU6050_Read_Accel_R+0xa8>)
 80021ce:	2200      	movs	r2, #0
 80021d0:	f7fe f9be 	bl	8000550 <__aeabi_dmul>
 80021d4:	f7fe fc56 	bl	8000a84 <__aeabi_d2f>
 80021d8:	4b08      	ldr	r3, [pc, #32]	; (80021fc <MPU6050_Read_Accel_R+0xb4>)
 80021da:	6018      	str	r0, [r3, #0]
 80021dc:	b007      	add	sp, #28
 80021de:	bd30      	pop	{r4, r5, pc}
 80021e0:	2000038c 	.word	0x2000038c
 80021e4:	20000186 	.word	0x20000186
 80021e8:	2000018a 	.word	0x2000018a
 80021ec:	2000018e 	.word	0x2000018e
 80021f0:	3f100000 	.word	0x3f100000
 80021f4:	200006fc 	.word	0x200006fc
 80021f8:	200003e0 	.word	0x200003e0
 80021fc:	200006f8 	.word	0x200006f8

08002200 <show_accelerometer>:
 8002200:	b5f8      	push	{r3, r4, r5, r6, r7, lr}
 8002202:	4e29      	ldr	r6, [pc, #164]	; (80022a8 <show_accelerometer+0xa8>)
 8002204:	4630      	mov	r0, r6
 8002206:	f000 fd1f 	bl	8002c48 <BSP_ACCELERO_GetXYZ>
 800220a:	f9b6 0000 	ldrsh.w	r0, [r6]
 800220e:	2800      	cmp	r0, #0
 8002210:	bfb8      	it	lt
 8002212:	300f      	addlt	r0, #15
 8002214:	1100      	asrs	r0, r0, #4
 8002216:	f7fe f931 	bl	800047c <__aeabi_i2d>
 800221a:	2200      	movs	r2, #0
 800221c:	4b23      	ldr	r3, [pc, #140]	; (80022ac <show_accelerometer+0xac>)
 800221e:	f7fe fac1 	bl	80007a4 <__aeabi_ddiv>
 8002222:	4604      	mov	r4, r0
 8002224:	f9b6 0002 	ldrsh.w	r0, [r6, #2]
 8002228:	4b21      	ldr	r3, [pc, #132]	; (80022b0 <show_accelerometer+0xb0>)
 800222a:	2800      	cmp	r0, #0
 800222c:	bfb8      	it	lt
 800222e:	300f      	addlt	r0, #15
 8002230:	460d      	mov	r5, r1
 8002232:	e9c3 4500 	strd	r4, r5, [r3]
 8002236:	1100      	asrs	r0, r0, #4
 8002238:	f7fe f920 	bl	800047c <__aeabi_i2d>
 800223c:	2200      	movs	r2, #0
 800223e:	4b1b      	ldr	r3, [pc, #108]	; (80022ac <show_accelerometer+0xac>)
 8002240:	f7fe fab0 	bl	80007a4 <__aeabi_ddiv>
 8002244:	4b1b      	ldr	r3, [pc, #108]	; (80022b4 <show_accelerometer+0xb4>)
 8002246:	e9c3 0100 	strd	r0, r1, [r3]
 800224a:	f9b6 0004 	ldrsh.w	r0, [r6, #4]
 800224e:	2800      	cmp	r0, #0
 8002250:	bfb8      	it	lt
 8002252:	300f      	addlt	r0, #15
 8002254:	1100      	asrs	r0, r0, #4
 8002256:	f7fe f911 	bl	800047c <__aeabi_i2d>
 800225a:	4b14      	ldr	r3, [pc, #80]	; (80022ac <show_accelerometer+0xac>)
 800225c:	2200      	movs	r2, #0
 800225e:	f7fe faa1 	bl	80007a4 <__aeabi_ddiv>
 8002262:	4b15      	ldr	r3, [pc, #84]	; (80022b8 <show_accelerometer+0xb8>)
 8002264:	f021 4700 	bic.w	r7, r1, #2147483648	; 0x80000000
 8002268:	e9c3 0100 	strd	r0, r1, [r3]
 800226c:	a30a      	add	r3, pc, #40	; (adr r3, 8002298 <show_accelerometer+0x98>)
 800226e:	e9d3 2300 	ldrd	r2, r3, [r3]
 8002272:	4639      	mov	r1, r7
 8002274:	f7fe fbfc 	bl	8000a70 <__aeabi_dcmpgt>
 8002278:	b940      	cbnz	r0, 800228c <show_accelerometer+0x8c>
 800227a:	a309      	add	r3, pc, #36	; (adr r3, 80022a0 <show_accelerometer+0xa0>)
 800227c:	e9d3 2300 	ldrd	r2, r3, [r3]
 8002280:	4620      	mov	r0, r4
 8002282:	f025 4100 	bic.w	r1, r5, #2147483648	; 0x80000000
 8002286:	f7fe fbf3 	bl	8000a70 <__aeabi_dcmpgt>
 800228a:	b110      	cbz	r0, 8002292 <show_accelerometer+0x92>
 800228c:	4b0b      	ldr	r3, [pc, #44]	; (80022bc <show_accelerometer+0xbc>)
 800228e:	2201      	movs	r2, #1
 8002290:	601a      	str	r2, [r3, #0]
 8002292:	bdf8      	pop	{r3, r4, r5, r6, r7, pc}
 8002294:	f3af 8000 	nop.w
 8002298:	33333333 	.word	0x33333333
 800229c:	3feb3333 	.word	0x3feb3333
 80022a0:	9999999a 	.word	0x9999999a
 80022a4:	3fe99999 	.word	0x3fe99999
 80022a8:	200001a8 	.word	0x200001a8
 80022ac:	408f4000 	.word	0x408f4000
 80022b0:	20000190 	.word	0x20000190
 80022b4:	20000198 	.word	0x20000198
 80022b8:	200001a0 	.word	0x200001a0
 80022bc:	200001b8 	.word	0x200001b8

080022c0 <HAL_TIM_PeriodElapsedCallback>:
 80022c0:	b508      	push	{r3, lr}
 80022c2:	6802      	ldr	r2, [r0, #0]
 80022c4:	4b05      	ldr	r3, [pc, #20]	; (80022dc <HAL_TIM_PeriodElapsedCallback+0x1c>)
 80022c6:	429a      	cmp	r2, r3
 80022c8:	d107      	bne.n	80022da <HAL_TIM_PeriodElapsedCallback+0x1a>
 80022ca:	f7ff fed5 	bl	8002078 <MPU6050_Read_Accel_L>
 80022ce:	f7ff ff3b 	bl	8002148 <MPU6050_Read_Accel_R>
 80022d2:	e8bd 4008 	ldmia.w	sp!, {r3, lr}
 80022d6:	f7ff bf93 	b.w	8002200 <show_accelerometer>
 80022da:	bd08      	pop	{r3, pc}
 80022dc:	40014400 	.word	0x40014400

080022e0 <attention_signal>:
 80022e0:	b510      	push	{r4, lr}
 80022e2:	4c13      	ldr	r4, [pc, #76]	; (8002330 <attention_signal+0x50>)
 80022e4:	2200      	movs	r2, #0
 80022e6:	4623      	mov	r3, r4
 80022e8:	4611      	mov	r1, r2
 80022ea:	208b      	movs	r0, #139	; 0x8b
 80022ec:	701a      	strb	r2, [r3, #0]
 80022ee:	3201      	adds	r2, #1
 80022f0:	2a1e      	cmp	r2, #30
 80022f2:	7059      	strb	r1, [r3, #1]
 80022f4:	7098      	strb	r0, [r3, #2]
 80022f6:	70d9      	strb	r1, [r3, #3]
 80022f8:	f103 0304 	add.w	r3, r3, #4
 80022fc:	d1f6      	bne.n	80022ec <attention_signal+0xc>
 80022fe:	f7ff fe31 	bl	8001f64 <WS2812_Send>
 8002302:	f44f 702f 	mov.w	r0, #700	; 0x2bc
 8002306:	f000 ff09 	bl	800311c <HAL_Delay>
 800230a:	2300      	movs	r3, #0
 800230c:	461a      	mov	r2, r3
 800230e:	7023      	strb	r3, [r4, #0]
 8002310:	3301      	adds	r3, #1
 8002312:	2b1e      	cmp	r3, #30
 8002314:	7062      	strb	r2, [r4, #1]
 8002316:	70a2      	strb	r2, [r4, #2]
 8002318:	70e2      	strb	r2, [r4, #3]
 800231a:	f104 0404 	add.w	r4, r4, #4
 800231e:	d1f6      	bne.n	800230e <attention_signal+0x2e>
 8002320:	f7ff fe20 	bl	8001f64 <WS2812_Send>
 8002324:	e8bd 4010 	ldmia.w	sp!, {r4, lr}
 8002328:	f240 2026 	movw	r0, #550	; 0x226
 800232c:	f000 bef6 	b.w	800311c <HAL_Delay>
 8002330:	20000608 	.word	0x20000608

08002334 <turn_signal>:
 8002334:	1c42      	adds	r2, r0, #1
 8002336:	e92d 41f0 	stmdb	sp!, {r4, r5, r6, r7, r8, lr}
 800233a:	d12a      	bne.n	8002392 <turn_signal+0x5e>
 800233c:	4c22      	ldr	r4, [pc, #136]	; (80023c8 <turn_signal+0x94>)
 800233e:	250f      	movs	r5, #15
 8002340:	f04f 0845 	mov.w	r8, #69	; 0x45
 8002344:	27ff      	movs	r7, #255	; 0xff
 8002346:	2600      	movs	r6, #0
 8002348:	f884 503c 	strb.w	r5, [r4, #60]	; 0x3c
 800234c:	f884 803d 	strb.w	r8, [r4, #61]	; 0x3d
 8002350:	f884 703e 	strb.w	r7, [r4, #62]	; 0x3e
 8002354:	f884 603f 	strb.w	r6, [r4, #63]	; 0x3f
 8002358:	3d01      	subs	r5, #1
 800235a:	f7ff fe03 	bl	8001f64 <WS2812_Send>
 800235e:	201e      	movs	r0, #30
 8002360:	f000 fedc 	bl	800311c <HAL_Delay>
 8002364:	1c6b      	adds	r3, r5, #1
 8002366:	f1a4 0404 	sub.w	r4, r4, #4
 800236a:	d1ed      	bne.n	8002348 <turn_signal+0x14>
 800236c:	2200      	movs	r2, #0
 800236e:	4b16      	ldr	r3, [pc, #88]	; (80023c8 <turn_signal+0x94>)
 8002370:	4611      	mov	r1, r2
 8002372:	701a      	strb	r2, [r3, #0]
 8002374:	3201      	adds	r2, #1
 8002376:	2a1e      	cmp	r2, #30
 8002378:	7059      	strb	r1, [r3, #1]
 800237a:	7099      	strb	r1, [r3, #2]
 800237c:	70d9      	strb	r1, [r3, #3]
 800237e:	f103 0304 	add.w	r3, r3, #4
 8002382:	d1f6      	bne.n	8002372 <turn_signal+0x3e>
 8002384:	2078      	movs	r0, #120	; 0x78
 8002386:	f000 fec9 	bl	800311c <HAL_Delay>
 800238a:	e8bd 41f0 	ldmia.w	sp!, {r4, r5, r6, r7, r8, lr}
 800238e:	f7ff bde9 	b.w	8001f64 <WS2812_Send>
 8002392:	2801      	cmp	r0, #1
 8002394:	d1ea      	bne.n	800236c <turn_signal+0x38>
 8002396:	4c0c      	ldr	r4, [pc, #48]	; (80023c8 <turn_signal+0x94>)
 8002398:	250f      	movs	r5, #15
 800239a:	f04f 0845 	mov.w	r8, #69	; 0x45
 800239e:	27ff      	movs	r7, #255	; 0xff
 80023a0:	2600      	movs	r6, #0
 80023a2:	f884 503c 	strb.w	r5, [r4, #60]	; 0x3c
 80023a6:	f884 803d 	strb.w	r8, [r4, #61]	; 0x3d
 80023aa:	f884 703e 	strb.w	r7, [r4, #62]	; 0x3e
 80023ae:	f884 603f 	strb.w	r6, [r4, #63]	; 0x3f
 80023b2:	3501      	adds	r5, #1
 80023b4:	f7ff fdd6 	bl	8001f64 <WS2812_Send>
 80023b8:	201e      	movs	r0, #30
 80023ba:	f000 feaf 	bl	800311c <HAL_Delay>
 80023be:	2d1e      	cmp	r5, #30
 80023c0:	f104 0404 	add.w	r4, r4, #4
 80023c4:	d1ed      	bne.n	80023a2 <turn_signal+0x6e>
 80023c6:	e7d1      	b.n	800236c <turn_signal+0x38>
 80023c8:	20000608 	.word	0x20000608

080023cc <warning_signal>:
 80023cc:	e92d 47f0 	stmdb	sp!, {r4, r5, r6, r7, r8, r9, sl, lr}
 80023d0:	4c29      	ldr	r4, [pc, #164]	; (8002478 <warning_signal+0xac>)
 80023d2:	270f      	movs	r7, #15
 80023d4:	4625      	mov	r5, r4
 80023d6:	4626      	mov	r6, r4
 80023d8:	f04f 0a45 	mov.w	sl, #69	; 0x45
 80023dc:	f04f 09ff 	mov.w	r9, #255	; 0xff
 80023e0:	f04f 0800 	mov.w	r8, #0
 80023e4:	b2fb      	uxtb	r3, r7
 80023e6:	f1c3 021e 	rsb	r2, r3, #30
 80023ea:	f886 203c 	strb.w	r2, [r6, #60]	; 0x3c
 80023ee:	f886 a03d 	strb.w	sl, [r6, #61]	; 0x3d
 80023f2:	f886 903e 	strb.w	r9, [r6, #62]	; 0x3e
 80023f6:	f886 803f 	strb.w	r8, [r6, #63]	; 0x3f
 80023fa:	f885 303c 	strb.w	r3, [r5, #60]	; 0x3c
 80023fe:	f885 a03d 	strb.w	sl, [r5, #61]	; 0x3d
 8002402:	f885 903e 	strb.w	r9, [r5, #62]	; 0x3e
 8002406:	f885 803f 	strb.w	r8, [r5, #63]	; 0x3f
 800240a:	f7ff fdab 	bl	8001f64 <WS2812_Send>
 800240e:	3f01      	subs	r7, #1
 8002410:	201e      	movs	r0, #30
 8002412:	f000 fe83 	bl	800311c <HAL_Delay>
 8002416:	1c7b      	adds	r3, r7, #1
 8002418:	f106 0604 	add.w	r6, r6, #4
 800241c:	f1a5 0504 	sub.w	r5, r5, #4
 8002420:	d1e0      	bne.n	80023e4 <warning_signal+0x18>
 8002422:	2300      	movs	r3, #0
 8002424:	461a      	mov	r2, r3
 8002426:	7023      	strb	r3, [r4, #0]
 8002428:	3301      	adds	r3, #1
 800242a:	2b1e      	cmp	r3, #30
 800242c:	7062      	strb	r2, [r4, #1]
 800242e:	70a2      	strb	r2, [r4, #2]
 8002430:	70e2      	strb	r2, [r4, #3]
 8002432:	f104 0404 	add.w	r4, r4, #4
 8002436:	d1f6      	bne.n	8002426 <warning_signal+0x5a>
 8002438:	4810      	ldr	r0, [pc, #64]	; (800247c <warning_signal+0xb0>)
 800243a:	2201      	movs	r2, #1
 800243c:	f44f 7100 	mov.w	r1, #512	; 0x200
 8002440:	f001 fd2c 	bl	8003e9c <HAL_GPIO_WritePin>
 8002444:	2201      	movs	r2, #1
 8002446:	f44f 5180 	mov.w	r1, #4096	; 0x1000
 800244a:	480c      	ldr	r0, [pc, #48]	; (800247c <warning_signal+0xb0>)
 800244c:	f001 fd26 	bl	8003e9c <HAL_GPIO_WritePin>
 8002450:	2078      	movs	r0, #120	; 0x78
 8002452:	f000 fe63 	bl	800311c <HAL_Delay>
 8002456:	4809      	ldr	r0, [pc, #36]	; (800247c <warning_signal+0xb0>)
 8002458:	2200      	movs	r2, #0
 800245a:	f44f 7100 	mov.w	r1, #512	; 0x200
 800245e:	f001 fd1d 	bl	8003e9c <HAL_GPIO_WritePin>
 8002462:	4806      	ldr	r0, [pc, #24]	; (800247c <warning_signal+0xb0>)
 8002464:	2200      	movs	r2, #0
 8002466:	f44f 5180 	mov.w	r1, #4096	; 0x1000
 800246a:	f001 fd17 	bl	8003e9c <HAL_GPIO_WritePin>
 800246e:	e8bd 47f0 	ldmia.w	sp!, {r4, r5, r6, r7, r8, r9, sl, lr}
 8002472:	f7ff bd77 	b.w	8001f64 <WS2812_Send>
 8002476:	bf00      	nop
 8002478:	20000608 	.word	0x20000608
 800247c:	40020c00 	.word	0x40020c00

08002480 <SystemClock_Config>:
 8002480:	b510      	push	{r4, lr}
 8002482:	b094      	sub	sp, #80	; 0x50
 8002484:	2210      	movs	r2, #16
 8002486:	2100      	movs	r1, #0
 8002488:	a80a      	add	r0, sp, #40	; 0x28
 800248a:	f006 fd25 	bl	8008ed8 <memset>
 800248e:	2214      	movs	r2, #20
 8002490:	2100      	movs	r1, #0
 8002492:	a803      	add	r0, sp, #12
 8002494:	f006 fd20 	bl	8008ed8 <memset>
 8002498:	4b1f      	ldr	r3, [pc, #124]	; (8002518 <SystemClock_Config+0x98>)
 800249a:	2100      	movs	r1, #0
 800249c:	9101      	str	r1, [sp, #4]
 800249e:	6c1a      	ldr	r2, [r3, #64]	; 0x40
 80024a0:	f042 5280 	orr.w	r2, r2, #268435456	; 0x10000000
 80024a4:	641a      	str	r2, [r3, #64]	; 0x40
 80024a6:	6c1b      	ldr	r3, [r3, #64]	; 0x40
 80024a8:	f003 5380 	and.w	r3, r3, #268435456	; 0x10000000
 80024ac:	9301      	str	r3, [sp, #4]
 80024ae:	9b01      	ldr	r3, [sp, #4]
 80024b0:	4b1a      	ldr	r3, [pc, #104]	; (800251c <SystemClock_Config+0x9c>)
 80024b2:	9102      	str	r1, [sp, #8]
 80024b4:	681a      	ldr	r2, [r3, #0]
 80024b6:	f442 4240 	orr.w	r2, r2, #49152	; 0xc000
 80024ba:	601a      	str	r2, [r3, #0]
 80024bc:	681b      	ldr	r3, [r3, #0]
 80024be:	f403 4340 	and.w	r3, r3, #49152	; 0xc000
 80024c2:	9302      	str	r3, [sp, #8]
 80024c4:	9b02      	ldr	r3, [sp, #8]
 80024c6:	2201      	movs	r2, #1
 80024c8:	f44f 3380 	mov.w	r3, #65536	; 0x10000
 80024cc:	2402      	movs	r4, #2
 80024ce:	e9cd 2308 	strd	r2, r3, [sp, #32]
 80024d2:	f44f 0380 	mov.w	r3, #4194304	; 0x400000
 80024d6:	e9cd 430e 	strd	r4, r3, [sp, #56]	; 0x38
 80024da:	2104      	movs	r1, #4
 80024dc:	2348      	movs	r3, #72	; 0x48
 80024de:	e9cd 1310 	strd	r1, r3, [sp, #64]	; 0x40
 80024e2:	a808      	add	r0, sp, #32
 80024e4:	2303      	movs	r3, #3
 80024e6:	9412      	str	r4, [sp, #72]	; 0x48
 80024e8:	9313      	str	r3, [sp, #76]	; 0x4c
 80024ea:	f002 fe53 	bl	8005194 <HAL_RCC_OscConfig>
 80024ee:	b108      	cbz	r0, 80024f4 <SystemClock_Config+0x74>
 80024f0:	b672      	cpsid	i
 80024f2:	e7fe      	b.n	80024f2 <SystemClock_Config+0x72>
 80024f4:	230f      	movs	r3, #15
 80024f6:	e9cd 3403 	strd	r3, r4, [sp, #12]
 80024fa:	f44f 5380 	mov.w	r3, #4096	; 0x1000
 80024fe:	e9cd 3006 	strd	r3, r0, [sp, #24]
 8002502:	9005      	str	r0, [sp, #20]
 8002504:	4621      	mov	r1, r4
 8002506:	a803      	add	r0, sp, #12
 8002508:	f003 f894 	bl	8005634 <HAL_RCC_ClockConfig>
 800250c:	b108      	cbz	r0, 8002512 <SystemClock_Config+0x92>
 800250e:	b672      	cpsid	i
 8002510:	e7fe      	b.n	8002510 <SystemClock_Config+0x90>
 8002512:	b014      	add	sp, #80	; 0x50
 8002514:	bd10      	pop	{r4, pc}
 8002516:	bf00      	nop
 8002518:	40023800 	.word	0x40023800
 800251c:	40007000 	.word	0x40007000

08002520 <main>:
 8002520:	b583      	push	{r0, r1, r7, lr}
 8002522:	f000 fdcf 	bl	80030c4 <HAL_Init>
 8002526:	f7ff ffab 	bl	8002480 <SystemClock_Config>
 800252a:	f7ff f9c5 	bl	80018b8 <MX_GPIO_Init>
 800252e:	f7ff fab5 	bl	8001a9c <MX_I2C1_Init>
 8002532:	f000 f8c5 	bl	80026c0 <MX_SPI1_Init>
 8002536:	f7ff f99d 	bl	8001874 <MX_DMA_Init>
 800253a:	f006 fb41 	bl	8008bc0 <MX_USB_HOST_Init>
 800253e:	f000 fd0b 	bl	8002f58 <MX_TIM1_Init>
 8002542:	f7ff f909 	bl	8001758 <MX_ADC1_Init>
 8002546:	f000 f8dd 	bl	8002704 <MX_SPI2_Init>
 800254a:	f000 fc31 	bl	8002db0 <MX_TIM10_Init>
 800254e:	f7ff fac3 	bl	8001ad8 <MX_I2C2_Init>
 8002552:	4b4d      	ldr	r3, [pc, #308]	; (8002688 <main+0x168>)
 8002554:	4a4d      	ldr	r2, [pc, #308]	; (800268c <main+0x16c>)
 8002556:	601a      	str	r2, [r3, #0]
 8002558:	f44f 4280 	mov.w	r2, #16384	; 0x4000
 800255c:	809a      	strh	r2, [r3, #4]
 800255e:	f102 4280 	add.w	r2, r2, #1073741824	; 0x40000000
 8002562:	f502 32e2 	add.w	r2, r2, #115712	; 0x1c400
 8002566:	609a      	str	r2, [r3, #8]
 8002568:	2180      	movs	r1, #128	; 0x80
 800256a:	611a      	str	r2, [r3, #16]
 800256c:	619a      	str	r2, [r3, #24]
 800256e:	4a48      	ldr	r2, [pc, #288]	; (8002690 <main+0x170>)
 8002570:	8199      	strh	r1, [r3, #12]
 8002572:	2102      	movs	r1, #2
 8002574:	8299      	strh	r1, [r3, #20]
 8002576:	f102 0508 	add.w	r5, r2, #8
 800257a:	f503 7305 	add.w	r3, r3, #532	; 0x214
 800257e:	6810      	ldr	r0, [r2, #0]
 8002580:	6851      	ldr	r1, [r2, #4]
 8002582:	461c      	mov	r4, r3
 8002584:	c403      	stmia	r4!, {r0, r1}
 8002586:	3208      	adds	r2, #8
 8002588:	42aa      	cmp	r2, r5
 800258a:	4623      	mov	r3, r4
 800258c:	d1f7      	bne.n	800257e <main+0x5e>
 800258e:	6810      	ldr	r0, [r2, #0]
 8002590:	8892      	ldrh	r2, [r2, #4]
 8002592:	6020      	str	r0, [r4, #0]
 8002594:	2303      	movs	r3, #3
 8002596:	80a2      	strh	r2, [r4, #4]
 8002598:	210c      	movs	r1, #12
 800259a:	9300      	str	r3, [sp, #0]
 800259c:	2240      	movs	r2, #64	; 0x40
 800259e:	2302      	movs	r3, #2
 80025a0:	4839      	ldr	r0, [pc, #228]	; (8002688 <main+0x168>)
 80025a2:	f7ff fc2e 	bl	8001e02 <LCD5110_init>
 80025a6:	f000 fb2f 	bl	8002c08 <BSP_ACCELERO_Init>
 80025aa:	b128      	cbz	r0, 80025b8 <main+0x98>
 80025ac:	4a36      	ldr	r2, [pc, #216]	; (8002688 <main+0x168>)
 80025ae:	4839      	ldr	r0, [pc, #228]	; (8002694 <main+0x174>)
 80025b0:	2101      	movs	r1, #1
 80025b2:	f7ff fbc3 	bl	8001d3c <LCD5110_print>
 80025b6:	e7fe      	b.n	80025b6 <main+0x96>
 80025b8:	f000 fb5c 	bl	8002c74 <BSP_GYRO_Init>
 80025bc:	4604      	mov	r4, r0
 80025be:	b128      	cbz	r0, 80025cc <main+0xac>
 80025c0:	4a31      	ldr	r2, [pc, #196]	; (8002688 <main+0x168>)
 80025c2:	4834      	ldr	r0, [pc, #208]	; (8002694 <main+0x174>)
 80025c4:	2101      	movs	r1, #1
 80025c6:	f7ff fbb9 	bl	8001d3c <LCD5110_print>
 80025ca:	e7fe      	b.n	80025ca <main+0xaa>
 80025cc:	4d32      	ldr	r5, [pc, #200]	; (8002698 <main+0x178>)
 80025ce:	4e33      	ldr	r6, [pc, #204]	; (800269c <main+0x17c>)
 80025d0:	f7ff fd08 	bl	8001fe4 <MPU6050_Init_L>
 80025d4:	4628      	mov	r0, r5
 80025d6:	f003 fd55 	bl	8006084 <HAL_TIM_Base_Stop>
 80025da:	682b      	ldr	r3, [r5, #0]
 80025dc:	625c      	str	r4, [r3, #36]	; 0x24
 80025de:	4b30      	ldr	r3, [pc, #192]	; (80026a0 <main+0x180>)
 80025e0:	4628      	mov	r0, r5
 80025e2:	601c      	str	r4, [r3, #0]
 80025e4:	f003 fd8c 	bl	8006100 <HAL_TIM_Base_Start_IT>
 80025e8:	a525      	add	r5, pc, #148	; (adr r5, 8002680 <main+0x160>)
 80025ea:	e9d5 4500 	ldrd	r4, r5, [r5]
 80025ee:	4637      	mov	r7, r6
 80025f0:	4b2c      	ldr	r3, [pc, #176]	; (80026a4 <main+0x184>)
 80025f2:	6818      	ldr	r0, [r3, #0]
 80025f4:	f7fd ff54 	bl	80004a0 <__aeabi_f2d>
 80025f8:	4622      	mov	r2, r4
 80025fa:	462b      	mov	r3, r5
 80025fc:	f7fe fa38 	bl	8000a70 <__aeabi_dcmpgt>
 8002600:	b998      	cbnz	r0, 800262a <main+0x10a>
 8002602:	4b29      	ldr	r3, [pc, #164]	; (80026a8 <main+0x188>)
 8002604:	6818      	ldr	r0, [r3, #0]
 8002606:	f7fd ff4b 	bl	80004a0 <__aeabi_f2d>
 800260a:	4622      	mov	r2, r4
 800260c:	462b      	mov	r3, r5
 800260e:	f7fe fa2f 	bl	8000a70 <__aeabi_dcmpgt>
 8002612:	3800      	subs	r0, #0
 8002614:	bf18      	it	ne
 8002616:	2001      	movne	r0, #1
 8002618:	6833      	ldr	r3, [r6, #0]
 800261a:	b943      	cbnz	r3, 800262e <main+0x10e>
 800261c:	b138      	cbz	r0, 800262e <main+0x10e>
 800261e:	2001      	movs	r0, #1
 8002620:	f7ff fe88 	bl	8002334 <turn_signal>
 8002624:	f006 faec 	bl	8008c00 <MX_USB_HOST_Process>
 8002628:	e7e2      	b.n	80025f0 <main+0xd0>
 800262a:	2001      	movs	r0, #1
 800262c:	e7f4      	b.n	8002618 <main+0xf8>
 800262e:	4b1f      	ldr	r3, [pc, #124]	; (80026ac <main+0x18c>)
 8002630:	6818      	ldr	r0, [r3, #0]
 8002632:	f7fd ff35 	bl	80004a0 <__aeabi_f2d>
 8002636:	4622      	mov	r2, r4
 8002638:	462b      	mov	r3, r5
 800263a:	f7fe fa19 	bl	8000a70 <__aeabi_dcmpgt>
 800263e:	b980      	cbnz	r0, 8002662 <main+0x142>
 8002640:	4b1b      	ldr	r3, [pc, #108]	; (80026b0 <main+0x190>)
 8002642:	6818      	ldr	r0, [r3, #0]
 8002644:	f7fd ff2c 	bl	80004a0 <__aeabi_f2d>
 8002648:	4622      	mov	r2, r4
 800264a:	462b      	mov	r3, r5
 800264c:	f7fe fa10 	bl	8000a70 <__aeabi_dcmpgt>
 8002650:	3800      	subs	r0, #0
 8002652:	bf18      	it	ne
 8002654:	2001      	movne	r0, #1
 8002656:	683b      	ldr	r3, [r7, #0]
 8002658:	b92b      	cbnz	r3, 8002666 <main+0x146>
 800265a:	b120      	cbz	r0, 8002666 <main+0x146>
 800265c:	f04f 30ff 	mov.w	r0, #4294967295	; 0xffffffff
 8002660:	e7de      	b.n	8002620 <main+0x100>
 8002662:	2001      	movs	r0, #1
 8002664:	e7f7      	b.n	8002656 <main+0x136>
 8002666:	4b13      	ldr	r3, [pc, #76]	; (80026b4 <main+0x194>)
 8002668:	681b      	ldr	r3, [r3, #0]
 800266a:	b113      	cbz	r3, 8002672 <main+0x152>
 800266c:	f7ff feae 	bl	80023cc <warning_signal>
 8002670:	e7d8      	b.n	8002624 <main+0x104>
 8002672:	683b      	ldr	r3, [r7, #0]
 8002674:	2b00      	cmp	r3, #0
 8002676:	d1f9      	bne.n	800266c <main+0x14c>
 8002678:	f7ff fe32 	bl	80022e0 <attention_signal>
 800267c:	e7d2      	b.n	8002624 <main+0x104>
 800267e:	bf00      	nop
 8002680:	a3d70a3d 	.word	0xa3d70a3d
 8002684:	3fea3d70 	.word	0x3fea3d70
 8002688:	200003e4 	.word	0x200003e4
 800268c:	20000d10 	.word	0x20000d10
 8002690:	08009690 	.word	0x08009690
 8002694:	0800969e 	.word	0x0800969e
 8002698:	20000e20 	.word	0x20000e20
 800269c:	200001b8 	.word	0x200001b8
 80026a0:	200001c8 	.word	0x200001c8
 80026a4:	20000d08 	.word	0x20000d08
 80026a8:	200006fc 	.word	0x200006fc
 80026ac:	200006f8 	.word	0x200006f8
 80026b0:	20000d0c 	.word	0x20000d0c
 80026b4:	200001b0 	.word	0x200001b0

080026b8 <Error_Handler>:
 80026b8:	b672      	cpsid	i
 80026ba:	e7fe      	b.n	80026ba <Error_Handler+0x2>

080026bc <assert_failed>:
 80026bc:	4770      	bx	lr
	...

080026c0 <MX_SPI1_Init>:
 80026c0:	480e      	ldr	r0, [pc, #56]	; (80026fc <MX_SPI1_Init+0x3c>)
 80026c2:	4a0f      	ldr	r2, [pc, #60]	; (8002700 <MX_SPI1_Init+0x40>)
 80026c4:	b508      	push	{r3, lr}
 80026c6:	f44f 7382 	mov.w	r3, #260	; 0x104
 80026ca:	e9c0 2300 	strd	r2, r3, [r0]
 80026ce:	2300      	movs	r3, #0
 80026d0:	f44f 7200 	mov.w	r2, #512	; 0x200
 80026d4:	e9c0 3302 	strd	r3, r3, [r0, #8]
 80026d8:	e9c0 3304 	strd	r3, r3, [r0, #16]
 80026dc:	e9c0 2306 	strd	r2, r3, [r0, #24]
 80026e0:	e9c0 3308 	strd	r3, r3, [r0, #32]
 80026e4:	6283      	str	r3, [r0, #40]	; 0x28
 80026e6:	230a      	movs	r3, #10
 80026e8:	62c3      	str	r3, [r0, #44]	; 0x2c
 80026ea:	f003 f927 	bl	800593c <HAL_SPI_Init>
 80026ee:	b118      	cbz	r0, 80026f8 <MX_SPI1_Init+0x38>
 80026f0:	e8bd 4008 	ldmia.w	sp!, {r3, lr}
 80026f4:	f7ff bfe0 	b.w	80026b8 <Error_Handler>
 80026f8:	bd08      	pop	{r3, pc}
 80026fa:	bf00      	nop
 80026fc:	20000d68 	.word	0x20000d68
 8002700:	40013000 	.word	0x40013000

08002704 <MX_SPI2_Init>:
 8002704:	480e      	ldr	r0, [pc, #56]	; (8002740 <MX_SPI2_Init+0x3c>)
 8002706:	4a0f      	ldr	r2, [pc, #60]	; (8002744 <MX_SPI2_Init+0x40>)
 8002708:	b508      	push	{r3, lr}
 800270a:	f44f 7382 	mov.w	r3, #260	; 0x104
 800270e:	e9c0 2300 	strd	r2, r3, [r0]
 8002712:	2300      	movs	r3, #0
 8002714:	e9c0 3302 	strd	r3, r3, [r0, #8]
 8002718:	e9c0 3304 	strd	r3, r3, [r0, #16]
 800271c:	e9c0 3308 	strd	r3, r3, [r0, #32]
 8002720:	f44f 7100 	mov.w	r1, #512	; 0x200
 8002724:	2210      	movs	r2, #16
 8002726:	6283      	str	r3, [r0, #40]	; 0x28
 8002728:	230a      	movs	r3, #10
 800272a:	e9c0 1206 	strd	r1, r2, [r0, #24]
 800272e:	62c3      	str	r3, [r0, #44]	; 0x2c
 8002730:	f003 f904 	bl	800593c <HAL_SPI_Init>
 8002734:	b118      	cbz	r0, 800273e <MX_SPI2_Init+0x3a>
 8002736:	e8bd 4008 	ldmia.w	sp!, {r3, lr}
 800273a:	f7ff bfbd 	b.w	80026b8 <Error_Handler>
 800273e:	bd08      	pop	{r3, pc}
 8002740:	20000d10 	.word	0x20000d10
 8002744:	40003800 	.word	0x40003800

08002748 <HAL_SPI_MspInit>:
 8002748:	b510      	push	{r4, lr}
 800274a:	2214      	movs	r2, #20
 800274c:	b08a      	sub	sp, #40	; 0x28
 800274e:	4604      	mov	r4, r0
 8002750:	2100      	movs	r1, #0
 8002752:	eb0d 0002 	add.w	r0, sp, r2
 8002756:	f006 fbbf 	bl	8008ed8 <memset>
 800275a:	6823      	ldr	r3, [r4, #0]
 800275c:	4a27      	ldr	r2, [pc, #156]	; (80027fc <HAL_SPI_MspInit+0xb4>)
 800275e:	4293      	cmp	r3, r2
 8002760:	d125      	bne.n	80027ae <HAL_SPI_MspInit+0x66>
 8002762:	4b27      	ldr	r3, [pc, #156]	; (8002800 <HAL_SPI_MspInit+0xb8>)
 8002764:	4827      	ldr	r0, [pc, #156]	; (8002804 <HAL_SPI_MspInit+0xbc>)
 8002766:	2200      	movs	r2, #0
 8002768:	9201      	str	r2, [sp, #4]
 800276a:	6c59      	ldr	r1, [r3, #68]	; 0x44
 800276c:	f441 5180 	orr.w	r1, r1, #4096	; 0x1000
 8002770:	6459      	str	r1, [r3, #68]	; 0x44
 8002772:	6c59      	ldr	r1, [r3, #68]	; 0x44
 8002774:	f401 5180 	and.w	r1, r1, #4096	; 0x1000
 8002778:	9101      	str	r1, [sp, #4]
 800277a:	9901      	ldr	r1, [sp, #4]
 800277c:	9202      	str	r2, [sp, #8]
 800277e:	6b19      	ldr	r1, [r3, #48]	; 0x30
 8002780:	f041 0101 	orr.w	r1, r1, #1
 8002784:	6319      	str	r1, [r3, #48]	; 0x30
 8002786:	6b1b      	ldr	r3, [r3, #48]	; 0x30
 8002788:	9207      	str	r2, [sp, #28]
 800278a:	f003 0301 	and.w	r3, r3, #1
 800278e:	9302      	str	r3, [sp, #8]
 8002790:	9b02      	ldr	r3, [sp, #8]
 8002792:	24e0      	movs	r4, #224	; 0xe0
 8002794:	2302      	movs	r3, #2
 8002796:	e9cd 4305 	strd	r4, r3, [sp, #20]
 800279a:	f04f 0c03 	mov.w	ip, #3
 800279e:	2305      	movs	r3, #5
 80027a0:	e9cd c308 	strd	ip, r3, [sp, #32]
 80027a4:	a905      	add	r1, sp, #20
 80027a6:	f001 f9ab 	bl	8003b00 <HAL_GPIO_Init>
 80027aa:	b00a      	add	sp, #40	; 0x28
 80027ac:	bd10      	pop	{r4, pc}
 80027ae:	4a16      	ldr	r2, [pc, #88]	; (8002808 <HAL_SPI_MspInit+0xc0>)
 80027b0:	4293      	cmp	r3, r2
 80027b2:	d1fa      	bne.n	80027aa <HAL_SPI_MspInit+0x62>
 80027b4:	4b12      	ldr	r3, [pc, #72]	; (8002800 <HAL_SPI_MspInit+0xb8>)
 80027b6:	2200      	movs	r2, #0
 80027b8:	9203      	str	r2, [sp, #12]
 80027ba:	6c19      	ldr	r1, [r3, #64]	; 0x40
 80027bc:	f441 4180 	orr.w	r1, r1, #16384	; 0x4000
 80027c0:	6419      	str	r1, [r3, #64]	; 0x40
 80027c2:	6c19      	ldr	r1, [r3, #64]	; 0x40
 80027c4:	f401 4180 	and.w	r1, r1, #16384	; 0x4000
 80027c8:	9103      	str	r1, [sp, #12]
 80027ca:	9903      	ldr	r1, [sp, #12]
 80027cc:	9204      	str	r2, [sp, #16]
 80027ce:	6b19      	ldr	r1, [r3, #48]	; 0x30
 80027d0:	f041 0102 	orr.w	r1, r1, #2
 80027d4:	6319      	str	r1, [r3, #48]	; 0x30
 80027d6:	6b1b      	ldr	r3, [r3, #48]	; 0x30
 80027d8:	9207      	str	r2, [sp, #28]
 80027da:	f003 0302 	and.w	r3, r3, #2
 80027de:	9304      	str	r3, [sp, #16]
 80027e0:	f44f 4120 	mov.w	r1, #40960	; 0xa000
 80027e4:	9b04      	ldr	r3, [sp, #16]
 80027e6:	2302      	movs	r3, #2
 80027e8:	e9cd 1305 	strd	r1, r3, [sp, #20]
 80027ec:	2003      	movs	r0, #3
 80027ee:	2305      	movs	r3, #5
 80027f0:	e9cd 0308 	strd	r0, r3, [sp, #32]
 80027f4:	a905      	add	r1, sp, #20
 80027f6:	4805      	ldr	r0, [pc, #20]	; (800280c <HAL_SPI_MspInit+0xc4>)
 80027f8:	e7d5      	b.n	80027a6 <HAL_SPI_MspInit+0x5e>
 80027fa:	bf00      	nop
 80027fc:	40013000 	.word	0x40013000
 8002800:	40023800 	.word	0x40023800
 8002804:	40020000 	.word	0x40020000
 8002808:	40003800 	.word	0x40003800
 800280c:	40020400 	.word	0x40020400

08002810 <HAL_SPI_MspDeInit>:
 8002810:	6803      	ldr	r3, [r0, #0]
 8002812:	4a0d      	ldr	r2, [pc, #52]	; (8002848 <HAL_SPI_MspDeInit+0x38>)
 8002814:	4293      	cmp	r3, r2
 8002816:	d109      	bne.n	800282c <HAL_SPI_MspDeInit+0x1c>
 8002818:	f502 3284 	add.w	r2, r2, #67584	; 0x10800
 800281c:	480b      	ldr	r0, [pc, #44]	; (800284c <HAL_SPI_MspDeInit+0x3c>)
 800281e:	6c53      	ldr	r3, [r2, #68]	; 0x44
 8002820:	f423 5380 	bic.w	r3, r3, #4096	; 0x1000
 8002824:	6453      	str	r3, [r2, #68]	; 0x44
 8002826:	21e0      	movs	r1, #224	; 0xe0
 8002828:	f001 ba9c 	b.w	8003d64 <HAL_GPIO_DeInit>
 800282c:	4a08      	ldr	r2, [pc, #32]	; (8002850 <HAL_SPI_MspDeInit+0x40>)
 800282e:	4293      	cmp	r3, r2
 8002830:	d109      	bne.n	8002846 <HAL_SPI_MspDeInit+0x36>
 8002832:	f502 3200 	add.w	r2, r2, #131072	; 0x20000
 8002836:	4807      	ldr	r0, [pc, #28]	; (8002854 <HAL_SPI_MspDeInit+0x44>)
 8002838:	6c13      	ldr	r3, [r2, #64]	; 0x40
 800283a:	f423 4380 	bic.w	r3, r3, #16384	; 0x4000
 800283e:	6413      	str	r3, [r2, #64]	; 0x40
 8002840:	f44f 4120 	mov.w	r1, #40960	; 0xa000
 8002844:	e7f0      	b.n	8002828 <HAL_SPI_MspDeInit+0x18>
 8002846:	4770      	bx	lr
 8002848:	40013000 	.word	0x40013000
 800284c:	40020000 	.word	0x40020000
 8002850:	40003800 	.word	0x40003800
 8002854:	40020400 	.word	0x40020400

08002858 <SPIx_Init>:
 8002858:	b510      	push	{r4, lr}
 800285a:	4c20      	ldr	r4, [pc, #128]	; (80028dc <SPIx_Init+0x84>)
 800285c:	b088      	sub	sp, #32
 800285e:	4620      	mov	r0, r4
 8002860:	f003 fb3e 	bl	8005ee0 <HAL_SPI_GetState>
 8002864:	2800      	cmp	r0, #0
 8002866:	d137      	bne.n	80028d8 <SPIx_Init+0x80>
 8002868:	4b1d      	ldr	r3, [pc, #116]	; (80028e0 <SPIx_Init+0x88>)
 800286a:	6023      	str	r3, [r4, #0]
 800286c:	2310      	movs	r3, #16
 800286e:	61e3      	str	r3, [r4, #28]
 8002870:	2307      	movs	r3, #7
 8002872:	62e3      	str	r3, [r4, #44]	; 0x2c
 8002874:	f44f 7300 	mov.w	r3, #512	; 0x200
 8002878:	e9c4 0004 	strd	r0, r0, [r4, #16]
 800287c:	61a3      	str	r3, [r4, #24]
 800287e:	f44f 7382 	mov.w	r3, #260	; 0x104
 8002882:	6063      	str	r3, [r4, #4]
 8002884:	4b17      	ldr	r3, [pc, #92]	; (80028e4 <SPIx_Init+0x8c>)
 8002886:	9001      	str	r0, [sp, #4]
 8002888:	60a0      	str	r0, [r4, #8]
 800288a:	62a0      	str	r0, [r4, #40]	; 0x28
 800288c:	60e0      	str	r0, [r4, #12]
 800288e:	6220      	str	r0, [r4, #32]
 8002890:	6260      	str	r0, [r4, #36]	; 0x24
 8002892:	6c5a      	ldr	r2, [r3, #68]	; 0x44
 8002894:	f442 5280 	orr.w	r2, r2, #4096	; 0x1000
 8002898:	645a      	str	r2, [r3, #68]	; 0x44
 800289a:	6c5a      	ldr	r2, [r3, #68]	; 0x44
 800289c:	f402 5280 	and.w	r2, r2, #4096	; 0x1000
 80028a0:	9201      	str	r2, [sp, #4]
 80028a2:	9a01      	ldr	r2, [sp, #4]
 80028a4:	9002      	str	r0, [sp, #8]
 80028a6:	6b1a      	ldr	r2, [r3, #48]	; 0x30
 80028a8:	f042 0201 	orr.w	r2, r2, #1
 80028ac:	631a      	str	r2, [r3, #48]	; 0x30
 80028ae:	6b1b      	ldr	r3, [r3, #48]	; 0x30
 80028b0:	f003 0301 	and.w	r3, r3, #1
 80028b4:	9302      	str	r3, [sp, #8]
 80028b6:	9b02      	ldr	r3, [sp, #8]
 80028b8:	21e0      	movs	r1, #224	; 0xe0
 80028ba:	2302      	movs	r3, #2
 80028bc:	e9cd 1303 	strd	r1, r3, [sp, #12]
 80028c0:	9305      	str	r3, [sp, #20]
 80028c2:	2001      	movs	r0, #1
 80028c4:	2305      	movs	r3, #5
 80028c6:	e9cd 0306 	strd	r0, r3, [sp, #24]
 80028ca:	a903      	add	r1, sp, #12
 80028cc:	4806      	ldr	r0, [pc, #24]	; (80028e8 <SPIx_Init+0x90>)
 80028ce:	f001 f917 	bl	8003b00 <HAL_GPIO_Init>
 80028d2:	4620      	mov	r0, r4
 80028d4:	f003 f832 	bl	800593c <HAL_SPI_Init>
 80028d8:	b008      	add	sp, #32
 80028da:	bd10      	pop	{r4, pc}
 80028dc:	20000220 	.word	0x20000220
 80028e0:	40013000 	.word	0x40013000
 80028e4:	40023800 	.word	0x40023800
 80028e8:	40020000 	.word	0x40020000

080028ec <SPIx_WriteRead>:
 80028ec:	b57f      	push	{r0, r1, r2, r3, r4, r5, r6, lr}
 80028ee:	2300      	movs	r3, #0
 80028f0:	f88d 3017 	strb.w	r3, [sp, #23]
 80028f4:	4b0b      	ldr	r3, [pc, #44]	; (8002924 <SPIx_WriteRead+0x38>)
 80028f6:	f88d 000f 	strb.w	r0, [sp, #15]
 80028fa:	681b      	ldr	r3, [r3, #0]
 80028fc:	9300      	str	r3, [sp, #0]
 80028fe:	480a      	ldr	r0, [pc, #40]	; (8002928 <SPIx_WriteRead+0x3c>)
 8002900:	2301      	movs	r3, #1
 8002902:	f10d 0217 	add.w	r2, sp, #23
 8002906:	f10d 010f 	add.w	r1, sp, #15
 800290a:	f003 f9f1 	bl	8005cf0 <HAL_SPI_TransmitReceive>
 800290e:	b120      	cbz	r0, 800291a <SPIx_WriteRead+0x2e>
 8002910:	4805      	ldr	r0, [pc, #20]	; (8002928 <SPIx_WriteRead+0x3c>)
 8002912:	f003 f901 	bl	8005b18 <HAL_SPI_DeInit>
 8002916:	f7ff ff9f 	bl	8002858 <SPIx_Init>
 800291a:	f89d 0017 	ldrb.w	r0, [sp, #23]
 800291e:	b007      	add	sp, #28
 8002920:	f85d fb04 	ldr.w	pc, [sp], #4
 8002924:	200000d4 	.word	0x200000d4
 8002928:	20000220 	.word	0x20000220

0800292c <I2Cx_Init>:
 800292c:	b570      	push	{r4, r5, r6, lr}
 800292e:	4d2b      	ldr	r5, [pc, #172]	; (80029dc <I2Cx_Init+0xb0>)
 8002930:	b088      	sub	sp, #32
 8002932:	4628      	mov	r0, r5
 8002934:	f002 fc2a 	bl	800518c <HAL_I2C_GetState>
 8002938:	4604      	mov	r4, r0
 800293a:	2800      	cmp	r0, #0
 800293c:	d14c      	bne.n	80029d8 <I2Cx_Init+0xac>
 800293e:	4b28      	ldr	r3, [pc, #160]	; (80029e0 <I2Cx_Init+0xb4>)
 8002940:	602b      	str	r3, [r5, #0]
 8002942:	2343      	movs	r3, #67	; 0x43
 8002944:	60eb      	str	r3, [r5, #12]
 8002946:	4b27      	ldr	r3, [pc, #156]	; (80029e4 <I2Cx_Init+0xb8>)
 8002948:	4e27      	ldr	r6, [pc, #156]	; (80029e8 <I2Cx_Init+0xbc>)
 800294a:	9001      	str	r0, [sp, #4]
 800294c:	e9c5 3001 	strd	r3, r0, [r5, #4]
 8002950:	f44f 4380 	mov.w	r3, #16384	; 0x4000
 8002954:	e9c5 3004 	strd	r3, r0, [r5, #16]
 8002958:	e9c5 0006 	strd	r0, r0, [r5, #24]
 800295c:	6228      	str	r0, [r5, #32]
 800295e:	6c33      	ldr	r3, [r6, #64]	; 0x40
 8002960:	f443 1300 	orr.w	r3, r3, #2097152	; 0x200000
 8002964:	6433      	str	r3, [r6, #64]	; 0x40
 8002966:	6c33      	ldr	r3, [r6, #64]	; 0x40
 8002968:	f403 1300 	and.w	r3, r3, #2097152	; 0x200000
 800296c:	9301      	str	r3, [sp, #4]
 800296e:	9b01      	ldr	r3, [sp, #4]
 8002970:	9002      	str	r0, [sp, #8]
 8002972:	6b33      	ldr	r3, [r6, #48]	; 0x30
 8002974:	f043 0302 	orr.w	r3, r3, #2
 8002978:	6333      	str	r3, [r6, #48]	; 0x30
 800297a:	6b33      	ldr	r3, [r6, #48]	; 0x30
 800297c:	9405      	str	r4, [sp, #20]
 800297e:	f003 0302 	and.w	r3, r3, #2
 8002982:	9302      	str	r3, [sp, #8]
 8002984:	9b02      	ldr	r3, [sp, #8]
 8002986:	f44f 7010 	mov.w	r0, #576	; 0x240
 800298a:	2312      	movs	r3, #18
 800298c:	f04f 0c02 	mov.w	ip, #2
 8002990:	e9cd 0303 	strd	r0, r3, [sp, #12]
 8002994:	a903      	add	r1, sp, #12
 8002996:	2304      	movs	r3, #4
 8002998:	4814      	ldr	r0, [pc, #80]	; (80029ec <I2Cx_Init+0xc0>)
 800299a:	e9cd c306 	strd	ip, r3, [sp, #24]
 800299e:	f001 f8af 	bl	8003b00 <HAL_GPIO_Init>
 80029a2:	6a33      	ldr	r3, [r6, #32]
 80029a4:	f443 1300 	orr.w	r3, r3, #2097152	; 0x200000
 80029a8:	6233      	str	r3, [r6, #32]
 80029aa:	6a33      	ldr	r3, [r6, #32]
 80029ac:	f423 1300 	bic.w	r3, r3, #2097152	; 0x200000
 80029b0:	6233      	str	r3, [r6, #32]
 80029b2:	4622      	mov	r2, r4
 80029b4:	210f      	movs	r1, #15
 80029b6:	201f      	movs	r0, #31
 80029b8:	f000 fdd2 	bl	8003560 <HAL_NVIC_SetPriority>
 80029bc:	201f      	movs	r0, #31
 80029be:	f000 fe13 	bl	80035e8 <HAL_NVIC_EnableIRQ>
 80029c2:	4622      	mov	r2, r4
 80029c4:	210f      	movs	r1, #15
 80029c6:	2020      	movs	r0, #32
 80029c8:	f000 fdca 	bl	8003560 <HAL_NVIC_SetPriority>
 80029cc:	2020      	movs	r0, #32
 80029ce:	f000 fe0b 	bl	80035e8 <HAL_NVIC_EnableIRQ>
 80029d2:	4628      	mov	r0, r5
 80029d4:	f002 f8f2 	bl	8004bbc <HAL_I2C_Init>
 80029d8:	b008      	add	sp, #32
 80029da:	bd70      	pop	{r4, r5, r6, pc}
 80029dc:	200001cc 	.word	0x200001cc
 80029e0:	40005400 	.word	0x40005400
 80029e4:	000186a0 	.word	0x000186a0
 80029e8:	40023800 	.word	0x40023800
 80029ec:	40020400 	.word	0x40020400

080029f0 <I2Cx_ReadData>:
 80029f0:	b57f      	push	{r0, r1, r2, r3, r4, r5, r6, lr}
 80029f2:	2300      	movs	r3, #0
 80029f4:	f88d 3017 	strb.w	r3, [sp, #23]
 80029f8:	4b0b      	ldr	r3, [pc, #44]	; (8002a28 <I2Cx_ReadData+0x38>)
 80029fa:	681b      	ldr	r3, [r3, #0]
 80029fc:	9302      	str	r3, [sp, #8]
 80029fe:	460a      	mov	r2, r1
 8002a00:	2301      	movs	r3, #1
 8002a02:	f10d 0117 	add.w	r1, sp, #23
 8002a06:	9100      	str	r1, [sp, #0]
 8002a08:	9301      	str	r3, [sp, #4]
 8002a0a:	4601      	mov	r1, r0
 8002a0c:	4807      	ldr	r0, [pc, #28]	; (8002a2c <I2Cx_ReadData+0x3c>)
 8002a0e:	f002 faab 	bl	8004f68 <HAL_I2C_Mem_Read>
 8002a12:	b120      	cbz	r0, 8002a1e <I2Cx_ReadData+0x2e>
 8002a14:	4805      	ldr	r0, [pc, #20]	; (8002a2c <I2Cx_ReadData+0x3c>)
 8002a16:	f002 f9dd 	bl	8004dd4 <HAL_I2C_DeInit>
 8002a1a:	f7ff ff87 	bl	800292c <I2Cx_Init>
 8002a1e:	f89d 0017 	ldrb.w	r0, [sp, #23]
 8002a22:	b007      	add	sp, #28
 8002a24:	f85d fb04 	ldr.w	pc, [sp], #4
 8002a28:	200000d0 	.word	0x200000d0
 8002a2c:	200001cc 	.word	0x200001cc

08002a30 <I2Cx_WriteData>:
 8002a30:	b57f      	push	{r0, r1, r2, r3, r4, r5, r6, lr}
 8002a32:	4b0c      	ldr	r3, [pc, #48]	; (8002a64 <I2Cx_WriteData+0x34>)
 8002a34:	f88d 2017 	strb.w	r2, [sp, #23]
 8002a38:	681b      	ldr	r3, [r3, #0]
 8002a3a:	9302      	str	r3, [sp, #8]
 8002a3c:	f10d 0217 	add.w	r2, sp, #23
 8002a40:	2301      	movs	r3, #1
 8002a42:	9200      	str	r2, [sp, #0]
 8002a44:	9301      	str	r3, [sp, #4]
 8002a46:	460a      	mov	r2, r1
 8002a48:	4601      	mov	r1, r0
 8002a4a:	4807      	ldr	r0, [pc, #28]	; (8002a68 <I2Cx_WriteData+0x38>)
 8002a4c:	f002 f9f2 	bl	8004e34 <HAL_I2C_Mem_Write>
 8002a50:	b120      	cbz	r0, 8002a5c <I2Cx_WriteData+0x2c>
 8002a52:	4805      	ldr	r0, [pc, #20]	; (8002a68 <I2Cx_WriteData+0x38>)
 8002a54:	f002 f9be 	bl	8004dd4 <HAL_I2C_DeInit>
 8002a58:	f7ff ff68 	bl	800292c <I2Cx_Init>
 8002a5c:	b007      	add	sp, #28
 8002a5e:	f85d fb04 	ldr.w	pc, [sp], #4
 8002a62:	bf00      	nop
 8002a64:	200000d0 	.word	0x200000d0
 8002a68:	200001cc 	.word	0x200001cc

08002a6c <GYRO_IO_Init>:
 8002a6c:	b5f0      	push	{r4, r5, r6, r7, lr}
 8002a6e:	b089      	sub	sp, #36	; 0x24
 8002a70:	4c19      	ldr	r4, [pc, #100]	; (8002ad8 <GYRO_IO_Init+0x6c>)
 8002a72:	481a      	ldr	r0, [pc, #104]	; (8002adc <GYRO_IO_Init+0x70>)
 8002a74:	2500      	movs	r5, #0
 8002a76:	9501      	str	r5, [sp, #4]
 8002a78:	6b23      	ldr	r3, [r4, #48]	; 0x30
 8002a7a:	f043 0310 	orr.w	r3, r3, #16
 8002a7e:	6323      	str	r3, [r4, #48]	; 0x30
 8002a80:	6b23      	ldr	r3, [r4, #48]	; 0x30
 8002a82:	f003 0310 	and.w	r3, r3, #16
 8002a86:	2601      	movs	r6, #1
 8002a88:	9301      	str	r3, [sp, #4]
 8002a8a:	2708      	movs	r7, #8
 8002a8c:	a903      	add	r1, sp, #12
 8002a8e:	9b01      	ldr	r3, [sp, #4]
 8002a90:	e9cd 7603 	strd	r7, r6, [sp, #12]
 8002a94:	e9cd 5605 	strd	r5, r6, [sp, #20]
 8002a98:	f001 f832 	bl	8003b00 <HAL_GPIO_Init>
 8002a9c:	4632      	mov	r2, r6
 8002a9e:	4639      	mov	r1, r7
 8002aa0:	480e      	ldr	r0, [pc, #56]	; (8002adc <GYRO_IO_Init+0x70>)
 8002aa2:	f001 f9fb 	bl	8003e9c <HAL_GPIO_WritePin>
 8002aa6:	9502      	str	r5, [sp, #8]
 8002aa8:	6b23      	ldr	r3, [r4, #48]	; 0x30
 8002aaa:	480c      	ldr	r0, [pc, #48]	; (8002adc <GYRO_IO_Init+0x70>)
 8002aac:	f043 0310 	orr.w	r3, r3, #16
 8002ab0:	6323      	str	r3, [r4, #48]	; 0x30
 8002ab2:	6b23      	ldr	r3, [r4, #48]	; 0x30
 8002ab4:	f003 0310 	and.w	r3, r3, #16
 8002ab8:	9302      	str	r3, [sp, #8]
 8002aba:	9b02      	ldr	r3, [sp, #8]
 8002abc:	2303      	movs	r3, #3
 8002abe:	e9cd 3503 	strd	r3, r5, [sp, #12]
 8002ac2:	a903      	add	r1, sp, #12
 8002ac4:	2302      	movs	r3, #2
 8002ac6:	e9cd 5305 	strd	r5, r3, [sp, #20]
 8002aca:	f001 f819 	bl	8003b00 <HAL_GPIO_Init>
 8002ace:	f7ff fec3 	bl	8002858 <SPIx_Init>
 8002ad2:	b009      	add	sp, #36	; 0x24
 8002ad4:	bdf0      	pop	{r4, r5, r6, r7, pc}
 8002ad6:	bf00      	nop
 8002ad8:	40023800 	.word	0x40023800
 8002adc:	40021000 	.word	0x40021000

08002ae0 <GYRO_IO_Write>:
 8002ae0:	2a01      	cmp	r2, #1
 8002ae2:	b570      	push	{r4, r5, r6, lr}
 8002ae4:	460e      	mov	r6, r1
 8002ae6:	4605      	mov	r5, r0
 8002ae8:	bf88      	it	hi
 8002aea:	f041 0640 	orrhi.w	r6, r1, #64	; 0x40
 8002aee:	480c      	ldr	r0, [pc, #48]	; (8002b20 <GYRO_IO_Write+0x40>)
 8002af0:	4614      	mov	r4, r2
 8002af2:	2108      	movs	r1, #8
 8002af4:	2200      	movs	r2, #0
 8002af6:	f001 f9d1 	bl	8003e9c <HAL_GPIO_WritePin>
 8002afa:	4630      	mov	r0, r6
 8002afc:	f7ff fef6 	bl	80028ec <SPIx_WriteRead>
 8002b00:	442c      	add	r4, r5
 8002b02:	42a5      	cmp	r5, r4
 8002b04:	d106      	bne.n	8002b14 <GYRO_IO_Write+0x34>
 8002b06:	e8bd 4070 	ldmia.w	sp!, {r4, r5, r6, lr}
 8002b0a:	4805      	ldr	r0, [pc, #20]	; (8002b20 <GYRO_IO_Write+0x40>)
 8002b0c:	2201      	movs	r2, #1
 8002b0e:	2108      	movs	r1, #8
 8002b10:	f001 b9c4 	b.w	8003e9c <HAL_GPIO_WritePin>
 8002b14:	f815 0b01 	ldrb.w	r0, [r5], #1
 8002b18:	f7ff fee8 	bl	80028ec <SPIx_WriteRead>
 8002b1c:	e7f1      	b.n	8002b02 <GYRO_IO_Write+0x22>
 8002b1e:	bf00      	nop
 8002b20:	40021000 	.word	0x40021000

08002b24 <GYRO_IO_Read>:
 8002b24:	2a01      	cmp	r2, #1
 8002b26:	b570      	push	{r4, r5, r6, lr}
 8002b28:	bf8c      	ite	hi
 8002b2a:	f041 04c0 	orrhi.w	r4, r1, #192	; 0xc0
 8002b2e:	f041 0480 	orrls.w	r4, r1, #128	; 0x80
 8002b32:	4606      	mov	r6, r0
 8002b34:	4615      	mov	r5, r2
 8002b36:	480c      	ldr	r0, [pc, #48]	; (8002b68 <GYRO_IO_Read+0x44>)
 8002b38:	2200      	movs	r2, #0
 8002b3a:	2108      	movs	r1, #8
 8002b3c:	f001 f9ae 	bl	8003e9c <HAL_GPIO_WritePin>
 8002b40:	4620      	mov	r0, r4
 8002b42:	f7ff fed3 	bl	80028ec <SPIx_WriteRead>
 8002b46:	4435      	add	r5, r6
 8002b48:	42ae      	cmp	r6, r5
 8002b4a:	d106      	bne.n	8002b5a <GYRO_IO_Read+0x36>
 8002b4c:	e8bd 4070 	ldmia.w	sp!, {r4, r5, r6, lr}
 8002b50:	4805      	ldr	r0, [pc, #20]	; (8002b68 <GYRO_IO_Read+0x44>)
 8002b52:	2201      	movs	r2, #1
 8002b54:	2108      	movs	r1, #8
 8002b56:	f001 b9a1 	b.w	8003e9c <HAL_GPIO_WritePin>
 8002b5a:	2000      	movs	r0, #0
 8002b5c:	f7ff fec6 	bl	80028ec <SPIx_WriteRead>
 8002b60:	f806 0b01 	strb.w	r0, [r6], #1
 8002b64:	e7f0      	b.n	8002b48 <GYRO_IO_Read+0x24>
 8002b66:	bf00      	nop
 8002b68:	40021000 	.word	0x40021000

08002b6c <COMPASSACCELERO_IO_Init>:
 8002b6c:	b57f      	push	{r0, r1, r2, r3, r4, r5, r6, lr}
 8002b6e:	2300      	movs	r3, #0
 8002b70:	4a0d      	ldr	r2, [pc, #52]	; (8002ba8 <COMPASSACCELERO_IO_Init+0x3c>)
 8002b72:	9300      	str	r3, [sp, #0]
 8002b74:	6b11      	ldr	r1, [r2, #48]	; 0x30
 8002b76:	480d      	ldr	r0, [pc, #52]	; (8002bac <COMPASSACCELERO_IO_Init+0x40>)
 8002b78:	f041 0110 	orr.w	r1, r1, #16
 8002b7c:	6311      	str	r1, [r2, #48]	; 0x30
 8002b7e:	6b12      	ldr	r2, [r2, #48]	; 0x30
 8002b80:	9303      	str	r3, [sp, #12]
 8002b82:	f002 0210 	and.w	r2, r2, #16
 8002b86:	9200      	str	r2, [sp, #0]
 8002b88:	9a00      	ldr	r2, [sp, #0]
 8002b8a:	2204      	movs	r2, #4
 8002b8c:	e9cd 2301 	strd	r2, r3, [sp, #4]
 8002b90:	eb0d 0102 	add.w	r1, sp, r2
 8002b94:	2302      	movs	r3, #2
 8002b96:	9304      	str	r3, [sp, #16]
 8002b98:	f000 ffb2 	bl	8003b00 <HAL_GPIO_Init>
 8002b9c:	f7ff fec6 	bl	800292c <I2Cx_Init>
 8002ba0:	b007      	add	sp, #28
 8002ba2:	f85d fb04 	ldr.w	pc, [sp], #4
 8002ba6:	bf00      	nop
 8002ba8:	40023800 	.word	0x40023800
 8002bac:	40021000 	.word	0x40021000

08002bb0 <COMPASSACCELERO_IO_ITConfig>:
 8002bb0:	b510      	push	{r4, lr}
 8002bb2:	b086      	sub	sp, #24
 8002bb4:	2400      	movs	r4, #0
 8002bb6:	4b10      	ldr	r3, [pc, #64]	; (8002bf8 <COMPASSACCELERO_IO_ITConfig+0x48>)
 8002bb8:	9400      	str	r4, [sp, #0]
 8002bba:	6b1a      	ldr	r2, [r3, #48]	; 0x30
 8002bbc:	480f      	ldr	r0, [pc, #60]	; (8002bfc <COMPASSACCELERO_IO_ITConfig+0x4c>)
 8002bbe:	f042 0210 	orr.w	r2, r2, #16
 8002bc2:	631a      	str	r2, [r3, #48]	; 0x30
 8002bc4:	6b1b      	ldr	r3, [r3, #48]	; 0x30
 8002bc6:	f003 0310 	and.w	r3, r3, #16
 8002bca:	9300      	str	r3, [sp, #0]
 8002bcc:	9b00      	ldr	r3, [sp, #0]
 8002bce:	2230      	movs	r2, #48	; 0x30
 8002bd0:	f44f 1388 	mov.w	r3, #1114112	; 0x110000
 8002bd4:	e9cd 2301 	strd	r2, r3, [sp, #4]
 8002bd8:	a901      	add	r1, sp, #4
 8002bda:	2302      	movs	r3, #2
 8002bdc:	e9cd 4303 	strd	r4, r3, [sp, #12]
 8002be0:	f000 ff8e 	bl	8003b00 <HAL_GPIO_Init>
 8002be4:	4622      	mov	r2, r4
 8002be6:	210f      	movs	r1, #15
 8002be8:	200a      	movs	r0, #10
 8002bea:	f000 fcb9 	bl	8003560 <HAL_NVIC_SetPriority>
 8002bee:	200a      	movs	r0, #10
 8002bf0:	f000 fcfa 	bl	80035e8 <HAL_NVIC_EnableIRQ>
 8002bf4:	b006      	add	sp, #24
 8002bf6:	bd10      	pop	{r4, pc}
 8002bf8:	40023800 	.word	0x40023800
 8002bfc:	40021000 	.word	0x40021000

08002c00 <COMPASSACCELERO_IO_Write>:
 8002c00:	f7ff bf16 	b.w	8002a30 <I2Cx_WriteData>

08002c04 <COMPASSACCELERO_IO_Read>:
 8002c04:	f7ff bef4 	b.w	80029f0 <I2Cx_ReadData>

08002c08 <BSP_ACCELERO_Init>:
 8002c08:	b538      	push	{r3, r4, r5, lr}
 8002c0a:	4c0c      	ldr	r4, [pc, #48]	; (8002c3c <BSP_ACCELERO_Init+0x34>)
 8002c0c:	68a3      	ldr	r3, [r4, #8]
 8002c0e:	4798      	blx	r3
 8002c10:	2833      	cmp	r0, #51	; 0x33
 8002c12:	d10b      	bne.n	8002c2c <BSP_ACCELERO_Init+0x24>
 8002c14:	4d0a      	ldr	r5, [pc, #40]	; (8002c40 <BSP_ACCELERO_Init+0x38>)
 8002c16:	6823      	ldr	r3, [r4, #0]
 8002c18:	602c      	str	r4, [r5, #0]
 8002c1a:	f640 0047 	movw	r0, #2119	; 0x847
 8002c1e:	4798      	blx	r3
 8002c20:	682b      	ldr	r3, [r5, #0]
 8002c22:	2090      	movs	r0, #144	; 0x90
 8002c24:	6a9b      	ldr	r3, [r3, #40]	; 0x28
 8002c26:	4798      	blx	r3
 8002c28:	2000      	movs	r0, #0
 8002c2a:	bd38      	pop	{r3, r4, r5, pc}
 8002c2c:	4c05      	ldr	r4, [pc, #20]	; (8002c44 <BSP_ACCELERO_Init+0x3c>)
 8002c2e:	68a3      	ldr	r3, [r4, #8]
 8002c30:	4798      	blx	r3
 8002c32:	2833      	cmp	r0, #51	; 0x33
 8002c34:	d0ee      	beq.n	8002c14 <BSP_ACCELERO_Init+0xc>
 8002c36:	2001      	movs	r0, #1
 8002c38:	e7f7      	b.n	8002c2a <BSP_ACCELERO_Init+0x22>
 8002c3a:	bf00      	nop
 8002c3c:	2000009c 	.word	0x2000009c
 8002c40:	20000278 	.word	0x20000278
 8002c44:	20000068 	.word	0x20000068

08002c48 <BSP_ACCELERO_GetXYZ>:
 8002c48:	b538      	push	{r3, r4, r5, lr}
 8002c4a:	4d08      	ldr	r5, [pc, #32]	; (8002c6c <BSP_ACCELERO_GetXYZ+0x24>)
 8002c4c:	682b      	ldr	r3, [r5, #0]
 8002c4e:	6b1b      	ldr	r3, [r3, #48]	; 0x30
 8002c50:	4604      	mov	r4, r0
 8002c52:	b153      	cbz	r3, 8002c6a <BSP_ACCELERO_GetXYZ+0x22>
 8002c54:	4798      	blx	r3
 8002c56:	682a      	ldr	r2, [r5, #0]
 8002c58:	4b05      	ldr	r3, [pc, #20]	; (8002c70 <BSP_ACCELERO_GetXYZ+0x28>)
 8002c5a:	429a      	cmp	r2, r3
 8002c5c:	d105      	bne.n	8002c6a <BSP_ACCELERO_GetXYZ+0x22>
 8002c5e:	f9b4 3000 	ldrsh.w	r3, [r4]
 8002c62:	8862      	ldrh	r2, [r4, #2]
 8002c64:	8022      	strh	r2, [r4, #0]
 8002c66:	425b      	negs	r3, r3
 8002c68:	8063      	strh	r3, [r4, #2]
 8002c6a:	bd38      	pop	{r3, r4, r5, pc}
 8002c6c:	20000278 	.word	0x20000278
 8002c70:	2000009c 	.word	0x2000009c

08002c74 <BSP_GYRO_Init>:
 8002c74:	b538      	push	{r3, r4, r5, lr}
 8002c76:	4c10      	ldr	r4, [pc, #64]	; (8002cb8 <BSP_GYRO_Init+0x44>)
 8002c78:	68a3      	ldr	r3, [r4, #8]
 8002c7a:	4798      	blx	r3
 8002c7c:	28d4      	cmp	r0, #212	; 0xd4
 8002c7e:	4625      	mov	r5, r4
 8002c80:	d10f      	bne.n	8002ca2 <BSP_GYRO_Init+0x2e>
 8002c82:	4c0e      	ldr	r4, [pc, #56]	; (8002cbc <BSP_GYRO_Init+0x48>)
 8002c84:	682b      	ldr	r3, [r5, #0]
 8002c86:	6025      	str	r5, [r4, #0]
 8002c88:	f241 003f 	movw	r0, #4159	; 0x103f
 8002c8c:	4798      	blx	r3
 8002c8e:	6823      	ldr	r3, [r4, #0]
 8002c90:	2000      	movs	r0, #0
 8002c92:	6a9b      	ldr	r3, [r3, #40]	; 0x28
 8002c94:	4798      	blx	r3
 8002c96:	6823      	ldr	r3, [r4, #0]
 8002c98:	2010      	movs	r0, #16
 8002c9a:	6adb      	ldr	r3, [r3, #44]	; 0x2c
 8002c9c:	4798      	blx	r3
 8002c9e:	2000      	movs	r0, #0
 8002ca0:	bd38      	pop	{r3, r4, r5, pc}
 8002ca2:	68a3      	ldr	r3, [r4, #8]
 8002ca4:	4798      	blx	r3
 8002ca6:	28d5      	cmp	r0, #213	; 0xd5
 8002ca8:	d0eb      	beq.n	8002c82 <BSP_GYRO_Init+0xe>
 8002caa:	4d05      	ldr	r5, [pc, #20]	; (8002cc0 <BSP_GYRO_Init+0x4c>)
 8002cac:	68ab      	ldr	r3, [r5, #8]
 8002cae:	4798      	blx	r3
 8002cb0:	28d3      	cmp	r0, #211	; 0xd3
 8002cb2:	d0e6      	beq.n	8002c82 <BSP_GYRO_Init+0xe>
 8002cb4:	2001      	movs	r0, #1
 8002cb6:	e7f3      	b.n	8002ca0 <BSP_GYRO_Init+0x2c>
 8002cb8:	20000034 	.word	0x20000034
 8002cbc:	2000027c 	.word	0x2000027c
 8002cc0:	20000000 	.word	0x20000000

08002cc4 <HAL_MspInit>:
 8002cc4:	b082      	sub	sp, #8
 8002cc6:	4b0d      	ldr	r3, [pc, #52]	; (8002cfc <HAL_MspInit+0x38>)
 8002cc8:	2100      	movs	r1, #0
 8002cca:	9100      	str	r1, [sp, #0]
 8002ccc:	6c5a      	ldr	r2, [r3, #68]	; 0x44
 8002cce:	f442 4280 	orr.w	r2, r2, #16384	; 0x4000
 8002cd2:	645a      	str	r2, [r3, #68]	; 0x44
 8002cd4:	6c5a      	ldr	r2, [r3, #68]	; 0x44
 8002cd6:	f402 4280 	and.w	r2, r2, #16384	; 0x4000
 8002cda:	9200      	str	r2, [sp, #0]
 8002cdc:	9a00      	ldr	r2, [sp, #0]
 8002cde:	9101      	str	r1, [sp, #4]
 8002ce0:	6c1a      	ldr	r2, [r3, #64]	; 0x40
 8002ce2:	f042 5280 	orr.w	r2, r2, #268435456	; 0x10000000
 8002ce6:	641a      	str	r2, [r3, #64]	; 0x40
 8002ce8:	6c1b      	ldr	r3, [r3, #64]	; 0x40
 8002cea:	f003 5380 	and.w	r3, r3, #268435456	; 0x10000000
 8002cee:	9301      	str	r3, [sp, #4]
 8002cf0:	9b01      	ldr	r3, [sp, #4]
 8002cf2:	2007      	movs	r0, #7
 8002cf4:	b002      	add	sp, #8
 8002cf6:	f000 bc17 	b.w	8003528 <HAL_NVIC_SetPriorityGrouping>
 8002cfa:	bf00      	nop
 8002cfc:	40023800 	.word	0x40023800

08002d00 <NMI_Handler>:
 8002d00:	e7fe      	b.n	8002d00 <NMI_Handler>

08002d02 <HardFault_Handler>:
 8002d02:	e7fe      	b.n	8002d02 <HardFault_Handler>

08002d04 <MemManage_Handler>:
 8002d04:	e7fe      	b.n	8002d04 <MemManage_Handler>

08002d06 <BusFault_Handler>:
 8002d06:	e7fe      	b.n	8002d06 <BusFault_Handler>

08002d08 <UsageFault_Handler>:
 8002d08:	e7fe      	b.n	8002d08 <UsageFault_Handler>

08002d0a <SVC_Handler>:
 8002d0a:	4770      	bx	lr

08002d0c <DebugMon_Handler>:
 8002d0c:	4770      	bx	lr

08002d0e <PendSV_Handler>:
 8002d0e:	4770      	bx	lr

08002d10 <SysTick_Handler>:
 8002d10:	f000 b9f2 	b.w	80030f8 <HAL_IncTick>

08002d14 <EXTI9_5_IRQHandler>:
 8002d14:	f44f 7080 	mov.w	r0, #256	; 0x100
 8002d18:	f001 b8da 	b.w	8003ed0 <HAL_GPIO_EXTI_IRQHandler>

08002d1c <TIM1_UP_TIM10_IRQHandler>:
 8002d1c:	b508      	push	{r3, lr}
 8002d1e:	4804      	ldr	r0, [pc, #16]	; (8002d30 <TIM1_UP_TIM10_IRQHandler+0x14>)
 8002d20:	f003 fa9f 	bl	8006262 <HAL_TIM_IRQHandler>
 8002d24:	e8bd 4008 	ldmia.w	sp!, {r3, lr}
 8002d28:	4802      	ldr	r0, [pc, #8]	; (8002d34 <TIM1_UP_TIM10_IRQHandler+0x18>)
 8002d2a:	f003 ba9a 	b.w	8006262 <HAL_TIM_IRQHandler>
 8002d2e:	bf00      	nop
 8002d30:	20000e68 	.word	0x20000e68
 8002d34:	20000e20 	.word	0x20000e20

08002d38 <DMA2_Stream0_IRQHandler>:
 8002d38:	4801      	ldr	r0, [pc, #4]	; (8002d40 <DMA2_Stream0_IRQHandler+0x8>)
 8002d3a:	f000 be23 	b.w	8003984 <HAL_DMA_IRQHandler>
 8002d3e:	bf00      	nop
 8002d40:	200002d8 	.word	0x200002d8

08002d44 <DMA2_Stream1_IRQHandler>:
 8002d44:	4801      	ldr	r0, [pc, #4]	; (8002d4c <DMA2_Stream1_IRQHandler+0x8>)
 8002d46:	f000 be1d 	b.w	8003984 <HAL_DMA_IRQHandler>
 8002d4a:	bf00      	nop
 8002d4c:	20000dc0 	.word	0x20000dc0

08002d50 <OTG_FS_IRQHandler>:
 8002d50:	4801      	ldr	r0, [pc, #4]	; (8002d58 <OTG_FS_IRQHandler+0x8>)
 8002d52:	f001 b9cf 	b.w	80040f4 <HAL_HCD_IRQHandler>
 8002d56:	bf00      	nop
 8002d58:	2000128c 	.word	0x2000128c

08002d5c <_sbrk>:
 8002d5c:	4b0b      	ldr	r3, [pc, #44]	; (8002d8c <_sbrk+0x30>)
 8002d5e:	6819      	ldr	r1, [r3, #0]
 8002d60:	b510      	push	{r4, lr}
 8002d62:	4602      	mov	r2, r0
 8002d64:	b909      	cbnz	r1, 8002d6a <_sbrk+0xe>
 8002d66:	490a      	ldr	r1, [pc, #40]	; (8002d90 <_sbrk+0x34>)
 8002d68:	6019      	str	r1, [r3, #0]
 8002d6a:	6818      	ldr	r0, [r3, #0]
 8002d6c:	4909      	ldr	r1, [pc, #36]	; (8002d94 <_sbrk+0x38>)
 8002d6e:	4c0a      	ldr	r4, [pc, #40]	; (8002d98 <_sbrk+0x3c>)
 8002d70:	4402      	add	r2, r0
 8002d72:	1b09      	subs	r1, r1, r4
 8002d74:	428a      	cmp	r2, r1
 8002d76:	d906      	bls.n	8002d86 <_sbrk+0x2a>
 8002d78:	f006 f874 	bl	8008e64 <__errno>
 8002d7c:	230c      	movs	r3, #12
 8002d7e:	6003      	str	r3, [r0, #0]
 8002d80:	f04f 30ff 	mov.w	r0, #4294967295	; 0xffffffff
 8002d84:	bd10      	pop	{r4, pc}
 8002d86:	601a      	str	r2, [r3, #0]
 8002d88:	e7fc      	b.n	8002d84 <_sbrk+0x28>
 8002d8a:	bf00      	nop
 8002d8c:	20000280 	.word	0x20000280
 8002d90:	200015a0 	.word	0x200015a0
 8002d94:	20020000 	.word	0x20020000
 8002d98:	00000400 	.word	0x00000400

08002d9c <SystemInit>:
 8002d9c:	4a03      	ldr	r2, [pc, #12]	; (8002dac <SystemInit+0x10>)
 8002d9e:	f8d2 3088 	ldr.w	r3, [r2, #136]	; 0x88
 8002da2:	f443 0370 	orr.w	r3, r3, #15728640	; 0xf00000
 8002da6:	f8c2 3088 	str.w	r3, [r2, #136]	; 0x88
 8002daa:	4770      	bx	lr
 8002dac:	e000ed00 	.word	0xe000ed00

08002db0 <MX_TIM10_Init>:
 8002db0:	b51f      	push	{r0, r1, r2, r3, r4, lr}
 8002db2:	2210      	movs	r2, #16
 8002db4:	2100      	movs	r1, #0
 8002db6:	4668      	mov	r0, sp
 8002db8:	f006 f88e 	bl	8008ed8 <memset>
 8002dbc:	4813      	ldr	r0, [pc, #76]	; (8002e0c <MX_TIM10_Init+0x5c>)
 8002dbe:	4a14      	ldr	r2, [pc, #80]	; (8002e10 <MX_TIM10_Init+0x60>)
 8002dc0:	2347      	movs	r3, #71	; 0x47
 8002dc2:	e9c0 2300 	strd	r2, r3, [r0]
 8002dc6:	2300      	movs	r3, #0
 8002dc8:	f64f 72ff 	movw	r2, #65535	; 0xffff
 8002dcc:	e9c0 3202 	strd	r3, r2, [r0, #8]
 8002dd0:	6103      	str	r3, [r0, #16]
 8002dd2:	6183      	str	r3, [r0, #24]
 8002dd4:	f003 fb62 	bl	800649c <HAL_TIM_Base_Init>
 8002dd8:	b108      	cbz	r0, 8002dde <MX_TIM10_Init+0x2e>
 8002dda:	f7ff fc6d 	bl	80026b8 <Error_Handler>
 8002dde:	480b      	ldr	r0, [pc, #44]	; (8002e0c <MX_TIM10_Init+0x5c>)
 8002de0:	f003 fc50 	bl	8006684 <HAL_TIM_IC_Init>
 8002de4:	b108      	cbz	r0, 8002dea <MX_TIM10_Init+0x3a>
 8002de6:	f7ff fc67 	bl	80026b8 <Error_Handler>
 8002dea:	2200      	movs	r2, #0
 8002dec:	2301      	movs	r3, #1
 8002dee:	4807      	ldr	r0, [pc, #28]	; (8002e0c <MX_TIM10_Init+0x5c>)
 8002df0:	4669      	mov	r1, sp
 8002df2:	e9cd 2300 	strd	r2, r3, [sp]
 8002df6:	e9cd 2202 	strd	r2, r2, [sp, #8]
 8002dfa:	f003 fe3b 	bl	8006a74 <HAL_TIM_IC_ConfigChannel>
 8002dfe:	b108      	cbz	r0, 8002e04 <MX_TIM10_Init+0x54>
 8002e00:	f7ff fc5a 	bl	80026b8 <Error_Handler>
 8002e04:	b005      	add	sp, #20
 8002e06:	f85d fb04 	ldr.w	pc, [sp], #4
 8002e0a:	bf00      	nop
 8002e0c:	20000e20 	.word	0x20000e20
 8002e10:	40014400 	.word	0x40014400

08002e14 <HAL_TIM_Base_MspInit>:
 8002e14:	b530      	push	{r4, r5, lr}
 8002e16:	4605      	mov	r5, r0
 8002e18:	b089      	sub	sp, #36	; 0x24
 8002e1a:	2214      	movs	r2, #20
 8002e1c:	2100      	movs	r1, #0
 8002e1e:	a803      	add	r0, sp, #12
 8002e20:	f006 f85a 	bl	8008ed8 <memset>
 8002e24:	682b      	ldr	r3, [r5, #0]
 8002e26:	4a2f      	ldr	r2, [pc, #188]	; (8002ee4 <HAL_TIM_Base_MspInit+0xd0>)
 8002e28:	4293      	cmp	r3, r2
 8002e2a:	d133      	bne.n	8002e94 <HAL_TIM_Base_MspInit+0x80>
 8002e2c:	2300      	movs	r3, #0
 8002e2e:	f502 329c 	add.w	r2, r2, #79872	; 0x13800
 8002e32:	9300      	str	r3, [sp, #0]
 8002e34:	6c51      	ldr	r1, [r2, #68]	; 0x44
 8002e36:	4c2c      	ldr	r4, [pc, #176]	; (8002ee8 <HAL_TIM_Base_MspInit+0xd4>)
 8002e38:	f041 0101 	orr.w	r1, r1, #1
 8002e3c:	6451      	str	r1, [r2, #68]	; 0x44
 8002e3e:	6c52      	ldr	r2, [r2, #68]	; 0x44
 8002e40:	492a      	ldr	r1, [pc, #168]	; (8002eec <HAL_TIM_Base_MspInit+0xd8>)
 8002e42:	f002 0201 	and.w	r2, r2, #1
 8002e46:	9200      	str	r2, [sp, #0]
 8002e48:	9a00      	ldr	r2, [sp, #0]
 8002e4a:	f04f 6240 	mov.w	r2, #201326592	; 0xc000000
 8002e4e:	e9c4 1200 	strd	r1, r2, [r4]
 8002e52:	2240      	movs	r2, #64	; 0x40
 8002e54:	f44f 6080 	mov.w	r0, #1024	; 0x400
 8002e58:	e9c4 2302 	strd	r2, r3, [r4, #8]
 8002e5c:	f44f 6200 	mov.w	r2, #2048	; 0x800
 8002e60:	e9c4 0204 	strd	r0, r2, [r4, #16]
 8002e64:	f44f 5200 	mov.w	r2, #8192	; 0x2000
 8002e68:	4620      	mov	r0, r4
 8002e6a:	e9c4 2306 	strd	r2, r3, [r4, #24]
 8002e6e:	e9c4 3308 	strd	r3, r3, [r4, #32]
 8002e72:	f000 fbf9 	bl	8003668 <HAL_DMA_Init>
 8002e76:	b108      	cbz	r0, 8002e7c <HAL_TIM_Base_MspInit+0x68>
 8002e78:	f7ff fc1e 	bl	80026b8 <Error_Handler>
 8002e7c:	626c      	str	r4, [r5, #36]	; 0x24
 8002e7e:	2200      	movs	r2, #0
 8002e80:	63a5      	str	r5, [r4, #56]	; 0x38
 8002e82:	2019      	movs	r0, #25
 8002e84:	4611      	mov	r1, r2
 8002e86:	f000 fb6b 	bl	8003560 <HAL_NVIC_SetPriority>
 8002e8a:	2019      	movs	r0, #25
 8002e8c:	f000 fbac 	bl	80035e8 <HAL_NVIC_EnableIRQ>
 8002e90:	b009      	add	sp, #36	; 0x24
 8002e92:	bd30      	pop	{r4, r5, pc}
 8002e94:	4a16      	ldr	r2, [pc, #88]	; (8002ef0 <HAL_TIM_Base_MspInit+0xdc>)
 8002e96:	4293      	cmp	r3, r2
 8002e98:	d1fa      	bne.n	8002e90 <HAL_TIM_Base_MspInit+0x7c>
 8002e9a:	4b16      	ldr	r3, [pc, #88]	; (8002ef4 <HAL_TIM_Base_MspInit+0xe0>)
 8002e9c:	4816      	ldr	r0, [pc, #88]	; (8002ef8 <HAL_TIM_Base_MspInit+0xe4>)
 8002e9e:	2400      	movs	r4, #0
 8002ea0:	9401      	str	r4, [sp, #4]
 8002ea2:	6c5a      	ldr	r2, [r3, #68]	; 0x44
 8002ea4:	f442 3200 	orr.w	r2, r2, #131072	; 0x20000
 8002ea8:	645a      	str	r2, [r3, #68]	; 0x44
 8002eaa:	6c5a      	ldr	r2, [r3, #68]	; 0x44
 8002eac:	f402 3200 	and.w	r2, r2, #131072	; 0x20000
 8002eb0:	9201      	str	r2, [sp, #4]
 8002eb2:	9a01      	ldr	r2, [sp, #4]
 8002eb4:	9402      	str	r4, [sp, #8]
 8002eb6:	6b1a      	ldr	r2, [r3, #48]	; 0x30
 8002eb8:	f042 0202 	orr.w	r2, r2, #2
 8002ebc:	631a      	str	r2, [r3, #48]	; 0x30
 8002ebe:	6b1b      	ldr	r3, [r3, #48]	; 0x30
 8002ec0:	f003 0302 	and.w	r3, r3, #2
 8002ec4:	9302      	str	r3, [sp, #8]
 8002ec6:	f44f 7280 	mov.w	r2, #256	; 0x100
 8002eca:	9b02      	ldr	r3, [sp, #8]
 8002ecc:	2302      	movs	r3, #2
 8002ece:	e9cd 2303 	strd	r2, r3, [sp, #12]
 8002ed2:	a903      	add	r1, sp, #12
 8002ed4:	2303      	movs	r3, #3
 8002ed6:	e9cd 4405 	strd	r4, r4, [sp, #20]
 8002eda:	9307      	str	r3, [sp, #28]
 8002edc:	f000 fe10 	bl	8003b00 <HAL_GPIO_Init>
 8002ee0:	4622      	mov	r2, r4
 8002ee2:	e7ce      	b.n	8002e82 <HAL_TIM_Base_MspInit+0x6e>
 8002ee4:	40010000 	.word	0x40010000
 8002ee8:	20000dc0 	.word	0x20000dc0
 8002eec:	40026428 	.word	0x40026428
 8002ef0:	40014400 	.word	0x40014400
 8002ef4:	40023800 	.word	0x40023800
 8002ef8:	40020400 	.word	0x40020400

08002efc <HAL_TIM_MspPostInit>:
 8002efc:	b510      	push	{r4, lr}
 8002efe:	4604      	mov	r4, r0
 8002f00:	b086      	sub	sp, #24
 8002f02:	2214      	movs	r2, #20
 8002f04:	2100      	movs	r1, #0
 8002f06:	a801      	add	r0, sp, #4
 8002f08:	f005 ffe6 	bl	8008ed8 <memset>
 8002f0c:	6822      	ldr	r2, [r4, #0]
 8002f0e:	4b0f      	ldr	r3, [pc, #60]	; (8002f4c <HAL_TIM_MspPostInit+0x50>)
 8002f10:	429a      	cmp	r2, r3
 8002f12:	d118      	bne.n	8002f46 <HAL_TIM_MspPostInit+0x4a>
 8002f14:	4a0e      	ldr	r2, [pc, #56]	; (8002f50 <HAL_TIM_MspPostInit+0x54>)
 8002f16:	480f      	ldr	r0, [pc, #60]	; (8002f54 <HAL_TIM_MspPostInit+0x58>)
 8002f18:	2300      	movs	r3, #0
 8002f1a:	9300      	str	r3, [sp, #0]
 8002f1c:	6b11      	ldr	r1, [r2, #48]	; 0x30
 8002f1e:	f041 0101 	orr.w	r1, r1, #1
 8002f22:	6311      	str	r1, [r2, #48]	; 0x30
 8002f24:	6b12      	ldr	r2, [r2, #48]	; 0x30
 8002f26:	f002 0201 	and.w	r2, r2, #1
 8002f2a:	9200      	str	r2, [sp, #0]
 8002f2c:	f44f 7180 	mov.w	r1, #256	; 0x100
 8002f30:	9a00      	ldr	r2, [sp, #0]
 8002f32:	2202      	movs	r2, #2
 8002f34:	e9cd 1201 	strd	r1, r2, [sp, #4]
 8002f38:	e9cd 3303 	strd	r3, r3, [sp, #12]
 8002f3c:	a901      	add	r1, sp, #4
 8002f3e:	2301      	movs	r3, #1
 8002f40:	9305      	str	r3, [sp, #20]
 8002f42:	f000 fddd 	bl	8003b00 <HAL_GPIO_Init>
 8002f46:	b006      	add	sp, #24
 8002f48:	bd10      	pop	{r4, pc}
 8002f4a:	bf00      	nop
 8002f4c:	40010000 	.word	0x40010000
 8002f50:	40023800 	.word	0x40023800
 8002f54:	40020000 	.word	0x40020000

08002f58 <MX_TIM1_Init>:
 8002f58:	b510      	push	{r4, lr}
 8002f5a:	b096      	sub	sp, #88	; 0x58
 8002f5c:	2210      	movs	r2, #16
 8002f5e:	2100      	movs	r1, #0
 8002f60:	a803      	add	r0, sp, #12
 8002f62:	2400      	movs	r4, #0
 8002f64:	f005 ffb8 	bl	8008ed8 <memset>
 8002f68:	221c      	movs	r2, #28
 8002f6a:	4621      	mov	r1, r4
 8002f6c:	eb0d 0002 	add.w	r0, sp, r2
 8002f70:	e9cd 4401 	strd	r4, r4, [sp, #4]
 8002f74:	f005 ffb0 	bl	8008ed8 <memset>
 8002f78:	2220      	movs	r2, #32
 8002f7a:	4621      	mov	r1, r4
 8002f7c:	a80e      	add	r0, sp, #56	; 0x38
 8002f7e:	f005 ffab 	bl	8008ed8 <memset>
 8002f82:	4827      	ldr	r0, [pc, #156]	; (8003020 <MX_TIM1_Init+0xc8>)
 8002f84:	4b27      	ldr	r3, [pc, #156]	; (8003024 <MX_TIM1_Init+0xcc>)
 8002f86:	6084      	str	r4, [r0, #8]
 8002f88:	e9c0 3400 	strd	r3, r4, [r0]
 8002f8c:	2359      	movs	r3, #89	; 0x59
 8002f8e:	e9c0 3403 	strd	r3, r4, [r0, #12]
 8002f92:	e9c0 4405 	strd	r4, r4, [r0, #20]
 8002f96:	f003 fa81 	bl	800649c <HAL_TIM_Base_Init>
 8002f9a:	b108      	cbz	r0, 8002fa0 <MX_TIM1_Init+0x48>
 8002f9c:	f7ff fb8c 	bl	80026b8 <Error_Handler>
 8002fa0:	f44f 5380 	mov.w	r3, #4096	; 0x1000
 8002fa4:	481e      	ldr	r0, [pc, #120]	; (8003020 <MX_TIM1_Init+0xc8>)
 8002fa6:	9303      	str	r3, [sp, #12]
 8002fa8:	a903      	add	r1, sp, #12
 8002faa:	f003 fe9b 	bl	8006ce4 <HAL_TIM_ConfigClockSource>
 8002fae:	b108      	cbz	r0, 8002fb4 <MX_TIM1_Init+0x5c>
 8002fb0:	f7ff fb82 	bl	80026b8 <Error_Handler>
 8002fb4:	481a      	ldr	r0, [pc, #104]	; (8003020 <MX_TIM1_Init+0xc8>)
 8002fb6:	f003 faeb 	bl	8006590 <HAL_TIM_PWM_Init>
 8002fba:	b108      	cbz	r0, 8002fc0 <MX_TIM1_Init+0x68>
 8002fbc:	f7ff fb7c 	bl	80026b8 <Error_Handler>
 8002fc0:	2400      	movs	r4, #0
 8002fc2:	4817      	ldr	r0, [pc, #92]	; (8003020 <MX_TIM1_Init+0xc8>)
 8002fc4:	a901      	add	r1, sp, #4
 8002fc6:	e9cd 4401 	strd	r4, r4, [sp, #4]
 8002fca:	f004 fa75 	bl	80074b8 <HAL_TIMEx_MasterConfigSynchronization>
 8002fce:	b108      	cbz	r0, 8002fd4 <MX_TIM1_Init+0x7c>
 8002fd0:	f7ff fb72 	bl	80026b8 <Error_Handler>
 8002fd4:	2360      	movs	r3, #96	; 0x60
 8002fd6:	4812      	ldr	r0, [pc, #72]	; (8003020 <MX_TIM1_Init+0xc8>)
 8002fd8:	940d      	str	r4, [sp, #52]	; 0x34
 8002fda:	2200      	movs	r2, #0
 8002fdc:	a907      	add	r1, sp, #28
 8002fde:	e9cd 3407 	strd	r3, r4, [sp, #28]
 8002fe2:	e9cd 4409 	strd	r4, r4, [sp, #36]	; 0x24
 8002fe6:	e9cd 440b 	strd	r4, r4, [sp, #44]	; 0x2c
 8002fea:	f003 fc13 	bl	8006814 <HAL_TIM_PWM_ConfigChannel>
 8002fee:	b108      	cbz	r0, 8002ff4 <MX_TIM1_Init+0x9c>
 8002ff0:	f7ff fb62 	bl	80026b8 <Error_Handler>
 8002ff4:	2300      	movs	r3, #0
 8002ff6:	f44f 5200 	mov.w	r2, #8192	; 0x2000
 8002ffa:	4809      	ldr	r0, [pc, #36]	; (8003020 <MX_TIM1_Init+0xc8>)
 8002ffc:	9312      	str	r3, [sp, #72]	; 0x48
 8002ffe:	a90e      	add	r1, sp, #56	; 0x38
 8003000:	e9cd 330e 	strd	r3, r3, [sp, #56]	; 0x38
 8003004:	e9cd 3310 	strd	r3, r3, [sp, #64]	; 0x40
 8003008:	9213      	str	r2, [sp, #76]	; 0x4c
 800300a:	9315      	str	r3, [sp, #84]	; 0x54
 800300c:	f004 faba 	bl	8007584 <HAL_TIMEx_ConfigBreakDeadTime>
 8003010:	b108      	cbz	r0, 8003016 <MX_TIM1_Init+0xbe>
 8003012:	f7ff fb51 	bl	80026b8 <Error_Handler>
 8003016:	4802      	ldr	r0, [pc, #8]	; (8003020 <MX_TIM1_Init+0xc8>)
 8003018:	f7ff ff70 	bl	8002efc <HAL_TIM_MspPostInit>
 800301c:	b016      	add	sp, #88	; 0x58
 800301e:	bd10      	pop	{r4, pc}
 8003020:	20000e68 	.word	0x20000e68
 8003024:	40010000 	.word	0x40010000

08003028 <Reset_Handler>:
 8003028:	f8df d034 	ldr.w	sp, [pc, #52]	; 8003060 <LoopFillZerobss+0x12>
 800302c:	480d      	ldr	r0, [pc, #52]	; (8003064 <LoopFillZerobss+0x16>)
 800302e:	490e      	ldr	r1, [pc, #56]	; (8003068 <LoopFillZerobss+0x1a>)
 8003030:	4a0e      	ldr	r2, [pc, #56]	; (800306c <LoopFillZerobss+0x1e>)
 8003032:	2300      	movs	r3, #0
 8003034:	e002      	b.n	800303c <LoopCopyDataInit>

08003036 <CopyDataInit>:
 8003036:	58d4      	ldr	r4, [r2, r3]
 8003038:	50c4      	str	r4, [r0, r3]
 800303a:	3304      	adds	r3, #4

0800303c <LoopCopyDataInit>:
 800303c:	18c4      	adds	r4, r0, r3
 800303e:	428c      	cmp	r4, r1
 8003040:	d3f9      	bcc.n	8003036 <CopyDataInit>
 8003042:	4a0b      	ldr	r2, [pc, #44]	; (8003070 <LoopFillZerobss+0x22>)
 8003044:	4c0b      	ldr	r4, [pc, #44]	; (8003074 <LoopFillZerobss+0x26>)
 8003046:	2300      	movs	r3, #0
 8003048:	e001      	b.n	800304e <LoopFillZerobss>

0800304a <FillZerobss>:
 800304a:	6013      	str	r3, [r2, #0]
 800304c:	3204      	adds	r2, #4

0800304e <LoopFillZerobss>:
 800304e:	42a2      	cmp	r2, r4
 8003050:	d3fb      	bcc.n	800304a <FillZerobss>
 8003052:	f7ff fea3 	bl	8002d9c <SystemInit>
 8003056:	f005 ff0b 	bl	8008e70 <__libc_init_array>
 800305a:	f7ff fa61 	bl	8002520 <main>
 800305e:	4770      	bx	lr
 8003060:	20020000 	.word	0x20020000
 8003064:	20000000 	.word	0x20000000
 8003068:	20000168 	.word	0x20000168
 800306c:	08009a28 	.word	0x08009a28
 8003070:	20000168 	.word	0x20000168
 8003074:	200015a0 	.word	0x200015a0

08003078 <ADC_IRQHandler>:
 8003078:	e7fe      	b.n	8003078 <ADC_IRQHandler>
	...

0800307c <HAL_InitTick>:
 800307c:	b538      	push	{r3, r4, r5, lr}
 800307e:	4a0e      	ldr	r2, [pc, #56]	; (80030b8 <HAL_InitTick+0x3c>)
 8003080:	4b0e      	ldr	r3, [pc, #56]	; (80030bc <HAL_InitTick+0x40>)
 8003082:	4605      	mov	r5, r0
 8003084:	7818      	ldrb	r0, [r3, #0]
 8003086:	f44f 737a 	mov.w	r3, #1000	; 0x3e8
 800308a:	fbb3 f3f0 	udiv	r3, r3, r0
 800308e:	6810      	ldr	r0, [r2, #0]
 8003090:	fbb0 f0f3 	udiv	r0, r0, r3
 8003094:	f000 fabc 	bl	8003610 <HAL_SYSTICK_Config>
 8003098:	4604      	mov	r4, r0
 800309a:	b958      	cbnz	r0, 80030b4 <HAL_InitTick+0x38>
 800309c:	2d0f      	cmp	r5, #15
 800309e:	d809      	bhi.n	80030b4 <HAL_InitTick+0x38>
 80030a0:	4602      	mov	r2, r0
 80030a2:	4629      	mov	r1, r5
 80030a4:	f04f 30ff 	mov.w	r0, #4294967295	; 0xffffffff
 80030a8:	f000 fa5a 	bl	8003560 <HAL_NVIC_SetPriority>
 80030ac:	4b04      	ldr	r3, [pc, #16]	; (80030c0 <HAL_InitTick+0x44>)
 80030ae:	4620      	mov	r0, r4
 80030b0:	601d      	str	r5, [r3, #0]
 80030b2:	bd38      	pop	{r3, r4, r5, pc}
 80030b4:	2001      	movs	r0, #1
 80030b6:	e7fc      	b.n	80030b2 <HAL_InitTick+0x36>
 80030b8:	200000d8 	.word	0x200000d8
 80030bc:	200000dc 	.word	0x200000dc
 80030c0:	200000e0 	.word	0x200000e0

080030c4 <HAL_Init>:
 80030c4:	b508      	push	{r3, lr}
 80030c6:	4b0b      	ldr	r3, [pc, #44]	; (80030f4 <HAL_Init+0x30>)
 80030c8:	681a      	ldr	r2, [r3, #0]
 80030ca:	f442 7200 	orr.w	r2, r2, #512	; 0x200
 80030ce:	601a      	str	r2, [r3, #0]
 80030d0:	681a      	ldr	r2, [r3, #0]
 80030d2:	f442 6280 	orr.w	r2, r2, #1024	; 0x400
 80030d6:	601a      	str	r2, [r3, #0]
 80030d8:	681a      	ldr	r2, [r3, #0]
 80030da:	f442 7280 	orr.w	r2, r2, #256	; 0x100
 80030de:	601a      	str	r2, [r3, #0]
 80030e0:	2003      	movs	r0, #3
 80030e2:	f000 fa21 	bl	8003528 <HAL_NVIC_SetPriorityGrouping>
 80030e6:	2000      	movs	r0, #0
 80030e8:	f7ff ffc8 	bl	800307c <HAL_InitTick>
 80030ec:	f7ff fdea 	bl	8002cc4 <HAL_MspInit>
 80030f0:	2000      	movs	r0, #0
 80030f2:	bd08      	pop	{r3, pc}
 80030f4:	40023c00 	.word	0x40023c00

080030f8 <HAL_IncTick>:
 80030f8:	4a03      	ldr	r2, [pc, #12]	; (8003108 <HAL_IncTick+0x10>)
 80030fa:	4b04      	ldr	r3, [pc, #16]	; (800310c <HAL_IncTick+0x14>)
 80030fc:	6811      	ldr	r1, [r2, #0]
 80030fe:	781b      	ldrb	r3, [r3, #0]
 8003100:	440b      	add	r3, r1
 8003102:	6013      	str	r3, [r2, #0]
 8003104:	4770      	bx	lr
 8003106:	bf00      	nop
 8003108:	20000eb0 	.word	0x20000eb0
 800310c:	200000dc 	.word	0x200000dc

08003110 <HAL_GetTick>:
 8003110:	4b01      	ldr	r3, [pc, #4]	; (8003118 <HAL_GetTick+0x8>)
 8003112:	6818      	ldr	r0, [r3, #0]
 8003114:	4770      	bx	lr
 8003116:	bf00      	nop
 8003118:	20000eb0 	.word	0x20000eb0

0800311c <HAL_Delay>:
 800311c:	b538      	push	{r3, r4, r5, lr}
 800311e:	4604      	mov	r4, r0
 8003120:	f7ff fff6 	bl	8003110 <HAL_GetTick>
 8003124:	1c63      	adds	r3, r4, #1
 8003126:	bf1c      	itt	ne
 8003128:	4b05      	ldrne	r3, [pc, #20]	; (8003140 <HAL_Delay+0x24>)
 800312a:	781b      	ldrbne	r3, [r3, #0]
 800312c:	4605      	mov	r5, r0
 800312e:	bf18      	it	ne
 8003130:	18e4      	addne	r4, r4, r3
 8003132:	f7ff ffed 	bl	8003110 <HAL_GetTick>
 8003136:	1b43      	subs	r3, r0, r5
 8003138:	42a3      	cmp	r3, r4
 800313a:	d3fa      	bcc.n	8003132 <HAL_Delay+0x16>
 800313c:	bd38      	pop	{r3, r4, r5, pc}
 800313e:	bf00      	nop
 8003140:	200000dc 	.word	0x200000dc

08003144 <HAL_ADC_Init>:
 8003144:	b538      	push	{r3, r4, r5, lr}
 8003146:	4604      	mov	r4, r0
 8003148:	2800      	cmp	r0, #0
 800314a:	f000 8126 	beq.w	800339a <HAL_ADC_Init+0x256>
 800314e:	6802      	ldr	r2, [r0, #0]
 8003150:	4b93      	ldr	r3, [pc, #588]	; (80033a0 <HAL_ADC_Init+0x25c>)
 8003152:	429a      	cmp	r2, r3
 8003154:	d004      	beq.n	8003160 <HAL_ADC_Init+0x1c>
 8003156:	4893      	ldr	r0, [pc, #588]	; (80033a4 <HAL_ADC_Init+0x260>)
 8003158:	f240 1143 	movw	r1, #323	; 0x143
 800315c:	f7ff faae 	bl	80026bc <assert_failed>
 8003160:	6863      	ldr	r3, [r4, #4]
 8003162:	f433 3340 	bics.w	r3, r3, #196608	; 0x30000
 8003166:	d004      	beq.n	8003172 <HAL_ADC_Init+0x2e>
 8003168:	488e      	ldr	r0, [pc, #568]	; (80033a4 <HAL_ADC_Init+0x260>)
 800316a:	f44f 71a2 	mov.w	r1, #324	; 0x144
 800316e:	f7ff faa5 	bl	80026bc <assert_failed>
 8003172:	68a3      	ldr	r3, [r4, #8]
 8003174:	f033 7340 	bics.w	r3, r3, #50331648	; 0x3000000
 8003178:	d004      	beq.n	8003184 <HAL_ADC_Init+0x40>
 800317a:	488a      	ldr	r0, [pc, #552]	; (80033a4 <HAL_ADC_Init+0x260>)
 800317c:	f240 1145 	movw	r1, #325	; 0x145
 8003180:	f7ff fa9c 	bl	80026bc <assert_failed>
 8003184:	6923      	ldr	r3, [r4, #16]
 8003186:	2b01      	cmp	r3, #1
 8003188:	d904      	bls.n	8003194 <HAL_ADC_Init+0x50>
 800318a:	4886      	ldr	r0, [pc, #536]	; (80033a4 <HAL_ADC_Init+0x260>)
 800318c:	f44f 71a3 	mov.w	r1, #326	; 0x146
 8003190:	f7ff fa94 	bl	80026bc <assert_failed>
 8003194:	7e23      	ldrb	r3, [r4, #24]
 8003196:	2b01      	cmp	r3, #1
 8003198:	d904      	bls.n	80031a4 <HAL_ADC_Init+0x60>
 800319a:	4882      	ldr	r0, [pc, #520]	; (80033a4 <HAL_ADC_Init+0x260>)
 800319c:	f240 1147 	movw	r1, #327	; 0x147
 80031a0:	f7ff fa8c 	bl	80026bc <assert_failed>
 80031a4:	6aa3      	ldr	r3, [r4, #40]	; 0x28
 80031a6:	f033 7240 	bics.w	r2, r3, #50331648	; 0x3000000
 80031aa:	f023 7180 	bic.w	r1, r3, #16777216	; 0x1000000
 80031ae:	d014      	beq.n	80031da <HAL_ADC_Init+0x96>
 80031b0:	f1b2 6f80 	cmp.w	r2, #67108864	; 0x4000000
 80031b4:	d011      	beq.n	80031da <HAL_ADC_Init+0x96>
 80031b6:	f1b2 6f00 	cmp.w	r2, #134217728	; 0x8000000
 80031ba:	d00e      	beq.n	80031da <HAL_ADC_Init+0x96>
 80031bc:	f1b1 6f40 	cmp.w	r1, #201326592	; 0xc000000
 80031c0:	d00b      	beq.n	80031da <HAL_ADC_Init+0x96>
 80031c2:	f1b3 6f60 	cmp.w	r3, #234881024	; 0xe000000
 80031c6:	d008      	beq.n	80031da <HAL_ADC_Init+0x96>
 80031c8:	f103 4371 	add.w	r3, r3, #4043309056	; 0xf1000000
 80031cc:	2b01      	cmp	r3, #1
 80031ce:	d904      	bls.n	80031da <HAL_ADC_Init+0x96>
 80031d0:	4874      	ldr	r0, [pc, #464]	; (80033a4 <HAL_ADC_Init+0x260>)
 80031d2:	f44f 71a4 	mov.w	r1, #328	; 0x148
 80031d6:	f7ff fa71 	bl	80026bc <assert_failed>
 80031da:	68e3      	ldr	r3, [r4, #12]
 80031dc:	f433 6300 	bics.w	r3, r3, #2048	; 0x800
 80031e0:	d004      	beq.n	80031ec <HAL_ADC_Init+0xa8>
 80031e2:	4870      	ldr	r0, [pc, #448]	; (80033a4 <HAL_ADC_Init+0x260>)
 80031e4:	f240 1149 	movw	r1, #329	; 0x149
 80031e8:	f7ff fa68 	bl	80026bc <assert_failed>
 80031ec:	69e3      	ldr	r3, [r4, #28]
 80031ee:	3b01      	subs	r3, #1
 80031f0:	2b0f      	cmp	r3, #15
 80031f2:	d904      	bls.n	80031fe <HAL_ADC_Init+0xba>
 80031f4:	486b      	ldr	r0, [pc, #428]	; (80033a4 <HAL_ADC_Init+0x260>)
 80031f6:	f44f 71a5 	mov.w	r1, #330	; 0x14a
 80031fa:	f7ff fa5f 	bl	80026bc <assert_failed>
 80031fe:	f894 3030 	ldrb.w	r3, [r4, #48]	; 0x30
 8003202:	2b01      	cmp	r3, #1
 8003204:	d904      	bls.n	8003210 <HAL_ADC_Init+0xcc>
 8003206:	4867      	ldr	r0, [pc, #412]	; (80033a4 <HAL_ADC_Init+0x260>)
 8003208:	f240 114b 	movw	r1, #331	; 0x14b
 800320c:	f7ff fa56 	bl	80026bc <assert_failed>
 8003210:	6963      	ldr	r3, [r4, #20]
 8003212:	2b02      	cmp	r3, #2
 8003214:	d904      	bls.n	8003220 <HAL_ADC_Init+0xdc>
 8003216:	4863      	ldr	r0, [pc, #396]	; (80033a4 <HAL_ADC_Init+0x260>)
 8003218:	f44f 71a6 	mov.w	r1, #332	; 0x14c
 800321c:	f7ff fa4e 	bl	80026bc <assert_failed>
 8003220:	f894 3020 	ldrb.w	r3, [r4, #32]
 8003224:	2b01      	cmp	r3, #1
 8003226:	d904      	bls.n	8003232 <HAL_ADC_Init+0xee>
 8003228:	485e      	ldr	r0, [pc, #376]	; (80033a4 <HAL_ADC_Init+0x260>)
 800322a:	f240 114d 	movw	r1, #333	; 0x14d
 800322e:	f7ff fa45 	bl	80026bc <assert_failed>
 8003232:	6aa2      	ldr	r2, [r4, #40]	; 0x28
 8003234:	4b5c      	ldr	r3, [pc, #368]	; (80033a8 <HAL_ADC_Init+0x264>)
 8003236:	429a      	cmp	r2, r3
 8003238:	d008      	beq.n	800324c <HAL_ADC_Init+0x108>
 800323a:	6ae3      	ldr	r3, [r4, #44]	; 0x2c
 800323c:	f033 5340 	bics.w	r3, r3, #805306368	; 0x30000000
 8003240:	d004      	beq.n	800324c <HAL_ADC_Init+0x108>
 8003242:	4858      	ldr	r0, [pc, #352]	; (80033a4 <HAL_ADC_Init+0x260>)
 8003244:	f240 1151 	movw	r1, #337	; 0x151
 8003248:	f7ff fa38 	bl	80026bc <assert_failed>
 800324c:	6c25      	ldr	r5, [r4, #64]	; 0x40
 800324e:	b92d      	cbnz	r5, 800325c <HAL_ADC_Init+0x118>
 8003250:	4620      	mov	r0, r4
 8003252:	f7fe fabd 	bl	80017d0 <HAL_ADC_MspInit>
 8003256:	6465      	str	r5, [r4, #68]	; 0x44
 8003258:	f884 503c 	strb.w	r5, [r4, #60]	; 0x3c
 800325c:	6c23      	ldr	r3, [r4, #64]	; 0x40
 800325e:	06db      	lsls	r3, r3, #27
 8003260:	f100 8099 	bmi.w	8003396 <HAL_ADC_Init+0x252>
 8003264:	6c23      	ldr	r3, [r4, #64]	; 0x40
 8003266:	f423 5388 	bic.w	r3, r3, #4352	; 0x1100
 800326a:	f023 0302 	bic.w	r3, r3, #2
 800326e:	f043 0302 	orr.w	r3, r3, #2
 8003272:	6423      	str	r3, [r4, #64]	; 0x40
 8003274:	4b4d      	ldr	r3, [pc, #308]	; (80033ac <HAL_ADC_Init+0x268>)
 8003276:	685a      	ldr	r2, [r3, #4]
 8003278:	f422 3240 	bic.w	r2, r2, #196608	; 0x30000
 800327c:	605a      	str	r2, [r3, #4]
 800327e:	685a      	ldr	r2, [r3, #4]
 8003280:	6861      	ldr	r1, [r4, #4]
 8003282:	430a      	orrs	r2, r1
 8003284:	605a      	str	r2, [r3, #4]
 8003286:	6823      	ldr	r3, [r4, #0]
 8003288:	6921      	ldr	r1, [r4, #16]
 800328a:	685a      	ldr	r2, [r3, #4]
 800328c:	f422 7280 	bic.w	r2, r2, #256	; 0x100
 8003290:	605a      	str	r2, [r3, #4]
 8003292:	685a      	ldr	r2, [r3, #4]
 8003294:	ea42 2201 	orr.w	r2, r2, r1, lsl #8
 8003298:	605a      	str	r2, [r3, #4]
 800329a:	685a      	ldr	r2, [r3, #4]
 800329c:	68a1      	ldr	r1, [r4, #8]
 800329e:	f022 7240 	bic.w	r2, r2, #50331648	; 0x3000000
 80032a2:	605a      	str	r2, [r3, #4]
 80032a4:	685a      	ldr	r2, [r3, #4]
 80032a6:	430a      	orrs	r2, r1
 80032a8:	605a      	str	r2, [r3, #4]
 80032aa:	689a      	ldr	r2, [r3, #8]
 80032ac:	68e1      	ldr	r1, [r4, #12]
 80032ae:	f422 6200 	bic.w	r2, r2, #2048	; 0x800
 80032b2:	609a      	str	r2, [r3, #8]
 80032b4:	689a      	ldr	r2, [r3, #8]
 80032b6:	430a      	orrs	r2, r1
 80032b8:	609a      	str	r2, [r3, #8]
 80032ba:	493b      	ldr	r1, [pc, #236]	; (80033a8 <HAL_ADC_Init+0x264>)
 80032bc:	6aa2      	ldr	r2, [r4, #40]	; 0x28
 80032be:	428a      	cmp	r2, r1
 80032c0:	d05d      	beq.n	800337e <HAL_ADC_Init+0x23a>
 80032c2:	6899      	ldr	r1, [r3, #8]
 80032c4:	f021 6170 	bic.w	r1, r1, #251658240	; 0xf000000
 80032c8:	6099      	str	r1, [r3, #8]
 80032ca:	6899      	ldr	r1, [r3, #8]
 80032cc:	430a      	orrs	r2, r1
 80032ce:	609a      	str	r2, [r3, #8]
 80032d0:	689a      	ldr	r2, [r3, #8]
 80032d2:	6ae1      	ldr	r1, [r4, #44]	; 0x2c
 80032d4:	f022 5240 	bic.w	r2, r2, #805306368	; 0x30000000
 80032d8:	609a      	str	r2, [r3, #8]
 80032da:	689a      	ldr	r2, [r3, #8]
 80032dc:	430a      	orrs	r2, r1
 80032de:	609a      	str	r2, [r3, #8]
 80032e0:	689a      	ldr	r2, [r3, #8]
 80032e2:	f022 0202 	bic.w	r2, r2, #2
 80032e6:	609a      	str	r2, [r3, #8]
 80032e8:	689a      	ldr	r2, [r3, #8]
 80032ea:	7e21      	ldrb	r1, [r4, #24]
 80032ec:	ea42 0241 	orr.w	r2, r2, r1, lsl #1
 80032f0:	609a      	str	r2, [r3, #8]
 80032f2:	f894 2020 	ldrb.w	r2, [r4, #32]
 80032f6:	2a00      	cmp	r2, #0
 80032f8:	d049      	beq.n	800338e <HAL_ADC_Init+0x24a>
 80032fa:	6a63      	ldr	r3, [r4, #36]	; 0x24
 80032fc:	3b01      	subs	r3, #1
 80032fe:	2b07      	cmp	r3, #7
 8003300:	d904      	bls.n	800330c <HAL_ADC_Init+0x1c8>
 8003302:	4828      	ldr	r0, [pc, #160]	; (80033a4 <HAL_ADC_Init+0x260>)
 8003304:	f240 71a6 	movw	r1, #1958	; 0x7a6
 8003308:	f7ff f9d8 	bl	80026bc <assert_failed>
 800330c:	6823      	ldr	r3, [r4, #0]
 800330e:	6a61      	ldr	r1, [r4, #36]	; 0x24
 8003310:	685a      	ldr	r2, [r3, #4]
 8003312:	f442 6200 	orr.w	r2, r2, #2048	; 0x800
 8003316:	605a      	str	r2, [r3, #4]
 8003318:	685a      	ldr	r2, [r3, #4]
 800331a:	f422 4260 	bic.w	r2, r2, #57344	; 0xe000
 800331e:	605a      	str	r2, [r3, #4]
 8003320:	685a      	ldr	r2, [r3, #4]
 8003322:	3901      	subs	r1, #1
 8003324:	ea42 3241 	orr.w	r2, r2, r1, lsl #13
 8003328:	605a      	str	r2, [r3, #4]
 800332a:	6823      	ldr	r3, [r4, #0]
 800332c:	69e1      	ldr	r1, [r4, #28]
 800332e:	6ada      	ldr	r2, [r3, #44]	; 0x2c
 8003330:	f422 0270 	bic.w	r2, r2, #15728640	; 0xf00000
 8003334:	62da      	str	r2, [r3, #44]	; 0x2c
 8003336:	6ada      	ldr	r2, [r3, #44]	; 0x2c
 8003338:	3901      	subs	r1, #1
 800333a:	ea42 5201 	orr.w	r2, r2, r1, lsl #20
 800333e:	62da      	str	r2, [r3, #44]	; 0x2c
 8003340:	689a      	ldr	r2, [r3, #8]
 8003342:	f422 7200 	bic.w	r2, r2, #512	; 0x200
 8003346:	609a      	str	r2, [r3, #8]
 8003348:	689a      	ldr	r2, [r3, #8]
 800334a:	f894 1030 	ldrb.w	r1, [r4, #48]	; 0x30
 800334e:	ea42 2241 	orr.w	r2, r2, r1, lsl #9
 8003352:	609a      	str	r2, [r3, #8]
 8003354:	689a      	ldr	r2, [r3, #8]
 8003356:	6961      	ldr	r1, [r4, #20]
 8003358:	f422 6280 	bic.w	r2, r2, #1024	; 0x400
 800335c:	609a      	str	r2, [r3, #8]
 800335e:	689a      	ldr	r2, [r3, #8]
 8003360:	2000      	movs	r0, #0
 8003362:	ea42 2281 	orr.w	r2, r2, r1, lsl #10
 8003366:	609a      	str	r2, [r3, #8]
 8003368:	6460      	str	r0, [r4, #68]	; 0x44
 800336a:	6c23      	ldr	r3, [r4, #64]	; 0x40
 800336c:	f023 0303 	bic.w	r3, r3, #3
 8003370:	f043 0301 	orr.w	r3, r3, #1
 8003374:	6423      	str	r3, [r4, #64]	; 0x40
 8003376:	2300      	movs	r3, #0
 8003378:	f884 303c 	strb.w	r3, [r4, #60]	; 0x3c
 800337c:	bd38      	pop	{r3, r4, r5, pc}
 800337e:	689a      	ldr	r2, [r3, #8]
 8003380:	f022 6270 	bic.w	r2, r2, #251658240	; 0xf000000
 8003384:	609a      	str	r2, [r3, #8]
 8003386:	689a      	ldr	r2, [r3, #8]
 8003388:	f022 5240 	bic.w	r2, r2, #805306368	; 0x30000000
 800338c:	e7a7      	b.n	80032de <HAL_ADC_Init+0x19a>
 800338e:	685a      	ldr	r2, [r3, #4]
 8003390:	f422 6200 	bic.w	r2, r2, #2048	; 0x800
 8003394:	e7c8      	b.n	8003328 <HAL_ADC_Init+0x1e4>
 8003396:	2001      	movs	r0, #1
 8003398:	e7ed      	b.n	8003376 <HAL_ADC_Init+0x232>
 800339a:	2001      	movs	r0, #1
 800339c:	e7ee      	b.n	800337c <HAL_ADC_Init+0x238>
 800339e:	bf00      	nop
 80033a0:	40012000 	.word	0x40012000
 80033a4:	080096ce 	.word	0x080096ce
 80033a8:	0f000001 	.word	0x0f000001
 80033ac:	40012300 	.word	0x40012300

080033b0 <HAL_ADC_ConfigChannel>:
 80033b0:	b5f7      	push	{r0, r1, r2, r4, r5, r6, r7, lr}
 80033b2:	2300      	movs	r3, #0
 80033b4:	9301      	str	r3, [sp, #4]
 80033b6:	680b      	ldr	r3, [r1, #0]
 80033b8:	2b12      	cmp	r3, #18
 80033ba:	4604      	mov	r4, r0
 80033bc:	460e      	mov	r6, r1
 80033be:	d907      	bls.n	80033d0 <HAL_ADC_ConfigChannel+0x20>
 80033c0:	4a53      	ldr	r2, [pc, #332]	; (8003510 <HAL_ADC_ConfigChannel+0x160>)
 80033c2:	4293      	cmp	r3, r2
 80033c4:	d004      	beq.n	80033d0 <HAL_ADC_ConfigChannel+0x20>
 80033c6:	4853      	ldr	r0, [pc, #332]	; (8003514 <HAL_ADC_ConfigChannel+0x164>)
 80033c8:	f240 6189 	movw	r1, #1673	; 0x689
 80033cc:	f7ff f976 	bl	80026bc <assert_failed>
 80033d0:	6873      	ldr	r3, [r6, #4]
 80033d2:	3b01      	subs	r3, #1
 80033d4:	2b0f      	cmp	r3, #15
 80033d6:	d904      	bls.n	80033e2 <HAL_ADC_ConfigChannel+0x32>
 80033d8:	484e      	ldr	r0, [pc, #312]	; (8003514 <HAL_ADC_ConfigChannel+0x164>)
 80033da:	f240 618a 	movw	r1, #1674	; 0x68a
 80033de:	f7ff f96d 	bl	80026bc <assert_failed>
 80033e2:	68b3      	ldr	r3, [r6, #8]
 80033e4:	2b07      	cmp	r3, #7
 80033e6:	d904      	bls.n	80033f2 <HAL_ADC_ConfigChannel+0x42>
 80033e8:	484a      	ldr	r0, [pc, #296]	; (8003514 <HAL_ADC_ConfigChannel+0x164>)
 80033ea:	f240 618b 	movw	r1, #1675	; 0x68b
 80033ee:	f7ff f965 	bl	80026bc <assert_failed>
 80033f2:	f894 303c 	ldrb.w	r3, [r4, #60]	; 0x3c
 80033f6:	2b01      	cmp	r3, #1
 80033f8:	d068      	beq.n	80034cc <HAL_ADC_ConfigChannel+0x11c>
 80033fa:	2301      	movs	r3, #1
 80033fc:	f884 303c 	strb.w	r3, [r4, #60]	; 0x3c
 8003400:	6835      	ldr	r5, [r6, #0]
 8003402:	6823      	ldr	r3, [r4, #0]
 8003404:	68b1      	ldr	r1, [r6, #8]
 8003406:	2d09      	cmp	r5, #9
 8003408:	b2a8      	uxth	r0, r5
 800340a:	d933      	bls.n	8003474 <HAL_ADC_ConfigChannel+0xc4>
 800340c:	eb00 0240 	add.w	r2, r0, r0, lsl #1
 8003410:	68df      	ldr	r7, [r3, #12]
 8003412:	3a1e      	subs	r2, #30
 8003414:	f04f 0c07 	mov.w	ip, #7
 8003418:	fa0c fc02 	lsl.w	ip, ip, r2
 800341c:	ea27 070c 	bic.w	r7, r7, ip
 8003420:	60df      	str	r7, [r3, #12]
 8003422:	68df      	ldr	r7, [r3, #12]
 8003424:	fa01 f202 	lsl.w	r2, r1, r2
 8003428:	433a      	orrs	r2, r7
 800342a:	60da      	str	r2, [r3, #12]
 800342c:	6871      	ldr	r1, [r6, #4]
 800342e:	2906      	cmp	r1, #6
 8003430:	eb01 0281 	add.w	r2, r1, r1, lsl #2
 8003434:	d82e      	bhi.n	8003494 <HAL_ADC_ConfigChannel+0xe4>
 8003436:	6b59      	ldr	r1, [r3, #52]	; 0x34
 8003438:	3a05      	subs	r2, #5
 800343a:	261f      	movs	r6, #31
 800343c:	4096      	lsls	r6, r2
 800343e:	ea21 0106 	bic.w	r1, r1, r6
 8003442:	6359      	str	r1, [r3, #52]	; 0x34
 8003444:	6b59      	ldr	r1, [r3, #52]	; 0x34
 8003446:	fa00 f202 	lsl.w	r2, r0, r2
 800344a:	430a      	orrs	r2, r1
 800344c:	635a      	str	r2, [r3, #52]	; 0x34
 800344e:	4a32      	ldr	r2, [pc, #200]	; (8003518 <HAL_ADC_ConfigChannel+0x168>)
 8003450:	4293      	cmp	r3, r2
 8003452:	d10a      	bne.n	800346a <HAL_ADC_ConfigChannel+0xba>
 8003454:	2d12      	cmp	r5, #18
 8003456:	d13b      	bne.n	80034d0 <HAL_ADC_ConfigChannel+0x120>
 8003458:	4b30      	ldr	r3, [pc, #192]	; (800351c <HAL_ADC_ConfigChannel+0x16c>)
 800345a:	685a      	ldr	r2, [r3, #4]
 800345c:	f422 0200 	bic.w	r2, r2, #8388608	; 0x800000
 8003460:	605a      	str	r2, [r3, #4]
 8003462:	685a      	ldr	r2, [r3, #4]
 8003464:	f442 0280 	orr.w	r2, r2, #4194304	; 0x400000
 8003468:	605a      	str	r2, [r3, #4]
 800346a:	2000      	movs	r0, #0
 800346c:	f884 003c 	strb.w	r0, [r4, #60]	; 0x3c
 8003470:	b003      	add	sp, #12
 8003472:	bdf0      	pop	{r4, r5, r6, r7, pc}
 8003474:	691f      	ldr	r7, [r3, #16]
 8003476:	eb05 0245 	add.w	r2, r5, r5, lsl #1
 800347a:	f04f 0c07 	mov.w	ip, #7
 800347e:	fa0c fc02 	lsl.w	ip, ip, r2
 8003482:	ea27 070c 	bic.w	r7, r7, ip
 8003486:	611f      	str	r7, [r3, #16]
 8003488:	691f      	ldr	r7, [r3, #16]
 800348a:	fa01 f202 	lsl.w	r2, r1, r2
 800348e:	433a      	orrs	r2, r7
 8003490:	611a      	str	r2, [r3, #16]
 8003492:	e7cb      	b.n	800342c <HAL_ADC_ConfigChannel+0x7c>
 8003494:	290c      	cmp	r1, #12
 8003496:	f04f 011f 	mov.w	r1, #31
 800349a:	d80b      	bhi.n	80034b4 <HAL_ADC_ConfigChannel+0x104>
 800349c:	6b1e      	ldr	r6, [r3, #48]	; 0x30
 800349e:	3a23      	subs	r2, #35	; 0x23
 80034a0:	4091      	lsls	r1, r2
 80034a2:	ea26 0101 	bic.w	r1, r6, r1
 80034a6:	6319      	str	r1, [r3, #48]	; 0x30
 80034a8:	6b19      	ldr	r1, [r3, #48]	; 0x30
 80034aa:	fa00 f202 	lsl.w	r2, r0, r2
 80034ae:	430a      	orrs	r2, r1
 80034b0:	631a      	str	r2, [r3, #48]	; 0x30
 80034b2:	e7cc      	b.n	800344e <HAL_ADC_ConfigChannel+0x9e>
 80034b4:	6ade      	ldr	r6, [r3, #44]	; 0x2c
 80034b6:	3a41      	subs	r2, #65	; 0x41
 80034b8:	4091      	lsls	r1, r2
 80034ba:	ea26 0101 	bic.w	r1, r6, r1
 80034be:	62d9      	str	r1, [r3, #44]	; 0x2c
 80034c0:	6ad9      	ldr	r1, [r3, #44]	; 0x2c
 80034c2:	fa00 f202 	lsl.w	r2, r0, r2
 80034c6:	430a      	orrs	r2, r1
 80034c8:	62da      	str	r2, [r3, #44]	; 0x2c
 80034ca:	e7c0      	b.n	800344e <HAL_ADC_ConfigChannel+0x9e>
 80034cc:	2002      	movs	r0, #2
 80034ce:	e7cf      	b.n	8003470 <HAL_ADC_ConfigChannel+0xc0>
 80034d0:	4b0f      	ldr	r3, [pc, #60]	; (8003510 <HAL_ADC_ConfigChannel+0x160>)
 80034d2:	429d      	cmp	r5, r3
 80034d4:	d001      	beq.n	80034da <HAL_ADC_ConfigChannel+0x12a>
 80034d6:	2d11      	cmp	r5, #17
 80034d8:	d1c7      	bne.n	800346a <HAL_ADC_ConfigChannel+0xba>
 80034da:	4b10      	ldr	r3, [pc, #64]	; (800351c <HAL_ADC_ConfigChannel+0x16c>)
 80034dc:	685a      	ldr	r2, [r3, #4]
 80034de:	f422 0280 	bic.w	r2, r2, #4194304	; 0x400000
 80034e2:	605a      	str	r2, [r3, #4]
 80034e4:	685a      	ldr	r2, [r3, #4]
 80034e6:	f442 0200 	orr.w	r2, r2, #8388608	; 0x800000
 80034ea:	605a      	str	r2, [r3, #4]
 80034ec:	4b08      	ldr	r3, [pc, #32]	; (8003510 <HAL_ADC_ConfigChannel+0x160>)
 80034ee:	429d      	cmp	r5, r3
 80034f0:	d1bb      	bne.n	800346a <HAL_ADC_ConfigChannel+0xba>
 80034f2:	4b0b      	ldr	r3, [pc, #44]	; (8003520 <HAL_ADC_ConfigChannel+0x170>)
 80034f4:	4a0b      	ldr	r2, [pc, #44]	; (8003524 <HAL_ADC_ConfigChannel+0x174>)
 80034f6:	681b      	ldr	r3, [r3, #0]
 80034f8:	fbb3 f2f2 	udiv	r2, r3, r2
 80034fc:	230a      	movs	r3, #10
 80034fe:	4353      	muls	r3, r2
 8003500:	9301      	str	r3, [sp, #4]
 8003502:	9b01      	ldr	r3, [sp, #4]
 8003504:	2b00      	cmp	r3, #0
 8003506:	d0b0      	beq.n	800346a <HAL_ADC_ConfigChannel+0xba>
 8003508:	9b01      	ldr	r3, [sp, #4]
 800350a:	3b01      	subs	r3, #1
 800350c:	e7f8      	b.n	8003500 <HAL_ADC_ConfigChannel+0x150>
 800350e:	bf00      	nop
 8003510:	10000012 	.word	0x10000012
 8003514:	080096ce 	.word	0x080096ce
 8003518:	40012000 	.word	0x40012000
 800351c:	40012300 	.word	0x40012300
 8003520:	200000d8 	.word	0x200000d8
 8003524:	000f4240 	.word	0x000f4240

08003528 <HAL_NVIC_SetPriorityGrouping>:
 8003528:	1ec3      	subs	r3, r0, #3
 800352a:	2b04      	cmp	r3, #4
 800352c:	b510      	push	{r4, lr}
 800352e:	4604      	mov	r4, r0
 8003530:	d903      	bls.n	800353a <HAL_NVIC_SetPriorityGrouping+0x12>
 8003532:	4809      	ldr	r0, [pc, #36]	; (8003558 <HAL_NVIC_SetPriorityGrouping+0x30>)
 8003534:	2192      	movs	r1, #146	; 0x92
 8003536:	f7ff f8c1 	bl	80026bc <assert_failed>
 800353a:	4908      	ldr	r1, [pc, #32]	; (800355c <HAL_NVIC_SetPriorityGrouping+0x34>)
 800353c:	68ca      	ldr	r2, [r1, #12]
 800353e:	0223      	lsls	r3, r4, #8
 8003540:	f64f 04ff 	movw	r4, #63743	; 0xf8ff
 8003544:	f403 63e0 	and.w	r3, r3, #1792	; 0x700
 8003548:	4014      	ands	r4, r2
 800354a:	4323      	orrs	r3, r4
 800354c:	f043 63bf 	orr.w	r3, r3, #100139008	; 0x5f80000
 8003550:	f443 3300 	orr.w	r3, r3, #131072	; 0x20000
 8003554:	60cb      	str	r3, [r1, #12]
 8003556:	bd10      	pop	{r4, pc}
 8003558:	08009706 	.word	0x08009706
 800355c:	e000ed00 	.word	0xe000ed00

08003560 <HAL_NVIC_SetPriority>:
 8003560:	2a0f      	cmp	r2, #15
 8003562:	b570      	push	{r4, r5, r6, lr}
 8003564:	4605      	mov	r5, r0
 8003566:	460c      	mov	r4, r1
 8003568:	4616      	mov	r6, r2
 800356a:	d903      	bls.n	8003574 <HAL_NVIC_SetPriority+0x14>
 800356c:	481b      	ldr	r0, [pc, #108]	; (80035dc <HAL_NVIC_SetPriority+0x7c>)
 800356e:	21aa      	movs	r1, #170	; 0xaa
 8003570:	f7ff f8a4 	bl	80026bc <assert_failed>
 8003574:	2c0f      	cmp	r4, #15
 8003576:	d903      	bls.n	8003580 <HAL_NVIC_SetPriority+0x20>
 8003578:	4818      	ldr	r0, [pc, #96]	; (80035dc <HAL_NVIC_SetPriority+0x7c>)
 800357a:	21ab      	movs	r1, #171	; 0xab
 800357c:	f7ff f89e 	bl	80026bc <assert_failed>
 8003580:	4b17      	ldr	r3, [pc, #92]	; (80035e0 <HAL_NVIC_SetPriority+0x80>)
 8003582:	68d8      	ldr	r0, [r3, #12]
 8003584:	f3c0 2002 	ubfx	r0, r0, #8, #3
 8003588:	f1c0 0307 	rsb	r3, r0, #7
 800358c:	1d02      	adds	r2, r0, #4
 800358e:	2b04      	cmp	r3, #4
 8003590:	bf28      	it	cs
 8003592:	2304      	movcs	r3, #4
 8003594:	2a06      	cmp	r2, #6
 8003596:	f04f 32ff 	mov.w	r2, #4294967295	; 0xffffffff
 800359a:	fa02 f303 	lsl.w	r3, r2, r3
 800359e:	bf8c      	ite	hi
 80035a0:	3803      	subhi	r0, #3
 80035a2:	2000      	movls	r0, #0
 80035a4:	ea24 0303 	bic.w	r3, r4, r3
 80035a8:	4083      	lsls	r3, r0
 80035aa:	fa02 f000 	lsl.w	r0, r2, r0
 80035ae:	ea26 0600 	bic.w	r6, r6, r0
 80035b2:	2d00      	cmp	r5, #0
 80035b4:	ea43 0306 	orr.w	r3, r3, r6
 80035b8:	bfac      	ite	ge
 80035ba:	f105 4560 	addge.w	r5, r5, #3758096384	; 0xe0000000
 80035be:	4a09      	ldrlt	r2, [pc, #36]	; (80035e4 <HAL_NVIC_SetPriority+0x84>)
 80035c0:	ea4f 1303 	mov.w	r3, r3, lsl #4
 80035c4:	bfb8      	it	lt
 80035c6:	f005 050f 	andlt.w	r5, r5, #15
 80035ca:	b2db      	uxtb	r3, r3
 80035cc:	bfaa      	itet	ge
 80035ce:	f505 4561 	addge.w	r5, r5, #57600	; 0xe100
 80035d2:	5553      	strblt	r3, [r2, r5]
 80035d4:	f885 3300 	strbge.w	r3, [r5, #768]	; 0x300
 80035d8:	bd70      	pop	{r4, r5, r6, pc}
 80035da:	bf00      	nop
 80035dc:	08009706 	.word	0x08009706
 80035e0:	e000ed00 	.word	0xe000ed00
 80035e4:	e000ed14 	.word	0xe000ed14

080035e8 <HAL_NVIC_EnableIRQ>:
 80035e8:	2800      	cmp	r0, #0
 80035ea:	da03      	bge.n	80035f4 <HAL_NVIC_EnableIRQ+0xc>
 80035ec:	4806      	ldr	r0, [pc, #24]	; (8003608 <HAL_NVIC_EnableIRQ+0x20>)
 80035ee:	21be      	movs	r1, #190	; 0xbe
 80035f0:	f7ff b864 	b.w	80026bc <assert_failed>
 80035f4:	0942      	lsrs	r2, r0, #5
 80035f6:	2301      	movs	r3, #1
 80035f8:	f000 001f 	and.w	r0, r0, #31
 80035fc:	fa03 f000 	lsl.w	r0, r3, r0
 8003600:	4b02      	ldr	r3, [pc, #8]	; (800360c <HAL_NVIC_EnableIRQ+0x24>)
 8003602:	f843 0022 	str.w	r0, [r3, r2, lsl #2]
 8003606:	4770      	bx	lr
 8003608:	08009706 	.word	0x08009706
 800360c:	e000e100 	.word	0xe000e100

08003610 <HAL_SYSTICK_Config>:
 8003610:	3801      	subs	r0, #1
 8003612:	f1b0 7f80 	cmp.w	r0, #16777216	; 0x1000000
 8003616:	d20a      	bcs.n	800362e <HAL_SYSTICK_Config+0x1e>
 8003618:	4b06      	ldr	r3, [pc, #24]	; (8003634 <HAL_SYSTICK_Config+0x24>)
 800361a:	4a07      	ldr	r2, [pc, #28]	; (8003638 <HAL_SYSTICK_Config+0x28>)
 800361c:	6058      	str	r0, [r3, #4]
 800361e:	21f0      	movs	r1, #240	; 0xf0
 8003620:	f882 1023 	strb.w	r1, [r2, #35]	; 0x23
 8003624:	2000      	movs	r0, #0
 8003626:	2207      	movs	r2, #7
 8003628:	6098      	str	r0, [r3, #8]
 800362a:	601a      	str	r2, [r3, #0]
 800362c:	4770      	bx	lr
 800362e:	2001      	movs	r0, #1
 8003630:	4770      	bx	lr
 8003632:	bf00      	nop
 8003634:	e000e010 	.word	0xe000e010
 8003638:	e000ed00 	.word	0xe000ed00

0800363c <DMA_CalcBaseAndBitshift>:
 800363c:	6803      	ldr	r3, [r0, #0]
 800363e:	b510      	push	{r4, lr}
 8003640:	4c08      	ldr	r4, [pc, #32]	; (8003664 <DMA_CalcBaseAndBitshift+0x28>)
 8003642:	4602      	mov	r2, r0
 8003644:	b2d9      	uxtb	r1, r3
 8003646:	3910      	subs	r1, #16
 8003648:	2018      	movs	r0, #24
 800364a:	fbb1 f0f0 	udiv	r0, r1, r0
 800364e:	5c20      	ldrb	r0, [r4, r0]
 8003650:	65d0      	str	r0, [r2, #92]	; 0x5c
 8003652:	f423 707f 	bic.w	r0, r3, #1020	; 0x3fc
 8003656:	f020 0003 	bic.w	r0, r0, #3
 800365a:	295f      	cmp	r1, #95	; 0x5f
 800365c:	bf88      	it	hi
 800365e:	3004      	addhi	r0, #4
 8003660:	6590      	str	r0, [r2, #88]	; 0x58
 8003662:	bd10      	pop	{r4, pc}
 8003664:	08009779 	.word	0x08009779

08003668 <HAL_DMA_Init>:
 8003668:	b570      	push	{r4, r5, r6, lr}
 800366a:	4604      	mov	r4, r0
 800366c:	f7ff fd50 	bl	8003110 <HAL_GetTick>
 8003670:	4605      	mov	r5, r0
 8003672:	2c00      	cmp	r4, #0
 8003674:	f000 811b 	beq.w	80038ae <HAL_DMA_Init+0x246>
 8003678:	6823      	ldr	r3, [r4, #0]
 800367a:	4a8e      	ldr	r2, [pc, #568]	; (80038b4 <HAL_DMA_Init+0x24c>)
 800367c:	4293      	cmp	r3, r2
 800367e:	d031      	beq.n	80036e4 <HAL_DMA_Init+0x7c>
 8003680:	3218      	adds	r2, #24
 8003682:	4293      	cmp	r3, r2
 8003684:	d02e      	beq.n	80036e4 <HAL_DMA_Init+0x7c>
 8003686:	3218      	adds	r2, #24
 8003688:	4293      	cmp	r3, r2
 800368a:	d02b      	beq.n	80036e4 <HAL_DMA_Init+0x7c>
 800368c:	3218      	adds	r2, #24
 800368e:	4293      	cmp	r3, r2
 8003690:	d028      	beq.n	80036e4 <HAL_DMA_Init+0x7c>
 8003692:	3218      	adds	r2, #24
 8003694:	4293      	cmp	r3, r2
 8003696:	d025      	beq.n	80036e4 <HAL_DMA_Init+0x7c>
 8003698:	3218      	adds	r2, #24
 800369a:	4293      	cmp	r3, r2
 800369c:	d022      	beq.n	80036e4 <HAL_DMA_Init+0x7c>
 800369e:	3218      	adds	r2, #24
 80036a0:	4293      	cmp	r3, r2
 80036a2:	d01f      	beq.n	80036e4 <HAL_DMA_Init+0x7c>
 80036a4:	3218      	adds	r2, #24
 80036a6:	4293      	cmp	r3, r2
 80036a8:	d01c      	beq.n	80036e4 <HAL_DMA_Init+0x7c>
 80036aa:	f502 7256 	add.w	r2, r2, #856	; 0x358
 80036ae:	4293      	cmp	r3, r2
 80036b0:	d018      	beq.n	80036e4 <HAL_DMA_Init+0x7c>
 80036b2:	3218      	adds	r2, #24
 80036b4:	4293      	cmp	r3, r2
 80036b6:	d015      	beq.n	80036e4 <HAL_DMA_Init+0x7c>
 80036b8:	3218      	adds	r2, #24
 80036ba:	4293      	cmp	r3, r2
 80036bc:	d012      	beq.n	80036e4 <HAL_DMA_Init+0x7c>
 80036be:	3218      	adds	r2, #24
 80036c0:	4293      	cmp	r3, r2
 80036c2:	d00f      	beq.n	80036e4 <HAL_DMA_Init+0x7c>
 80036c4:	3218      	adds	r2, #24
 80036c6:	4293      	cmp	r3, r2
 80036c8:	d00c      	beq.n	80036e4 <HAL_DMA_Init+0x7c>
 80036ca:	3218      	adds	r2, #24
 80036cc:	4293      	cmp	r3, r2
 80036ce:	d009      	beq.n	80036e4 <HAL_DMA_Init+0x7c>
 80036d0:	3218      	adds	r2, #24
 80036d2:	4293      	cmp	r3, r2
 80036d4:	d006      	beq.n	80036e4 <HAL_DMA_Init+0x7c>
 80036d6:	3218      	adds	r2, #24
 80036d8:	4293      	cmp	r3, r2
 80036da:	d003      	beq.n	80036e4 <HAL_DMA_Init+0x7c>
 80036dc:	4876      	ldr	r0, [pc, #472]	; (80038b8 <HAL_DMA_Init+0x250>)
 80036de:	21b8      	movs	r1, #184	; 0xb8
 80036e0:	f7fe ffec 	bl	80026bc <assert_failed>
 80036e4:	6863      	ldr	r3, [r4, #4]
 80036e6:	f033 63c0 	bics.w	r3, r3, #100663296	; 0x6000000
 80036ea:	d006      	beq.n	80036fa <HAL_DMA_Init+0x92>
 80036ec:	f1b3 6f00 	cmp.w	r3, #134217728	; 0x8000000
 80036f0:	d003      	beq.n	80036fa <HAL_DMA_Init+0x92>
 80036f2:	4871      	ldr	r0, [pc, #452]	; (80038b8 <HAL_DMA_Init+0x250>)
 80036f4:	21b9      	movs	r1, #185	; 0xb9
 80036f6:	f7fe ffe1 	bl	80026bc <assert_failed>
 80036fa:	68a3      	ldr	r3, [r4, #8]
 80036fc:	f033 0240 	bics.w	r2, r3, #64	; 0x40
 8003700:	d005      	beq.n	800370e <HAL_DMA_Init+0xa6>
 8003702:	2b80      	cmp	r3, #128	; 0x80
 8003704:	d003      	beq.n	800370e <HAL_DMA_Init+0xa6>
 8003706:	486c      	ldr	r0, [pc, #432]	; (80038b8 <HAL_DMA_Init+0x250>)
 8003708:	21ba      	movs	r1, #186	; 0xba
 800370a:	f7fe ffd7 	bl	80026bc <assert_failed>
 800370e:	68e3      	ldr	r3, [r4, #12]
 8003710:	f433 7300 	bics.w	r3, r3, #512	; 0x200
 8003714:	d003      	beq.n	800371e <HAL_DMA_Init+0xb6>
 8003716:	4868      	ldr	r0, [pc, #416]	; (80038b8 <HAL_DMA_Init+0x250>)
 8003718:	21bb      	movs	r1, #187	; 0xbb
 800371a:	f7fe ffcf 	bl	80026bc <assert_failed>
 800371e:	6923      	ldr	r3, [r4, #16]
 8003720:	f433 6380 	bics.w	r3, r3, #1024	; 0x400
 8003724:	d003      	beq.n	800372e <HAL_DMA_Init+0xc6>
 8003726:	4864      	ldr	r0, [pc, #400]	; (80038b8 <HAL_DMA_Init+0x250>)
 8003728:	21bc      	movs	r1, #188	; 0xbc
 800372a:	f7fe ffc7 	bl	80026bc <assert_failed>
 800372e:	6963      	ldr	r3, [r4, #20]
 8003730:	f433 6200 	bics.w	r2, r3, #2048	; 0x800
 8003734:	d006      	beq.n	8003744 <HAL_DMA_Init+0xdc>
 8003736:	f5b3 5f80 	cmp.w	r3, #4096	; 0x1000
 800373a:	d003      	beq.n	8003744 <HAL_DMA_Init+0xdc>
 800373c:	485e      	ldr	r0, [pc, #376]	; (80038b8 <HAL_DMA_Init+0x250>)
 800373e:	21bd      	movs	r1, #189	; 0xbd
 8003740:	f7fe ffbc 	bl	80026bc <assert_failed>
 8003744:	69a3      	ldr	r3, [r4, #24]
 8003746:	f433 5200 	bics.w	r2, r3, #8192	; 0x2000
 800374a:	d006      	beq.n	800375a <HAL_DMA_Init+0xf2>
 800374c:	f5b3 4f80 	cmp.w	r3, #16384	; 0x4000
 8003750:	d003      	beq.n	800375a <HAL_DMA_Init+0xf2>
 8003752:	4859      	ldr	r0, [pc, #356]	; (80038b8 <HAL_DMA_Init+0x250>)
 8003754:	21be      	movs	r1, #190	; 0xbe
 8003756:	f7fe ffb1 	bl	80026bc <assert_failed>
 800375a:	69e3      	ldr	r3, [r4, #28]
 800375c:	f033 0220 	bics.w	r2, r3, #32
 8003760:	d006      	beq.n	8003770 <HAL_DMA_Init+0x108>
 8003762:	f5b3 7f80 	cmp.w	r3, #256	; 0x100
 8003766:	d003      	beq.n	8003770 <HAL_DMA_Init+0x108>
 8003768:	4853      	ldr	r0, [pc, #332]	; (80038b8 <HAL_DMA_Init+0x250>)
 800376a:	21bf      	movs	r1, #191	; 0xbf
 800376c:	f7fe ffa6 	bl	80026bc <assert_failed>
 8003770:	6a23      	ldr	r3, [r4, #32]
 8003772:	f433 3340 	bics.w	r3, r3, #196608	; 0x30000
 8003776:	d003      	beq.n	8003780 <HAL_DMA_Init+0x118>
 8003778:	484f      	ldr	r0, [pc, #316]	; (80038b8 <HAL_DMA_Init+0x250>)
 800377a:	21c0      	movs	r1, #192	; 0xc0
 800377c:	f7fe ff9e 	bl	80026bc <assert_failed>
 8003780:	6a63      	ldr	r3, [r4, #36]	; 0x24
 8003782:	b303      	cbz	r3, 80037c6 <HAL_DMA_Init+0x15e>
 8003784:	2b04      	cmp	r3, #4
 8003786:	d117      	bne.n	80037b8 <HAL_DMA_Init+0x150>
 8003788:	6aa3      	ldr	r3, [r4, #40]	; 0x28
 800378a:	2b03      	cmp	r3, #3
 800378c:	d903      	bls.n	8003796 <HAL_DMA_Init+0x12e>
 800378e:	484a      	ldr	r0, [pc, #296]	; (80038b8 <HAL_DMA_Init+0x250>)
 8003790:	21c6      	movs	r1, #198	; 0xc6
 8003792:	f7fe ff93 	bl	80026bc <assert_failed>
 8003796:	6ae3      	ldr	r3, [r4, #44]	; 0x2c
 8003798:	f033 73c0 	bics.w	r3, r3, #25165824	; 0x1800000
 800379c:	d003      	beq.n	80037a6 <HAL_DMA_Init+0x13e>
 800379e:	4846      	ldr	r0, [pc, #280]	; (80038b8 <HAL_DMA_Init+0x250>)
 80037a0:	21c7      	movs	r1, #199	; 0xc7
 80037a2:	f7fe ff8b 	bl	80026bc <assert_failed>
 80037a6:	6b23      	ldr	r3, [r4, #48]	; 0x30
 80037a8:	f433 03c0 	bics.w	r3, r3, #6291456	; 0x600000
 80037ac:	d00b      	beq.n	80037c6 <HAL_DMA_Init+0x15e>
 80037ae:	4842      	ldr	r0, [pc, #264]	; (80038b8 <HAL_DMA_Init+0x250>)
 80037b0:	21c8      	movs	r1, #200	; 0xc8
 80037b2:	f7fe ff83 	bl	80026bc <assert_failed>
 80037b6:	e006      	b.n	80037c6 <HAL_DMA_Init+0x15e>
 80037b8:	483f      	ldr	r0, [pc, #252]	; (80038b8 <HAL_DMA_Init+0x250>)
 80037ba:	21c1      	movs	r1, #193	; 0xc1
 80037bc:	f7fe ff7e 	bl	80026bc <assert_failed>
 80037c0:	6a63      	ldr	r3, [r4, #36]	; 0x24
 80037c2:	2b00      	cmp	r3, #0
 80037c4:	d1e0      	bne.n	8003788 <HAL_DMA_Init+0x120>
 80037c6:	2302      	movs	r3, #2
 80037c8:	f884 3035 	strb.w	r3, [r4, #53]	; 0x35
 80037cc:	6822      	ldr	r2, [r4, #0]
 80037ce:	2300      	movs	r3, #0
 80037d0:	f884 3034 	strb.w	r3, [r4, #52]	; 0x34
 80037d4:	6813      	ldr	r3, [r2, #0]
 80037d6:	f023 0301 	bic.w	r3, r3, #1
 80037da:	6013      	str	r3, [r2, #0]
 80037dc:	6821      	ldr	r1, [r4, #0]
 80037de:	680b      	ldr	r3, [r1, #0]
 80037e0:	07d8      	lsls	r0, r3, #31
 80037e2:	d42f      	bmi.n	8003844 <HAL_DMA_Init+0x1dc>
 80037e4:	680b      	ldr	r3, [r1, #0]
 80037e6:	4d35      	ldr	r5, [pc, #212]	; (80038bc <HAL_DMA_Init+0x254>)
 80037e8:	69a0      	ldr	r0, [r4, #24]
 80037ea:	401d      	ands	r5, r3
 80037ec:	e9d4 2301 	ldrd	r2, r3, [r4, #4]
 80037f0:	4313      	orrs	r3, r2
 80037f2:	68e2      	ldr	r2, [r4, #12]
 80037f4:	4313      	orrs	r3, r2
 80037f6:	6922      	ldr	r2, [r4, #16]
 80037f8:	4313      	orrs	r3, r2
 80037fa:	6962      	ldr	r2, [r4, #20]
 80037fc:	4313      	orrs	r3, r2
 80037fe:	69e2      	ldr	r2, [r4, #28]
 8003800:	4303      	orrs	r3, r0
 8003802:	4313      	orrs	r3, r2
 8003804:	6a22      	ldr	r2, [r4, #32]
 8003806:	4313      	orrs	r3, r2
 8003808:	6a62      	ldr	r2, [r4, #36]	; 0x24
 800380a:	2a04      	cmp	r2, #4
 800380c:	ea43 0305 	orr.w	r3, r3, r5
 8003810:	bf02      	ittt	eq
 8003812:	e9d4 560b 	ldrdeq	r5, r6, [r4, #44]	; 0x2c
 8003816:	4335      	orreq	r5, r6
 8003818:	432b      	orreq	r3, r5
 800381a:	600b      	str	r3, [r1, #0]
 800381c:	694b      	ldr	r3, [r1, #20]
 800381e:	2a04      	cmp	r2, #4
 8003820:	f023 0307 	bic.w	r3, r3, #7
 8003824:	ea43 0302 	orr.w	r3, r3, r2
 8003828:	d133      	bne.n	8003892 <HAL_DMA_Init+0x22a>
 800382a:	6aa2      	ldr	r2, [r4, #40]	; 0x28
 800382c:	6ae5      	ldr	r5, [r4, #44]	; 0x2c
 800382e:	4313      	orrs	r3, r2
 8003830:	b37d      	cbz	r5, 8003892 <HAL_DMA_Init+0x22a>
 8003832:	b990      	cbnz	r0, 800385a <HAL_DMA_Init+0x1f2>
 8003834:	2a01      	cmp	r2, #1
 8003836:	d021      	beq.n	800387c <HAL_DMA_Init+0x214>
 8003838:	f032 0202 	bics.w	r2, r2, #2
 800383c:	d129      	bne.n	8003892 <HAL_DMA_Init+0x22a>
 800383e:	01ea      	lsls	r2, r5, #7
 8003840:	d527      	bpl.n	8003892 <HAL_DMA_Init+0x22a>
 8003842:	e01e      	b.n	8003882 <HAL_DMA_Init+0x21a>
 8003844:	f7ff fc64 	bl	8003110 <HAL_GetTick>
 8003848:	1b40      	subs	r0, r0, r5
 800384a:	2805      	cmp	r0, #5
 800384c:	d9c6      	bls.n	80037dc <HAL_DMA_Init+0x174>
 800384e:	2320      	movs	r3, #32
 8003850:	6563      	str	r3, [r4, #84]	; 0x54
 8003852:	2003      	movs	r0, #3
 8003854:	f884 0035 	strb.w	r0, [r4, #53]	; 0x35
 8003858:	bd70      	pop	{r4, r5, r6, pc}
 800385a:	f5b0 5f00 	cmp.w	r0, #8192	; 0x2000
 800385e:	d114      	bne.n	800388a <HAL_DMA_Init+0x222>
 8003860:	2a03      	cmp	r2, #3
 8003862:	d816      	bhi.n	8003892 <HAL_DMA_Init+0x22a>
 8003864:	a001      	add	r0, pc, #4	; (adr r0, 800386c <HAL_DMA_Init+0x204>)
 8003866:	f850 f022 	ldr.w	pc, [r0, r2, lsl #2]
 800386a:	bf00      	nop
 800386c:	08003883 	.word	0x08003883
 8003870:	0800383f 	.word	0x0800383f
 8003874:	08003883 	.word	0x08003883
 8003878:	0800387d 	.word	0x0800387d
 800387c:	f1b5 7fc0 	cmp.w	r5, #25165824	; 0x1800000
 8003880:	d107      	bne.n	8003892 <HAL_DMA_Init+0x22a>
 8003882:	2340      	movs	r3, #64	; 0x40
 8003884:	6563      	str	r3, [r4, #84]	; 0x54
 8003886:	2001      	movs	r0, #1
 8003888:	e7e4      	b.n	8003854 <HAL_DMA_Init+0x1ec>
 800388a:	2a02      	cmp	r2, #2
 800388c:	d9f9      	bls.n	8003882 <HAL_DMA_Init+0x21a>
 800388e:	2a03      	cmp	r2, #3
 8003890:	d0d5      	beq.n	800383e <HAL_DMA_Init+0x1d6>
 8003892:	614b      	str	r3, [r1, #20]
 8003894:	4620      	mov	r0, r4
 8003896:	f7ff fed1 	bl	800363c <DMA_CalcBaseAndBitshift>
 800389a:	6de2      	ldr	r2, [r4, #92]	; 0x5c
 800389c:	233f      	movs	r3, #63	; 0x3f
 800389e:	4093      	lsls	r3, r2
 80038a0:	6083      	str	r3, [r0, #8]
 80038a2:	2000      	movs	r0, #0
 80038a4:	2301      	movs	r3, #1
 80038a6:	6560      	str	r0, [r4, #84]	; 0x54
 80038a8:	f884 3035 	strb.w	r3, [r4, #53]	; 0x35
 80038ac:	e7d4      	b.n	8003858 <HAL_DMA_Init+0x1f0>
 80038ae:	2001      	movs	r0, #1
 80038b0:	e7d2      	b.n	8003858 <HAL_DMA_Init+0x1f0>
 80038b2:	bf00      	nop
 80038b4:	40026010 	.word	0x40026010
 80038b8:	08009741 	.word	0x08009741
 80038bc:	f010803f 	.word	0xf010803f

080038c0 <HAL_DMA_Start_IT>:
 80038c0:	e92d 41f0 	stmdb	sp!, {r4, r5, r6, r7, r8, lr}
 80038c4:	4615      	mov	r5, r2
 80038c6:	461f      	mov	r7, r3
 80038c8:	1e5a      	subs	r2, r3, #1
 80038ca:	f64f 73fe 	movw	r3, #65534	; 0xfffe
 80038ce:	429a      	cmp	r2, r3
 80038d0:	f8d0 8058 	ldr.w	r8, [r0, #88]	; 0x58
 80038d4:	4604      	mov	r4, r0
 80038d6:	460e      	mov	r6, r1
 80038d8:	d904      	bls.n	80038e4 <HAL_DMA_Start_IT+0x24>
 80038da:	4820      	ldr	r0, [pc, #128]	; (800395c <HAL_DMA_Start_IT+0x9c>)
 80038dc:	f44f 71e6 	mov.w	r1, #460	; 0x1cc
 80038e0:	f7fe feec 	bl	80026bc <assert_failed>
 80038e4:	f894 3034 	ldrb.w	r3, [r4, #52]	; 0x34
 80038e8:	2b01      	cmp	r3, #1
 80038ea:	d035      	beq.n	8003958 <HAL_DMA_Start_IT+0x98>
 80038ec:	2301      	movs	r3, #1
 80038ee:	f884 3034 	strb.w	r3, [r4, #52]	; 0x34
 80038f2:	f894 3035 	ldrb.w	r3, [r4, #53]	; 0x35
 80038f6:	2b01      	cmp	r3, #1
 80038f8:	f04f 0002 	mov.w	r0, #2
 80038fc:	f04f 0300 	mov.w	r3, #0
 8003900:	d127      	bne.n	8003952 <HAL_DMA_Start_IT+0x92>
 8003902:	f884 0035 	strb.w	r0, [r4, #53]	; 0x35
 8003906:	6820      	ldr	r0, [r4, #0]
 8003908:	6563      	str	r3, [r4, #84]	; 0x54
 800390a:	6803      	ldr	r3, [r0, #0]
 800390c:	6de2      	ldr	r2, [r4, #92]	; 0x5c
 800390e:	f423 2380 	bic.w	r3, r3, #262144	; 0x40000
 8003912:	6003      	str	r3, [r0, #0]
 8003914:	68a3      	ldr	r3, [r4, #8]
 8003916:	6047      	str	r7, [r0, #4]
 8003918:	2b40      	cmp	r3, #64	; 0x40
 800391a:	f04f 033f 	mov.w	r3, #63	; 0x3f
 800391e:	fa03 f302 	lsl.w	r3, r3, r2
 8003922:	bf0b      	itete	eq
 8003924:	6085      	streq	r5, [r0, #8]
 8003926:	6086      	strne	r6, [r0, #8]
 8003928:	60c6      	streq	r6, [r0, #12]
 800392a:	60c5      	strne	r5, [r0, #12]
 800392c:	f8c8 3008 	str.w	r3, [r8, #8]
 8003930:	6803      	ldr	r3, [r0, #0]
 8003932:	f043 0316 	orr.w	r3, r3, #22
 8003936:	6003      	str	r3, [r0, #0]
 8003938:	6c23      	ldr	r3, [r4, #64]	; 0x40
 800393a:	b11b      	cbz	r3, 8003944 <HAL_DMA_Start_IT+0x84>
 800393c:	6803      	ldr	r3, [r0, #0]
 800393e:	f043 0308 	orr.w	r3, r3, #8
 8003942:	6003      	str	r3, [r0, #0]
 8003944:	6803      	ldr	r3, [r0, #0]
 8003946:	f043 0301 	orr.w	r3, r3, #1
 800394a:	6003      	str	r3, [r0, #0]
 800394c:	2000      	movs	r0, #0
 800394e:	e8bd 81f0 	ldmia.w	sp!, {r4, r5, r6, r7, r8, pc}
 8003952:	f884 3034 	strb.w	r3, [r4, #52]	; 0x34
 8003956:	e7fa      	b.n	800394e <HAL_DMA_Start_IT+0x8e>
 8003958:	2002      	movs	r0, #2
 800395a:	e7f8      	b.n	800394e <HAL_DMA_Start_IT+0x8e>
 800395c:	08009741 	.word	0x08009741

08003960 <HAL_DMA_Abort_IT>:
 8003960:	f890 3035 	ldrb.w	r3, [r0, #53]	; 0x35
 8003964:	2b02      	cmp	r3, #2
 8003966:	d003      	beq.n	8003970 <HAL_DMA_Abort_IT+0x10>
 8003968:	2380      	movs	r3, #128	; 0x80
 800396a:	6543      	str	r3, [r0, #84]	; 0x54
 800396c:	2001      	movs	r0, #1
 800396e:	4770      	bx	lr
 8003970:	6802      	ldr	r2, [r0, #0]
 8003972:	2305      	movs	r3, #5
 8003974:	f880 3035 	strb.w	r3, [r0, #53]	; 0x35
 8003978:	6813      	ldr	r3, [r2, #0]
 800397a:	f023 0301 	bic.w	r3, r3, #1
 800397e:	6013      	str	r3, [r2, #0]
 8003980:	2000      	movs	r0, #0
 8003982:	4770      	bx	lr

08003984 <HAL_DMA_IRQHandler>:
 8003984:	b5f7      	push	{r0, r1, r2, r4, r5, r6, r7, lr}
 8003986:	2300      	movs	r3, #0
 8003988:	9301      	str	r3, [sp, #4]
 800398a:	4b5c      	ldr	r3, [pc, #368]	; (8003afc <HAL_DMA_IRQHandler+0x178>)
 800398c:	6d85      	ldr	r5, [r0, #88]	; 0x58
 800398e:	681f      	ldr	r7, [r3, #0]
 8003990:	6dc3      	ldr	r3, [r0, #92]	; 0x5c
 8003992:	682e      	ldr	r6, [r5, #0]
 8003994:	2208      	movs	r2, #8
 8003996:	409a      	lsls	r2, r3
 8003998:	4232      	tst	r2, r6
 800399a:	4604      	mov	r4, r0
 800399c:	d00c      	beq.n	80039b8 <HAL_DMA_IRQHandler+0x34>
 800399e:	6801      	ldr	r1, [r0, #0]
 80039a0:	6808      	ldr	r0, [r1, #0]
 80039a2:	0740      	lsls	r0, r0, #29
 80039a4:	d508      	bpl.n	80039b8 <HAL_DMA_IRQHandler+0x34>
 80039a6:	6808      	ldr	r0, [r1, #0]
 80039a8:	f020 0004 	bic.w	r0, r0, #4
 80039ac:	6008      	str	r0, [r1, #0]
 80039ae:	60aa      	str	r2, [r5, #8]
 80039b0:	6d62      	ldr	r2, [r4, #84]	; 0x54
 80039b2:	f042 0201 	orr.w	r2, r2, #1
 80039b6:	6562      	str	r2, [r4, #84]	; 0x54
 80039b8:	2201      	movs	r2, #1
 80039ba:	409a      	lsls	r2, r3
 80039bc:	4232      	tst	r2, r6
 80039be:	d008      	beq.n	80039d2 <HAL_DMA_IRQHandler+0x4e>
 80039c0:	6821      	ldr	r1, [r4, #0]
 80039c2:	6949      	ldr	r1, [r1, #20]
 80039c4:	0609      	lsls	r1, r1, #24
 80039c6:	bf41      	itttt	mi
 80039c8:	60aa      	strmi	r2, [r5, #8]
 80039ca:	6d62      	ldrmi	r2, [r4, #84]	; 0x54
 80039cc:	f042 0202 	orrmi.w	r2, r2, #2
 80039d0:	6562      	strmi	r2, [r4, #84]	; 0x54
 80039d2:	2204      	movs	r2, #4
 80039d4:	409a      	lsls	r2, r3
 80039d6:	4232      	tst	r2, r6
 80039d8:	d008      	beq.n	80039ec <HAL_DMA_IRQHandler+0x68>
 80039da:	6821      	ldr	r1, [r4, #0]
 80039dc:	6809      	ldr	r1, [r1, #0]
 80039de:	0788      	lsls	r0, r1, #30
 80039e0:	bf41      	itttt	mi
 80039e2:	60aa      	strmi	r2, [r5, #8]
 80039e4:	6d62      	ldrmi	r2, [r4, #84]	; 0x54
 80039e6:	f042 0204 	orrmi.w	r2, r2, #4
 80039ea:	6562      	strmi	r2, [r4, #84]	; 0x54
 80039ec:	2210      	movs	r2, #16
 80039ee:	409a      	lsls	r2, r3
 80039f0:	4232      	tst	r2, r6
 80039f2:	d010      	beq.n	8003a16 <HAL_DMA_IRQHandler+0x92>
 80039f4:	6823      	ldr	r3, [r4, #0]
 80039f6:	6819      	ldr	r1, [r3, #0]
 80039f8:	0709      	lsls	r1, r1, #28
 80039fa:	d50c      	bpl.n	8003a16 <HAL_DMA_IRQHandler+0x92>
 80039fc:	60aa      	str	r2, [r5, #8]
 80039fe:	681a      	ldr	r2, [r3, #0]
 8003a00:	0350      	lsls	r0, r2, #13
 8003a02:	d537      	bpl.n	8003a74 <HAL_DMA_IRQHandler+0xf0>
 8003a04:	681b      	ldr	r3, [r3, #0]
 8003a06:	0319      	lsls	r1, r3, #12
 8003a08:	d401      	bmi.n	8003a0e <HAL_DMA_IRQHandler+0x8a>
 8003a0a:	6c23      	ldr	r3, [r4, #64]	; 0x40
 8003a0c:	e000      	b.n	8003a10 <HAL_DMA_IRQHandler+0x8c>
 8003a0e:	6ca3      	ldr	r3, [r4, #72]	; 0x48
 8003a10:	b10b      	cbz	r3, 8003a16 <HAL_DMA_IRQHandler+0x92>
 8003a12:	4620      	mov	r0, r4
 8003a14:	4798      	blx	r3
 8003a16:	6de1      	ldr	r1, [r4, #92]	; 0x5c
 8003a18:	2220      	movs	r2, #32
 8003a1a:	408a      	lsls	r2, r1
 8003a1c:	4232      	tst	r2, r6
 8003a1e:	d03a      	beq.n	8003a96 <HAL_DMA_IRQHandler+0x112>
 8003a20:	6823      	ldr	r3, [r4, #0]
 8003a22:	6818      	ldr	r0, [r3, #0]
 8003a24:	06c6      	lsls	r6, r0, #27
 8003a26:	d536      	bpl.n	8003a96 <HAL_DMA_IRQHandler+0x112>
 8003a28:	60aa      	str	r2, [r5, #8]
 8003a2a:	f894 2035 	ldrb.w	r2, [r4, #53]	; 0x35
 8003a2e:	2a05      	cmp	r2, #5
 8003a30:	681a      	ldr	r2, [r3, #0]
 8003a32:	d127      	bne.n	8003a84 <HAL_DMA_IRQHandler+0x100>
 8003a34:	f022 0216 	bic.w	r2, r2, #22
 8003a38:	601a      	str	r2, [r3, #0]
 8003a3a:	695a      	ldr	r2, [r3, #20]
 8003a3c:	f022 0280 	bic.w	r2, r2, #128	; 0x80
 8003a40:	615a      	str	r2, [r3, #20]
 8003a42:	6c22      	ldr	r2, [r4, #64]	; 0x40
 8003a44:	b90a      	cbnz	r2, 8003a4a <HAL_DMA_IRQHandler+0xc6>
 8003a46:	6ca2      	ldr	r2, [r4, #72]	; 0x48
 8003a48:	b11a      	cbz	r2, 8003a52 <HAL_DMA_IRQHandler+0xce>
 8003a4a:	681a      	ldr	r2, [r3, #0]
 8003a4c:	f022 0208 	bic.w	r2, r2, #8
 8003a50:	601a      	str	r2, [r3, #0]
 8003a52:	233f      	movs	r3, #63	; 0x3f
 8003a54:	408b      	lsls	r3, r1
 8003a56:	60ab      	str	r3, [r5, #8]
 8003a58:	2301      	movs	r3, #1
 8003a5a:	f884 3035 	strb.w	r3, [r4, #53]	; 0x35
 8003a5e:	2300      	movs	r3, #0
 8003a60:	f884 3034 	strb.w	r3, [r4, #52]	; 0x34
 8003a64:	6d23      	ldr	r3, [r4, #80]	; 0x50
 8003a66:	2b00      	cmp	r3, #0
 8003a68:	d045      	beq.n	8003af6 <HAL_DMA_IRQHandler+0x172>
 8003a6a:	4620      	mov	r0, r4
 8003a6c:	b003      	add	sp, #12
 8003a6e:	e8bd 40f0 	ldmia.w	sp!, {r4, r5, r6, r7, lr}
 8003a72:	4718      	bx	r3
 8003a74:	681a      	ldr	r2, [r3, #0]
 8003a76:	05d2      	lsls	r2, r2, #23
 8003a78:	bf5e      	ittt	pl
 8003a7a:	681a      	ldrpl	r2, [r3, #0]
 8003a7c:	f022 0208 	bicpl.w	r2, r2, #8
 8003a80:	601a      	strpl	r2, [r3, #0]
 8003a82:	e7c2      	b.n	8003a0a <HAL_DMA_IRQHandler+0x86>
 8003a84:	0350      	lsls	r0, r2, #13
 8003a86:	d527      	bpl.n	8003ad8 <HAL_DMA_IRQHandler+0x154>
 8003a88:	681b      	ldr	r3, [r3, #0]
 8003a8a:	0319      	lsls	r1, r3, #12
 8003a8c:	d431      	bmi.n	8003af2 <HAL_DMA_IRQHandler+0x16e>
 8003a8e:	6c63      	ldr	r3, [r4, #68]	; 0x44
 8003a90:	b10b      	cbz	r3, 8003a96 <HAL_DMA_IRQHandler+0x112>
 8003a92:	4620      	mov	r0, r4
 8003a94:	4798      	blx	r3
 8003a96:	6d63      	ldr	r3, [r4, #84]	; 0x54
 8003a98:	b36b      	cbz	r3, 8003af6 <HAL_DMA_IRQHandler+0x172>
 8003a9a:	6d63      	ldr	r3, [r4, #84]	; 0x54
 8003a9c:	07da      	lsls	r2, r3, #31
 8003a9e:	d519      	bpl.n	8003ad4 <HAL_DMA_IRQHandler+0x150>
 8003aa0:	6822      	ldr	r2, [r4, #0]
 8003aa2:	f44f 5316 	mov.w	r3, #9600	; 0x2580
 8003aa6:	fbb7 f7f3 	udiv	r7, r7, r3
 8003aaa:	2305      	movs	r3, #5
 8003aac:	f884 3035 	strb.w	r3, [r4, #53]	; 0x35
 8003ab0:	6813      	ldr	r3, [r2, #0]
 8003ab2:	f023 0301 	bic.w	r3, r3, #1
 8003ab6:	6013      	str	r3, [r2, #0]
 8003ab8:	9b01      	ldr	r3, [sp, #4]
 8003aba:	3301      	adds	r3, #1
 8003abc:	42bb      	cmp	r3, r7
 8003abe:	9301      	str	r3, [sp, #4]
 8003ac0:	d802      	bhi.n	8003ac8 <HAL_DMA_IRQHandler+0x144>
 8003ac2:	6813      	ldr	r3, [r2, #0]
 8003ac4:	07db      	lsls	r3, r3, #31
 8003ac6:	d4f7      	bmi.n	8003ab8 <HAL_DMA_IRQHandler+0x134>
 8003ac8:	2301      	movs	r3, #1
 8003aca:	f884 3035 	strb.w	r3, [r4, #53]	; 0x35
 8003ace:	2300      	movs	r3, #0
 8003ad0:	f884 3034 	strb.w	r3, [r4, #52]	; 0x34
 8003ad4:	6ce3      	ldr	r3, [r4, #76]	; 0x4c
 8003ad6:	e7c6      	b.n	8003a66 <HAL_DMA_IRQHandler+0xe2>
 8003ad8:	681a      	ldr	r2, [r3, #0]
 8003ada:	f412 7280 	ands.w	r2, r2, #256	; 0x100
 8003ade:	d108      	bne.n	8003af2 <HAL_DMA_IRQHandler+0x16e>
 8003ae0:	6819      	ldr	r1, [r3, #0]
 8003ae2:	f021 0110 	bic.w	r1, r1, #16
 8003ae6:	6019      	str	r1, [r3, #0]
 8003ae8:	2301      	movs	r3, #1
 8003aea:	f884 3035 	strb.w	r3, [r4, #53]	; 0x35
 8003aee:	f884 2034 	strb.w	r2, [r4, #52]	; 0x34
 8003af2:	6be3      	ldr	r3, [r4, #60]	; 0x3c
 8003af4:	e7cc      	b.n	8003a90 <HAL_DMA_IRQHandler+0x10c>
 8003af6:	b003      	add	sp, #12
 8003af8:	bdf0      	pop	{r4, r5, r6, r7, pc}
 8003afa:	bf00      	nop
 8003afc:	200000d8 	.word	0x200000d8

08003b00 <HAL_GPIO_Init>:
 8003b00:	4b92      	ldr	r3, [pc, #584]	; (8003d4c <HAL_GPIO_Init+0x24c>)
 8003b02:	4298      	cmp	r0, r3
 8003b04:	e92d 4ff7 	stmdb	sp!, {r0, r1, r2, r4, r5, r6, r7, r8, r9, sl, fp, lr}
 8003b08:	4604      	mov	r4, r0
 8003b0a:	460d      	mov	r5, r1
 8003b0c:	d017      	beq.n	8003b3e <HAL_GPIO_Init+0x3e>
 8003b0e:	f503 6380 	add.w	r3, r3, #1024	; 0x400
 8003b12:	4298      	cmp	r0, r3
 8003b14:	d013      	beq.n	8003b3e <HAL_GPIO_Init+0x3e>
 8003b16:	f503 6380 	add.w	r3, r3, #1024	; 0x400
 8003b1a:	4298      	cmp	r0, r3
 8003b1c:	d00f      	beq.n	8003b3e <HAL_GPIO_Init+0x3e>
 8003b1e:	f503 6380 	add.w	r3, r3, #1024	; 0x400
 8003b22:	4298      	cmp	r0, r3
 8003b24:	d00b      	beq.n	8003b3e <HAL_GPIO_Init+0x3e>
 8003b26:	f503 6380 	add.w	r3, r3, #1024	; 0x400
 8003b2a:	4298      	cmp	r0, r3
 8003b2c:	d007      	beq.n	8003b3e <HAL_GPIO_Init+0x3e>
 8003b2e:	f503 6340 	add.w	r3, r3, #3072	; 0xc00
 8003b32:	4298      	cmp	r0, r3
 8003b34:	d003      	beq.n	8003b3e <HAL_GPIO_Init+0x3e>
 8003b36:	4886      	ldr	r0, [pc, #536]	; (8003d50 <HAL_GPIO_Init+0x250>)
 8003b38:	21ac      	movs	r1, #172	; 0xac
 8003b3a:	f7fe fdbf 	bl	80026bc <assert_failed>
 8003b3e:	682b      	ldr	r3, [r5, #0]
 8003b40:	b29a      	uxth	r2, r3
 8003b42:	b112      	cbz	r2, 8003b4a <HAL_GPIO_Init+0x4a>
 8003b44:	0c1b      	lsrs	r3, r3, #16
 8003b46:	041b      	lsls	r3, r3, #16
 8003b48:	b11b      	cbz	r3, 8003b52 <HAL_GPIO_Init+0x52>
 8003b4a:	4881      	ldr	r0, [pc, #516]	; (8003d50 <HAL_GPIO_Init+0x250>)
 8003b4c:	21ad      	movs	r1, #173	; 0xad
 8003b4e:	f7fe fdb5 	bl	80026bc <assert_failed>
 8003b52:	686b      	ldr	r3, [r5, #4]
 8003b54:	2b03      	cmp	r3, #3
 8003b56:	d915      	bls.n	8003b84 <HAL_GPIO_Init+0x84>
 8003b58:	f1a3 0211 	sub.w	r2, r3, #17
 8003b5c:	2a01      	cmp	r2, #1
 8003b5e:	d911      	bls.n	8003b84 <HAL_GPIO_Init+0x84>
 8003b60:	f423 1200 	bic.w	r2, r3, #2097152	; 0x200000
 8003b64:	f5b2 1f88 	cmp.w	r2, #1114112	; 0x110000
 8003b68:	d00c      	beq.n	8003b84 <HAL_GPIO_Init+0x84>
 8003b6a:	f5b3 1f04 	cmp.w	r3, #2162688	; 0x210000
 8003b6e:	d009      	beq.n	8003b84 <HAL_GPIO_Init+0x84>
 8003b70:	f5b2 1f90 	cmp.w	r2, #1179648	; 0x120000
 8003b74:	d006      	beq.n	8003b84 <HAL_GPIO_Init+0x84>
 8003b76:	f5b3 1f08 	cmp.w	r3, #2228224	; 0x220000
 8003b7a:	d003      	beq.n	8003b84 <HAL_GPIO_Init+0x84>
 8003b7c:	4874      	ldr	r0, [pc, #464]	; (8003d50 <HAL_GPIO_Init+0x250>)
 8003b7e:	21ae      	movs	r1, #174	; 0xae
 8003b80:	f7fe fd9c 	bl	80026bc <assert_failed>
 8003b84:	f8df 81d8 	ldr.w	r8, [pc, #472]	; 8003d60 <HAL_GPIO_Init+0x260>
 8003b88:	4f72      	ldr	r7, [pc, #456]	; (8003d54 <HAL_GPIO_Init+0x254>)
 8003b8a:	2600      	movs	r6, #0
 8003b8c:	682b      	ldr	r3, [r5, #0]
 8003b8e:	f04f 0b01 	mov.w	fp, #1
 8003b92:	fa0b fb06 	lsl.w	fp, fp, r6
 8003b96:	ea0b 0903 	and.w	r9, fp, r3
 8003b9a:	ea3b 0303 	bics.w	r3, fp, r3
 8003b9e:	f040 80c8 	bne.w	8003d32 <HAL_GPIO_Init+0x232>
 8003ba2:	686b      	ldr	r3, [r5, #4]
 8003ba4:	f003 0303 	and.w	r3, r3, #3
 8003ba8:	3b01      	subs	r3, #1
 8003baa:	2b01      	cmp	r3, #1
 8003bac:	ea4f 0a46 	mov.w	sl, r6, lsl #1
 8003bb0:	d81b      	bhi.n	8003bea <HAL_GPIO_Init+0xea>
 8003bb2:	68eb      	ldr	r3, [r5, #12]
 8003bb4:	2b03      	cmp	r3, #3
 8003bb6:	d903      	bls.n	8003bc0 <HAL_GPIO_Init+0xc0>
 8003bb8:	4865      	ldr	r0, [pc, #404]	; (8003d50 <HAL_GPIO_Init+0x250>)
 8003bba:	21c0      	movs	r1, #192	; 0xc0
 8003bbc:	f7fe fd7e 	bl	80026bc <assert_failed>
 8003bc0:	68a3      	ldr	r3, [r4, #8]
 8003bc2:	2203      	movs	r2, #3
 8003bc4:	fa02 f20a 	lsl.w	r2, r2, sl
 8003bc8:	ea23 0202 	bic.w	r2, r3, r2
 8003bcc:	68eb      	ldr	r3, [r5, #12]
 8003bce:	fa03 f30a 	lsl.w	r3, r3, sl
 8003bd2:	4313      	orrs	r3, r2
 8003bd4:	60a3      	str	r3, [r4, #8]
 8003bd6:	6863      	ldr	r3, [r4, #4]
 8003bd8:	ea23 0b0b 	bic.w	fp, r3, fp
 8003bdc:	686b      	ldr	r3, [r5, #4]
 8003bde:	f3c3 1300 	ubfx	r3, r3, #4, #1
 8003be2:	40b3      	lsls	r3, r6
 8003be4:	ea43 030b 	orr.w	r3, r3, fp
 8003be8:	6063      	str	r3, [r4, #4]
 8003bea:	686b      	ldr	r3, [r5, #4]
 8003bec:	f003 0303 	and.w	r3, r3, #3
 8003bf0:	2b03      	cmp	r3, #3
 8003bf2:	d031      	beq.n	8003c58 <HAL_GPIO_Init+0x158>
 8003bf4:	68ab      	ldr	r3, [r5, #8]
 8003bf6:	2b02      	cmp	r3, #2
 8003bf8:	d903      	bls.n	8003c02 <HAL_GPIO_Init+0x102>
 8003bfa:	4855      	ldr	r0, [pc, #340]	; (8003d50 <HAL_GPIO_Init+0x250>)
 8003bfc:	21d1      	movs	r1, #209	; 0xd1
 8003bfe:	f7fe fd5d 	bl	80026bc <assert_failed>
 8003c02:	68e3      	ldr	r3, [r4, #12]
 8003c04:	2203      	movs	r2, #3
 8003c06:	fa02 f20a 	lsl.w	r2, r2, sl
 8003c0a:	ea23 0202 	bic.w	r2, r3, r2
 8003c0e:	68ab      	ldr	r3, [r5, #8]
 8003c10:	fa03 f30a 	lsl.w	r3, r3, sl
 8003c14:	4313      	orrs	r3, r2
 8003c16:	60e3      	str	r3, [r4, #12]
 8003c18:	686b      	ldr	r3, [r5, #4]
 8003c1a:	f003 0303 	and.w	r3, r3, #3
 8003c1e:	2b02      	cmp	r3, #2
 8003c20:	d11a      	bne.n	8003c58 <HAL_GPIO_Init+0x158>
 8003c22:	692a      	ldr	r2, [r5, #16]
 8003c24:	2a0f      	cmp	r2, #15
 8003c26:	d804      	bhi.n	8003c32 <HAL_GPIO_Init+0x132>
 8003c28:	f249 73f7 	movw	r3, #38903	; 0x97f7
 8003c2c:	40d3      	lsrs	r3, r2
 8003c2e:	07da      	lsls	r2, r3, #31
 8003c30:	d403      	bmi.n	8003c3a <HAL_GPIO_Init+0x13a>
 8003c32:	4847      	ldr	r0, [pc, #284]	; (8003d50 <HAL_GPIO_Init+0x250>)
 8003c34:	21de      	movs	r1, #222	; 0xde
 8003c36:	f7fe fd41 	bl	80026bc <assert_failed>
 8003c3a:	08f2      	lsrs	r2, r6, #3
 8003c3c:	eb04 0282 	add.w	r2, r4, r2, lsl #2
 8003c40:	f006 0307 	and.w	r3, r6, #7
 8003c44:	0099      	lsls	r1, r3, #2
 8003c46:	6a10      	ldr	r0, [r2, #32]
 8003c48:	230f      	movs	r3, #15
 8003c4a:	408b      	lsls	r3, r1
 8003c4c:	ea20 0003 	bic.w	r0, r0, r3
 8003c50:	692b      	ldr	r3, [r5, #16]
 8003c52:	408b      	lsls	r3, r1
 8003c54:	4303      	orrs	r3, r0
 8003c56:	6213      	str	r3, [r2, #32]
 8003c58:	6822      	ldr	r2, [r4, #0]
 8003c5a:	6869      	ldr	r1, [r5, #4]
 8003c5c:	2303      	movs	r3, #3
 8003c5e:	fa03 f00a 	lsl.w	r0, r3, sl
 8003c62:	ea22 0000 	bic.w	r0, r2, r0
 8003c66:	ea01 0203 	and.w	r2, r1, r3
 8003c6a:	fa02 fa0a 	lsl.w	sl, r2, sl
 8003c6e:	ea4a 0000 	orr.w	r0, sl, r0
 8003c72:	f411 3f40 	tst.w	r1, #196608	; 0x30000
 8003c76:	6020      	str	r0, [r4, #0]
 8003c78:	d05b      	beq.n	8003d32 <HAL_GPIO_Init+0x232>
 8003c7a:	4a37      	ldr	r2, [pc, #220]	; (8003d58 <HAL_GPIO_Init+0x258>)
 8003c7c:	f04f 0a00 	mov.w	sl, #0
 8003c80:	f8cd a004 	str.w	sl, [sp, #4]
 8003c84:	6c50      	ldr	r0, [r2, #68]	; 0x44
 8003c86:	f440 4080 	orr.w	r0, r0, #16384	; 0x4000
 8003c8a:	6450      	str	r0, [r2, #68]	; 0x44
 8003c8c:	6c52      	ldr	r2, [r2, #68]	; 0x44
 8003c8e:	f026 0003 	bic.w	r0, r6, #3
 8003c92:	f100 4080 	add.w	r0, r0, #1073741824	; 0x40000000
 8003c96:	f402 4280 	and.w	r2, r2, #16384	; 0x4000
 8003c9a:	f500 309c 	add.w	r0, r0, #79872	; 0x13800
 8003c9e:	9201      	str	r2, [sp, #4]
 8003ca0:	ea06 0c03 	and.w	ip, r6, r3
 8003ca4:	9a01      	ldr	r2, [sp, #4]
 8003ca6:	f8d0 e008 	ldr.w	lr, [r0, #8]
 8003caa:	ea4f 0c8c 	mov.w	ip, ip, lsl #2
 8003cae:	220f      	movs	r2, #15
 8003cb0:	fa02 f20c 	lsl.w	r2, r2, ip
 8003cb4:	ea2e 0e02 	bic.w	lr, lr, r2
 8003cb8:	4a24      	ldr	r2, [pc, #144]	; (8003d4c <HAL_GPIO_Init+0x24c>)
 8003cba:	4294      	cmp	r4, r2
 8003cbc:	d040      	beq.n	8003d40 <HAL_GPIO_Init+0x240>
 8003cbe:	42bc      	cmp	r4, r7
 8003cc0:	d040      	beq.n	8003d44 <HAL_GPIO_Init+0x244>
 8003cc2:	f502 6200 	add.w	r2, r2, #2048	; 0x800
 8003cc6:	4294      	cmp	r4, r2
 8003cc8:	d03e      	beq.n	8003d48 <HAL_GPIO_Init+0x248>
 8003cca:	f502 6280 	add.w	r2, r2, #1024	; 0x400
 8003cce:	4294      	cmp	r4, r2
 8003cd0:	d004      	beq.n	8003cdc <HAL_GPIO_Init+0x1dc>
 8003cd2:	4b22      	ldr	r3, [pc, #136]	; (8003d5c <HAL_GPIO_Init+0x25c>)
 8003cd4:	429c      	cmp	r4, r3
 8003cd6:	bf0c      	ite	eq
 8003cd8:	2304      	moveq	r3, #4
 8003cda:	2307      	movne	r3, #7
 8003cdc:	fa03 f30c 	lsl.w	r3, r3, ip
 8003ce0:	ea43 030e 	orr.w	r3, r3, lr
 8003ce4:	6083      	str	r3, [r0, #8]
 8003ce6:	f8d8 2000 	ldr.w	r2, [r8]
 8003cea:	ea6f 0009 	mvn.w	r0, r9
 8003cee:	03cb      	lsls	r3, r1, #15
 8003cf0:	bf54      	ite	pl
 8003cf2:	4002      	andpl	r2, r0
 8003cf4:	ea49 0202 	orrmi.w	r2, r9, r2
 8003cf8:	f8c8 2000 	str.w	r2, [r8]
 8003cfc:	f8d8 2004 	ldr.w	r2, [r8, #4]
 8003d00:	038b      	lsls	r3, r1, #14
 8003d02:	bf54      	ite	pl
 8003d04:	4002      	andpl	r2, r0
 8003d06:	ea49 0202 	orrmi.w	r2, r9, r2
 8003d0a:	f8c8 2004 	str.w	r2, [r8, #4]
 8003d0e:	f8d8 2008 	ldr.w	r2, [r8, #8]
 8003d12:	02cb      	lsls	r3, r1, #11
 8003d14:	bf54      	ite	pl
 8003d16:	4002      	andpl	r2, r0
 8003d18:	ea49 0202 	orrmi.w	r2, r9, r2
 8003d1c:	f8c8 2008 	str.w	r2, [r8, #8]
 8003d20:	f8d8 300c 	ldr.w	r3, [r8, #12]
 8003d24:	028a      	lsls	r2, r1, #10
 8003d26:	bf54      	ite	pl
 8003d28:	4003      	andpl	r3, r0
 8003d2a:	ea49 0303 	orrmi.w	r3, r9, r3
 8003d2e:	f8c8 300c 	str.w	r3, [r8, #12]
 8003d32:	3601      	adds	r6, #1
 8003d34:	2e10      	cmp	r6, #16
 8003d36:	f47f af29 	bne.w	8003b8c <HAL_GPIO_Init+0x8c>
 8003d3a:	b003      	add	sp, #12
 8003d3c:	e8bd 8ff0 	ldmia.w	sp!, {r4, r5, r6, r7, r8, r9, sl, fp, pc}
 8003d40:	4653      	mov	r3, sl
 8003d42:	e7cb      	b.n	8003cdc <HAL_GPIO_Init+0x1dc>
 8003d44:	2301      	movs	r3, #1
 8003d46:	e7c9      	b.n	8003cdc <HAL_GPIO_Init+0x1dc>
 8003d48:	2302      	movs	r3, #2
 8003d4a:	e7c7      	b.n	8003cdc <HAL_GPIO_Init+0x1dc>
 8003d4c:	40020000 	.word	0x40020000
 8003d50:	08009781 	.word	0x08009781
 8003d54:	40020400 	.word	0x40020400
 8003d58:	40023800 	.word	0x40023800
 8003d5c:	40021000 	.word	0x40021000
 8003d60:	40013c00 	.word	0x40013c00

08003d64 <HAL_GPIO_DeInit>:
 8003d64:	e92d 4ff8 	stmdb	sp!, {r3, r4, r5, r6, r7, r8, r9, sl, fp, lr}
 8003d68:	4b49      	ldr	r3, [pc, #292]	; (8003e90 <HAL_GPIO_DeInit+0x12c>)
 8003d6a:	4298      	cmp	r0, r3
 8003d6c:	4604      	mov	r4, r0
 8003d6e:	460e      	mov	r6, r1
 8003d70:	d018      	beq.n	8003da4 <HAL_GPIO_DeInit+0x40>
 8003d72:	f503 6380 	add.w	r3, r3, #1024	; 0x400
 8003d76:	4298      	cmp	r0, r3
 8003d78:	d014      	beq.n	8003da4 <HAL_GPIO_DeInit+0x40>
 8003d7a:	f503 6380 	add.w	r3, r3, #1024	; 0x400
 8003d7e:	4298      	cmp	r0, r3
 8003d80:	d010      	beq.n	8003da4 <HAL_GPIO_DeInit+0x40>
 8003d82:	f503 6380 	add.w	r3, r3, #1024	; 0x400
 8003d86:	4298      	cmp	r0, r3
 8003d88:	d00c      	beq.n	8003da4 <HAL_GPIO_DeInit+0x40>
 8003d8a:	f503 6380 	add.w	r3, r3, #1024	; 0x400
 8003d8e:	4298      	cmp	r0, r3
 8003d90:	d008      	beq.n	8003da4 <HAL_GPIO_DeInit+0x40>
 8003d92:	f503 6340 	add.w	r3, r3, #3072	; 0xc00
 8003d96:	4298      	cmp	r0, r3
 8003d98:	d004      	beq.n	8003da4 <HAL_GPIO_DeInit+0x40>
 8003d9a:	483e      	ldr	r0, [pc, #248]	; (8003e94 <HAL_GPIO_DeInit+0x130>)
 8003d9c:	f44f 7197 	mov.w	r1, #302	; 0x12e
 8003da0:	f7fe fc8c 	bl	80026bc <assert_failed>
 8003da4:	4a3c      	ldr	r2, [pc, #240]	; (8003e98 <HAL_GPIO_DeInit+0x134>)
 8003da6:	2300      	movs	r3, #0
 8003da8:	f04f 0a01 	mov.w	sl, #1
 8003dac:	f04f 080f 	mov.w	r8, #15
 8003db0:	f04f 0b03 	mov.w	fp, #3
 8003db4:	fa0a fc03 	lsl.w	ip, sl, r3
 8003db8:	ea3c 0006 	bics.w	r0, ip, r6
 8003dbc:	ea0c 0106 	and.w	r1, ip, r6
 8003dc0:	d158      	bne.n	8003e74 <HAL_GPIO_DeInit+0x110>
 8003dc2:	f023 0003 	bic.w	r0, r3, #3
 8003dc6:	f100 4080 	add.w	r0, r0, #1073741824	; 0x40000000
 8003dca:	f500 309c 	add.w	r0, r0, #79872	; 0x13800
 8003dce:	f003 0703 	and.w	r7, r3, #3
 8003dd2:	6885      	ldr	r5, [r0, #8]
 8003dd4:	00bf      	lsls	r7, r7, #2
 8003dd6:	fa08 f907 	lsl.w	r9, r8, r7
 8003dda:	ea09 0e05 	and.w	lr, r9, r5
 8003dde:	4d2c      	ldr	r5, [pc, #176]	; (8003e90 <HAL_GPIO_DeInit+0x12c>)
 8003de0:	42ac      	cmp	r4, r5
 8003de2:	d04c      	beq.n	8003e7e <HAL_GPIO_DeInit+0x11a>
 8003de4:	f505 6580 	add.w	r5, r5, #1024	; 0x400
 8003de8:	42ac      	cmp	r4, r5
 8003dea:	d04a      	beq.n	8003e82 <HAL_GPIO_DeInit+0x11e>
 8003dec:	f505 6580 	add.w	r5, r5, #1024	; 0x400
 8003df0:	42ac      	cmp	r4, r5
 8003df2:	d048      	beq.n	8003e86 <HAL_GPIO_DeInit+0x122>
 8003df4:	f505 6580 	add.w	r5, r5, #1024	; 0x400
 8003df8:	42ac      	cmp	r4, r5
 8003dfa:	d046      	beq.n	8003e8a <HAL_GPIO_DeInit+0x126>
 8003dfc:	f505 6580 	add.w	r5, r5, #1024	; 0x400
 8003e00:	42ac      	cmp	r4, r5
 8003e02:	bf0c      	ite	eq
 8003e04:	2504      	moveq	r5, #4
 8003e06:	2507      	movne	r5, #7
 8003e08:	40bd      	lsls	r5, r7
 8003e0a:	4575      	cmp	r5, lr
 8003e0c:	d113      	bne.n	8003e36 <HAL_GPIO_DeInit+0xd2>
 8003e0e:	6815      	ldr	r5, [r2, #0]
 8003e10:	ea25 0501 	bic.w	r5, r5, r1
 8003e14:	6015      	str	r5, [r2, #0]
 8003e16:	6855      	ldr	r5, [r2, #4]
 8003e18:	ea25 0501 	bic.w	r5, r5, r1
 8003e1c:	6055      	str	r5, [r2, #4]
 8003e1e:	6895      	ldr	r5, [r2, #8]
 8003e20:	ea25 0501 	bic.w	r5, r5, r1
 8003e24:	6095      	str	r5, [r2, #8]
 8003e26:	68d5      	ldr	r5, [r2, #12]
 8003e28:	ea25 0101 	bic.w	r1, r5, r1
 8003e2c:	60d1      	str	r1, [r2, #12]
 8003e2e:	6881      	ldr	r1, [r0, #8]
 8003e30:	ea21 0109 	bic.w	r1, r1, r9
 8003e34:	6081      	str	r1, [r0, #8]
 8003e36:	6820      	ldr	r0, [r4, #0]
 8003e38:	0059      	lsls	r1, r3, #1
 8003e3a:	fa0b f101 	lsl.w	r1, fp, r1
 8003e3e:	08dd      	lsrs	r5, r3, #3
 8003e40:	ea20 0001 	bic.w	r0, r0, r1
 8003e44:	eb04 0585 	add.w	r5, r4, r5, lsl #2
 8003e48:	6020      	str	r0, [r4, #0]
 8003e4a:	f003 0007 	and.w	r0, r3, #7
 8003e4e:	6a2f      	ldr	r7, [r5, #32]
 8003e50:	0080      	lsls	r0, r0, #2
 8003e52:	fa08 f000 	lsl.w	r0, r8, r0
 8003e56:	ea27 0000 	bic.w	r0, r7, r0
 8003e5a:	6228      	str	r0, [r5, #32]
 8003e5c:	68e0      	ldr	r0, [r4, #12]
 8003e5e:	ea20 0001 	bic.w	r0, r0, r1
 8003e62:	60e0      	str	r0, [r4, #12]
 8003e64:	6860      	ldr	r0, [r4, #4]
 8003e66:	ea20 000c 	bic.w	r0, r0, ip
 8003e6a:	6060      	str	r0, [r4, #4]
 8003e6c:	68a0      	ldr	r0, [r4, #8]
 8003e6e:	ea20 0101 	bic.w	r1, r0, r1
 8003e72:	60a1      	str	r1, [r4, #8]
 8003e74:	3301      	adds	r3, #1
 8003e76:	2b10      	cmp	r3, #16
 8003e78:	d19c      	bne.n	8003db4 <HAL_GPIO_DeInit+0x50>
 8003e7a:	e8bd 8ff8 	ldmia.w	sp!, {r3, r4, r5, r6, r7, r8, r9, sl, fp, pc}
 8003e7e:	2500      	movs	r5, #0
 8003e80:	e7c2      	b.n	8003e08 <HAL_GPIO_DeInit+0xa4>
 8003e82:	2501      	movs	r5, #1
 8003e84:	e7c0      	b.n	8003e08 <HAL_GPIO_DeInit+0xa4>
 8003e86:	2502      	movs	r5, #2
 8003e88:	e7be      	b.n	8003e08 <HAL_GPIO_DeInit+0xa4>
 8003e8a:	2503      	movs	r5, #3
 8003e8c:	e7bc      	b.n	8003e08 <HAL_GPIO_DeInit+0xa4>
 8003e8e:	bf00      	nop
 8003e90:	40020000 	.word	0x40020000
 8003e94:	08009781 	.word	0x08009781
 8003e98:	40013c00 	.word	0x40013c00

08003e9c <HAL_GPIO_WritePin>:
 8003e9c:	b570      	push	{r4, r5, r6, lr}
 8003e9e:	4605      	mov	r5, r0
 8003ea0:	4616      	mov	r6, r2
 8003ea2:	460c      	mov	r4, r1
 8003ea4:	b921      	cbnz	r1, 8003eb0 <HAL_GPIO_WritePin+0x14>
 8003ea6:	4809      	ldr	r0, [pc, #36]	; (8003ecc <HAL_GPIO_WritePin+0x30>)
 8003ea8:	f240 119d 	movw	r1, #413	; 0x19d
 8003eac:	f7fe fc06 	bl	80026bc <assert_failed>
 8003eb0:	2e01      	cmp	r6, #1
 8003eb2:	d906      	bls.n	8003ec2 <HAL_GPIO_WritePin+0x26>
 8003eb4:	4805      	ldr	r0, [pc, #20]	; (8003ecc <HAL_GPIO_WritePin+0x30>)
 8003eb6:	f44f 71cf 	mov.w	r1, #414	; 0x19e
 8003eba:	f7fe fbff 	bl	80026bc <assert_failed>
 8003ebe:	61ac      	str	r4, [r5, #24]
 8003ec0:	bd70      	pop	{r4, r5, r6, pc}
 8003ec2:	2e00      	cmp	r6, #0
 8003ec4:	d1fb      	bne.n	8003ebe <HAL_GPIO_WritePin+0x22>
 8003ec6:	0424      	lsls	r4, r4, #16
 8003ec8:	e7f9      	b.n	8003ebe <HAL_GPIO_WritePin+0x22>
 8003eca:	bf00      	nop
 8003ecc:	08009781 	.word	0x08009781

08003ed0 <HAL_GPIO_EXTI_IRQHandler>:
 8003ed0:	4a04      	ldr	r2, [pc, #16]	; (8003ee4 <HAL_GPIO_EXTI_IRQHandler+0x14>)
 8003ed2:	6951      	ldr	r1, [r2, #20]
 8003ed4:	4201      	tst	r1, r0
 8003ed6:	b508      	push	{r3, lr}
 8003ed8:	d002      	beq.n	8003ee0 <HAL_GPIO_EXTI_IRQHandler+0x10>
 8003eda:	6150      	str	r0, [r2, #20]
 8003edc:	f7fe f802 	bl	8001ee4 <HAL_GPIO_EXTI_Callback>
 8003ee0:	bd08      	pop	{r3, pc}
 8003ee2:	bf00      	nop
 8003ee4:	40013c00 	.word	0x40013c00

08003ee8 <HAL_HCD_HC_Init>:
 8003ee8:	e92d 43f0 	stmdb	sp!, {r4, r5, r6, r7, r8, r9, lr}
 8003eec:	4605      	mov	r5, r0
 8003eee:	b085      	sub	sp, #20
 8003ef0:	f895 42f8 	ldrb.w	r4, [r5, #760]	; 0x2f8
 8003ef4:	f89d e030 	ldrb.w	lr, [sp, #48]	; 0x30
 8003ef8:	f89d 8034 	ldrb.w	r8, [sp, #52]	; 0x34
 8003efc:	f8bd 9038 	ldrh.w	r9, [sp, #56]	; 0x38
 8003f00:	2c01      	cmp	r4, #1
 8003f02:	d025      	beq.n	8003f50 <HAL_HCD_HC_Init+0x68>
 8003f04:	2401      	movs	r4, #1
 8003f06:	f885 42f8 	strb.w	r4, [r5, #760]	; 0x2f8
 8003f0a:	242c      	movs	r4, #44	; 0x2c
 8003f0c:	fb04 5401 	mla	r4, r4, r1, r5
 8003f10:	09d0      	lsrs	r0, r2, #7
 8003f12:	2700      	movs	r7, #0
 8003f14:	f002 067f 	and.w	r6, r2, #127	; 0x7f
 8003f18:	f884 703d 	strb.w	r7, [r4, #61]	; 0x3d
 8003f1c:	f884 3038 	strb.w	r3, [r4, #56]	; 0x38
 8003f20:	f884 1039 	strb.w	r1, [r4, #57]	; 0x39
 8003f24:	f884 803f 	strb.w	r8, [r4, #63]	; 0x3f
 8003f28:	f884 603a 	strb.w	r6, [r4, #58]	; 0x3a
 8003f2c:	f884 003b 	strb.w	r0, [r4, #59]	; 0x3b
 8003f30:	f884 e03c 	strb.w	lr, [r4, #60]	; 0x3c
 8003f34:	f8a4 9040 	strh.w	r9, [r4, #64]	; 0x40
 8003f38:	6828      	ldr	r0, [r5, #0]
 8003f3a:	f8cd e000 	str.w	lr, [sp]
 8003f3e:	e9cd 8901 	strd	r8, r9, [sp, #4]
 8003f42:	f003 fd71 	bl	8007a28 <USB_HC_Init>
 8003f46:	f885 72f8 	strb.w	r7, [r5, #760]	; 0x2f8
 8003f4a:	b005      	add	sp, #20
 8003f4c:	e8bd 83f0 	ldmia.w	sp!, {r4, r5, r6, r7, r8, r9, pc}
 8003f50:	2002      	movs	r0, #2
 8003f52:	e7fa      	b.n	8003f4a <HAL_HCD_HC_Init+0x62>

08003f54 <HAL_HCD_HC_Halt>:
 8003f54:	b510      	push	{r4, lr}
 8003f56:	f890 32f8 	ldrb.w	r3, [r0, #760]	; 0x2f8
 8003f5a:	2b01      	cmp	r3, #1
 8003f5c:	4604      	mov	r4, r0
 8003f5e:	d009      	beq.n	8003f74 <HAL_HCD_HC_Halt+0x20>
 8003f60:	2301      	movs	r3, #1
 8003f62:	f880 32f8 	strb.w	r3, [r0, #760]	; 0x2f8
 8003f66:	6800      	ldr	r0, [r0, #0]
 8003f68:	f003 fddd 	bl	8007b26 <USB_HC_Halt>
 8003f6c:	2000      	movs	r0, #0
 8003f6e:	f884 02f8 	strb.w	r0, [r4, #760]	; 0x2f8
 8003f72:	bd10      	pop	{r4, pc}
 8003f74:	2002      	movs	r0, #2
 8003f76:	e7fc      	b.n	8003f72 <HAL_HCD_HC_Halt+0x1e>

08003f78 <HAL_HCD_Init>:
 8003f78:	e92d 41f0 	stmdb	sp!, {r4, r5, r6, r7, r8, lr}
 8003f7c:	4605      	mov	r5, r0
 8003f7e:	b08a      	sub	sp, #40	; 0x28
 8003f80:	2800      	cmp	r0, #0
 8003f82:	d04a      	beq.n	800401a <HAL_HCD_Init+0xa2>
 8003f84:	6803      	ldr	r3, [r0, #0]
 8003f86:	f1b3 4fa0 	cmp.w	r3, #1342177280	; 0x50000000
 8003f8a:	d003      	beq.n	8003f94 <HAL_HCD_Init+0x1c>
 8003f8c:	4824      	ldr	r0, [pc, #144]	; (8004020 <HAL_HCD_Init+0xa8>)
 8003f8e:	2179      	movs	r1, #121	; 0x79
 8003f90:	f7fe fb94 	bl	80026bc <assert_failed>
 8003f94:	f895 32f9 	ldrb.w	r3, [r5, #761]	; 0x2f9
 8003f98:	682c      	ldr	r4, [r5, #0]
 8003f9a:	f003 02ff 	and.w	r2, r3, #255	; 0xff
 8003f9e:	b923      	cbnz	r3, 8003faa <HAL_HCD_Init+0x32>
 8003fa0:	f885 22f8 	strb.w	r2, [r5, #760]	; 0x2f8
 8003fa4:	4628      	mov	r0, r5
 8003fa6:	f004 fe31 	bl	8008c0c <HAL_HCD_MspInit>
 8003faa:	2303      	movs	r3, #3
 8003fac:	f885 32f9 	strb.w	r3, [r5, #761]	; 0x2f9
 8003fb0:	6be3      	ldr	r3, [r4, #60]	; 0x3c
 8003fb2:	462c      	mov	r4, r5
 8003fb4:	f413 7380 	ands.w	r3, r3, #256	; 0x100
 8003fb8:	f854 0b10 	ldr.w	r0, [r4], #16
 8003fbc:	bf08      	it	eq
 8003fbe:	612b      	streq	r3, [r5, #16]
 8003fc0:	f003 fbc0 	bl	8007744 <USB_DisableGlobalInt>
 8003fc4:	cc0f      	ldmia	r4!, {r0, r1, r2, r3}
 8003fc6:	466e      	mov	r6, sp
 8003fc8:	c60f      	stmia	r6!, {r0, r1, r2, r3}
 8003fca:	cc0f      	ldmia	r4!, {r0, r1, r2, r3}
 8003fcc:	c60f      	stmia	r6!, {r0, r1, r2, r3}
 8003fce:	e894 0003 	ldmia.w	r4, {r0, r1}
 8003fd2:	e886 0003 	stmia.w	r6, {r0, r1}
 8003fd6:	f105 0804 	add.w	r8, r5, #4
 8003fda:	462f      	mov	r7, r5
 8003fdc:	e898 000e 	ldmia.w	r8, {r1, r2, r3}
 8003fe0:	6828      	ldr	r0, [r5, #0]
 8003fe2:	f003 fb69 	bl	80076b8 <USB_CoreInit>
 8003fe6:	f857 0b10 	ldr.w	r0, [r7], #16
 8003fea:	2101      	movs	r1, #1
 8003fec:	f003 fbb0 	bl	8007750 <USB_SetCurrentMode>
 8003ff0:	cf0f      	ldmia	r7!, {r0, r1, r2, r3}
 8003ff2:	466e      	mov	r6, sp
 8003ff4:	c60f      	stmia	r6!, {r0, r1, r2, r3}
 8003ff6:	cf0f      	ldmia	r7!, {r0, r1, r2, r3}
 8003ff8:	c60f      	stmia	r6!, {r0, r1, r2, r3}
 8003ffa:	e894 0003 	ldmia.w	r4, {r0, r1}
 8003ffe:	e886 0003 	stmia.w	r6, {r0, r1}
 8004002:	e898 000e 	ldmia.w	r8, {r1, r2, r3}
 8004006:	6828      	ldr	r0, [r5, #0]
 8004008:	f003 fc3e 	bl	8007888 <USB_HostInit>
 800400c:	2301      	movs	r3, #1
 800400e:	f885 32f9 	strb.w	r3, [r5, #761]	; 0x2f9
 8004012:	2000      	movs	r0, #0
 8004014:	b00a      	add	sp, #40	; 0x28
 8004016:	e8bd 81f0 	ldmia.w	sp!, {r4, r5, r6, r7, r8, pc}
 800401a:	2001      	movs	r0, #1
 800401c:	e7fa      	b.n	8004014 <HAL_HCD_Init+0x9c>
 800401e:	bf00      	nop
 8004020:	080097ba 	.word	0x080097ba

08004024 <HAL_HCD_HC_SubmitRequest>:
 8004024:	b4f0      	push	{r4, r5, r6, r7}
 8004026:	262c      	movs	r6, #44	; 0x2c
 8004028:	fb06 0601 	mla	r6, r6, r1, r0
 800402c:	f89d 7010 	ldrb.w	r7, [sp, #16]
 8004030:	9d05      	ldr	r5, [sp, #20]
 8004032:	f8bd 4018 	ldrh.w	r4, [sp, #24]
 8004036:	f89d c01c 	ldrb.w	ip, [sp, #28]
 800403a:	f886 203b 	strb.w	r2, [r6, #59]	; 0x3b
 800403e:	f886 303f 	strb.w	r3, [r6, #63]	; 0x3f
 8004042:	b97f      	cbnz	r7, 8004064 <HAL_HCD_HC_SubmitRequest+0x40>
 8004044:	2703      	movs	r7, #3
 8004046:	2b02      	cmp	r3, #2
 8004048:	f886 7042 	strb.w	r7, [r6, #66]	; 0x42
 800404c:	f886 c03d 	strb.w	ip, [r6, #61]	; 0x3d
 8004050:	d042      	beq.n	80040d8 <HAL_HCD_HC_SubmitRequest+0xb4>
 8004052:	42bb      	cmp	r3, r7
 8004054:	d040      	beq.n	80040d8 <HAL_HCD_HC_SubmitRequest+0xb4>
 8004056:	2b01      	cmp	r3, #1
 8004058:	d12a      	bne.n	80040b0 <HAL_HCD_HC_SubmitRequest+0x8c>
 800405a:	232c      	movs	r3, #44	; 0x2c
 800405c:	fb03 0301 	mla	r3, r3, r1, r0
 8004060:	2200      	movs	r2, #0
 8004062:	e023      	b.n	80040ac <HAL_HCD_HC_SubmitRequest+0x88>
 8004064:	f04f 0c02 	mov.w	ip, #2
 8004068:	f886 c042 	strb.w	ip, [r6, #66]	; 0x42
 800406c:	2b03      	cmp	r3, #3
 800406e:	d81f      	bhi.n	80040b0 <HAL_HCD_HC_SubmitRequest+0x8c>
 8004070:	a601      	add	r6, pc, #4	; (adr r6, 8004078 <HAL_HCD_HC_SubmitRequest+0x54>)
 8004072:	f856 f023 	ldr.w	pc, [r6, r3, lsl #2]
 8004076:	bf00      	nop
 8004078:	08004089 	.word	0x08004089
 800407c:	0800405b 	.word	0x0800405b
 8004080:	080040d9 	.word	0x080040d9
 8004084:	080040d9 	.word	0x080040d9
 8004088:	2f01      	cmp	r7, #1
 800408a:	d111      	bne.n	80040b0 <HAL_HCD_HC_SubmitRequest+0x8c>
 800408c:	b982      	cbnz	r2, 80040b0 <HAL_HCD_HC_SubmitRequest+0x8c>
 800408e:	232c      	movs	r3, #44	; 0x2c
 8004090:	fb03 0301 	mla	r3, r3, r1, r0
 8004094:	b934      	cbnz	r4, 80040a4 <HAL_HCD_HC_SubmitRequest+0x80>
 8004096:	f883 7055 	strb.w	r7, [r3, #85]	; 0x55
 800409a:	232c      	movs	r3, #44	; 0x2c
 800409c:	fb03 0301 	mla	r3, r3, r1, r0
 80040a0:	2202      	movs	r2, #2
 80040a2:	e003      	b.n	80040ac <HAL_HCD_HC_SubmitRequest+0x88>
 80040a4:	f893 6055 	ldrb.w	r6, [r3, #85]	; 0x55
 80040a8:	2e00      	cmp	r6, #0
 80040aa:	d1f6      	bne.n	800409a <HAL_HCD_HC_SubmitRequest+0x76>
 80040ac:	f883 2042 	strb.w	r2, [r3, #66]	; 0x42
 80040b0:	262c      	movs	r6, #44	; 0x2c
 80040b2:	fb06 0301 	mla	r3, r6, r1, r0
 80040b6:	2200      	movs	r2, #0
 80040b8:	f883 1039 	strb.w	r1, [r3, #57]	; 0x39
 80040bc:	f883 2060 	strb.w	r2, [r3, #96]	; 0x60
 80040c0:	f883 2061 	strb.w	r2, [r3, #97]	; 0x61
 80040c4:	4619      	mov	r1, r3
 80040c6:	645d      	str	r5, [r3, #68]	; 0x44
 80040c8:	64dc      	str	r4, [r3, #76]	; 0x4c
 80040ca:	651a      	str	r2, [r3, #80]	; 0x50
 80040cc:	bcf0      	pop	{r4, r5, r6, r7}
 80040ce:	7c02      	ldrb	r2, [r0, #16]
 80040d0:	6800      	ldr	r0, [r0, #0]
 80040d2:	3138      	adds	r1, #56	; 0x38
 80040d4:	f003 bd98 	b.w	8007c08 <USB_HC_StartXfer>
 80040d8:	232c      	movs	r3, #44	; 0x2c
 80040da:	fb03 0301 	mla	r3, r3, r1, r0
 80040de:	b922      	cbnz	r2, 80040ea <HAL_HCD_HC_SubmitRequest+0xc6>
 80040e0:	f893 6055 	ldrb.w	r6, [r3, #85]	; 0x55
 80040e4:	2e00      	cmp	r6, #0
 80040e6:	d1db      	bne.n	80040a0 <HAL_HCD_HC_SubmitRequest+0x7c>
 80040e8:	e7e0      	b.n	80040ac <HAL_HCD_HC_SubmitRequest+0x88>
 80040ea:	f893 2054 	ldrb.w	r2, [r3, #84]	; 0x54
 80040ee:	2a00      	cmp	r2, #0
 80040f0:	d1d6      	bne.n	80040a0 <HAL_HCD_HC_SubmitRequest+0x7c>
 80040f2:	e7db      	b.n	80040ac <HAL_HCD_HC_SubmitRequest+0x88>

080040f4 <HAL_HCD_IRQHandler>:
 80040f4:	e92d 4ff0 	stmdb	sp!, {r4, r5, r6, r7, r8, r9, sl, fp, lr}
 80040f8:	f8d0 9000 	ldr.w	r9, [r0]
 80040fc:	b085      	sub	sp, #20
 80040fe:	4605      	mov	r5, r0
 8004100:	4648      	mov	r0, r9
 8004102:	f003 fbbd 	bl	8007880 <USB_GetMode>
 8004106:	2801      	cmp	r0, #1
 8004108:	f040 80f6 	bne.w	80042f8 <HAL_HCD_IRQHandler+0x204>
 800410c:	6828      	ldr	r0, [r5, #0]
 800410e:	f003 fbb3 	bl	8007878 <USB_ReadInterrupts>
 8004112:	2800      	cmp	r0, #0
 8004114:	f000 80f0 	beq.w	80042f8 <HAL_HCD_IRQHandler+0x204>
 8004118:	6828      	ldr	r0, [r5, #0]
 800411a:	f003 fbad 	bl	8007878 <USB_ReadInterrupts>
 800411e:	0281      	lsls	r1, r0, #10
 8004120:	bf48      	it	mi
 8004122:	682b      	ldrmi	r3, [r5, #0]
 8004124:	6828      	ldr	r0, [r5, #0]
 8004126:	bf44      	itt	mi
 8004128:	f44f 1200 	movmi.w	r2, #2097152	; 0x200000
 800412c:	615a      	strmi	r2, [r3, #20]
 800412e:	f003 fba3 	bl	8007878 <USB_ReadInterrupts>
 8004132:	02c2      	lsls	r2, r0, #11
 8004134:	bf48      	it	mi
 8004136:	682b      	ldrmi	r3, [r5, #0]
 8004138:	6828      	ldr	r0, [r5, #0]
 800413a:	bf44      	itt	mi
 800413c:	f44f 1280 	movmi.w	r2, #1048576	; 0x100000
 8004140:	615a      	strmi	r2, [r3, #20]
 8004142:	f003 fb99 	bl	8007878 <USB_ReadInterrupts>
 8004146:	0143      	lsls	r3, r0, #5
 8004148:	bf48      	it	mi
 800414a:	682b      	ldrmi	r3, [r5, #0]
 800414c:	6828      	ldr	r0, [r5, #0]
 800414e:	bf44      	itt	mi
 8004150:	f04f 6280 	movmi.w	r2, #67108864	; 0x4000000
 8004154:	615a      	strmi	r2, [r3, #20]
 8004156:	f003 fb8f 	bl	8007878 <USB_ReadInterrupts>
 800415a:	0787      	lsls	r7, r0, #30
 800415c:	bf48      	it	mi
 800415e:	682b      	ldrmi	r3, [r5, #0]
 8004160:	6828      	ldr	r0, [r5, #0]
 8004162:	bf44      	itt	mi
 8004164:	2202      	movmi	r2, #2
 8004166:	615a      	strmi	r2, [r3, #20]
 8004168:	f003 fb86 	bl	8007878 <USB_ReadInterrupts>
 800416c:	0086      	lsls	r6, r0, #2
 800416e:	d515      	bpl.n	800419c <HAL_HCD_IRQHandler+0xa8>
 8004170:	682b      	ldr	r3, [r5, #0]
 8004172:	f04f 5200 	mov.w	r2, #536870912	; 0x20000000
 8004176:	615a      	str	r2, [r3, #20]
 8004178:	f8d9 3440 	ldr.w	r3, [r9, #1088]	; 0x440
 800417c:	07dc      	lsls	r4, r3, #31
 800417e:	d40d      	bmi.n	800419c <HAL_HCD_IRQHandler+0xa8>
 8004180:	2110      	movs	r1, #16
 8004182:	4648      	mov	r0, r9
 8004184:	f003 fb14 	bl	80077b0 <USB_FlushTxFifo>
 8004188:	4648      	mov	r0, r9
 800418a:	f003 fb29 	bl	80077e0 <USB_FlushRxFifo>
 800418e:	6828      	ldr	r0, [r5, #0]
 8004190:	2101      	movs	r1, #1
 8004192:	f003 fbdf 	bl	8007954 <USB_InitFSLSPClkSel>
 8004196:	4628      	mov	r0, r5
 8004198:	f004 fd8c 	bl	8008cb4 <HAL_HCD_Disconnect_Callback>
 800419c:	6828      	ldr	r0, [r5, #0]
 800419e:	f003 fb6b 	bl	8007878 <USB_ReadInterrupts>
 80041a2:	01c0      	lsls	r0, r0, #7
 80041a4:	d53d      	bpl.n	8004222 <HAL_HCD_IRQHandler+0x12e>
 80041a6:	682c      	ldr	r4, [r5, #0]
 80041a8:	f8d4 3440 	ldr.w	r3, [r4, #1088]	; 0x440
 80041ac:	9302      	str	r3, [sp, #8]
 80041ae:	f8d4 3440 	ldr.w	r3, [r4, #1088]	; 0x440
 80041b2:	9303      	str	r3, [sp, #12]
 80041b4:	9b03      	ldr	r3, [sp, #12]
 80041b6:	f023 032e 	bic.w	r3, r3, #46	; 0x2e
 80041ba:	9303      	str	r3, [sp, #12]
 80041bc:	9b02      	ldr	r3, [sp, #8]
 80041be:	0799      	lsls	r1, r3, #30
 80041c0:	d509      	bpl.n	80041d6 <HAL_HCD_IRQHandler+0xe2>
 80041c2:	9b02      	ldr	r3, [sp, #8]
 80041c4:	07da      	lsls	r2, r3, #31
 80041c6:	d502      	bpl.n	80041ce <HAL_HCD_IRQHandler+0xda>
 80041c8:	4628      	mov	r0, r5
 80041ca:	f004 fd6f 	bl	8008cac <HAL_HCD_Connect_Callback>
 80041ce:	9b03      	ldr	r3, [sp, #12]
 80041d0:	f043 0302 	orr.w	r3, r3, #2
 80041d4:	9303      	str	r3, [sp, #12]
 80041d6:	9b02      	ldr	r3, [sp, #8]
 80041d8:	071b      	lsls	r3, r3, #28
 80041da:	d518      	bpl.n	800420e <HAL_HCD_IRQHandler+0x11a>
 80041dc:	9b03      	ldr	r3, [sp, #12]
 80041de:	f043 0308 	orr.w	r3, r3, #8
 80041e2:	9303      	str	r3, [sp, #12]
 80041e4:	9b02      	ldr	r3, [sp, #8]
 80041e6:	075f      	lsls	r7, r3, #29
 80041e8:	f140 8091 	bpl.w	800430e <HAL_HCD_IRQHandler+0x21a>
 80041ec:	69a9      	ldr	r1, [r5, #24]
 80041ee:	2902      	cmp	r1, #2
 80041f0:	f040 8085 	bne.w	80042fe <HAL_HCD_IRQHandler+0x20a>
 80041f4:	9b02      	ldr	r3, [sp, #8]
 80041f6:	6828      	ldr	r0, [r5, #0]
 80041f8:	f403 23c0 	and.w	r3, r3, #393216	; 0x60000
 80041fc:	f5b3 2f80 	cmp.w	r3, #262144	; 0x40000
 8004200:	bf18      	it	ne
 8004202:	2101      	movne	r1, #1
 8004204:	f003 fba6 	bl	8007954 <USB_InitFSLSPClkSel>
 8004208:	4628      	mov	r0, r5
 800420a:	f004 fd58 	bl	8008cbe <HAL_HCD_PortEnabled_Callback>
 800420e:	9b02      	ldr	r3, [sp, #8]
 8004210:	069e      	lsls	r6, r3, #26
 8004212:	bf42      	ittt	mi
 8004214:	9b03      	ldrmi	r3, [sp, #12]
 8004216:	f043 0320 	orrmi.w	r3, r3, #32
 800421a:	9303      	strmi	r3, [sp, #12]
 800421c:	9b03      	ldr	r3, [sp, #12]
 800421e:	f8c4 3440 	str.w	r3, [r4, #1088]	; 0x440
 8004222:	6828      	ldr	r0, [r5, #0]
 8004224:	f003 fb28 	bl	8007878 <USB_ReadInterrupts>
 8004228:	0704      	lsls	r4, r0, #28
 800422a:	d505      	bpl.n	8004238 <HAL_HCD_IRQHandler+0x144>
 800422c:	4628      	mov	r0, r5
 800422e:	f004 fd39 	bl	8008ca4 <HAL_HCD_SOF_Callback>
 8004232:	682b      	ldr	r3, [r5, #0]
 8004234:	2208      	movs	r2, #8
 8004236:	615a      	str	r2, [r3, #20]
 8004238:	6828      	ldr	r0, [r5, #0]
 800423a:	f003 fb1d 	bl	8007878 <USB_ReadInterrupts>
 800423e:	06c0      	lsls	r0, r0, #27
 8004240:	d542      	bpl.n	80042c8 <HAL_HCD_IRQHandler+0x1d4>
 8004242:	682e      	ldr	r6, [r5, #0]
 8004244:	69b3      	ldr	r3, [r6, #24]
 8004246:	f023 0310 	bic.w	r3, r3, #16
 800424a:	61b3      	str	r3, [r6, #24]
 800424c:	6a37      	ldr	r7, [r6, #32]
 800424e:	f3c7 4343 	ubfx	r3, r7, #17, #4
 8004252:	2b02      	cmp	r3, #2
 8004254:	d133      	bne.n	80042be <HAL_HCD_IRQHandler+0x1ca>
 8004256:	f3c7 180a 	ubfx	r8, r7, #4, #11
 800425a:	f1b8 0f00 	cmp.w	r8, #0
 800425e:	d02e      	beq.n	80042be <HAL_HCD_IRQHandler+0x1ca>
 8004260:	f007 070f 	and.w	r7, r7, #15
 8004264:	242c      	movs	r4, #44	; 0x2c
 8004266:	fb04 5407 	mla	r4, r4, r7, r5
 800426a:	6c61      	ldr	r1, [r4, #68]	; 0x44
 800426c:	b339      	cbz	r1, 80042be <HAL_HCD_IRQHandler+0x1ca>
 800426e:	6d23      	ldr	r3, [r4, #80]	; 0x50
 8004270:	6ce2      	ldr	r2, [r4, #76]	; 0x4c
 8004272:	4443      	add	r3, r8
 8004274:	4293      	cmp	r3, r2
 8004276:	d84e      	bhi.n	8004316 <HAL_HCD_IRQHandler+0x222>
 8004278:	4642      	mov	r2, r8
 800427a:	4630      	mov	r0, r6
 800427c:	f003 fad9 	bl	8007832 <USB_ReadPacket>
 8004280:	6c63      	ldr	r3, [r4, #68]	; 0x44
 8004282:	f8b4 1040 	ldrh.w	r1, [r4, #64]	; 0x40
 8004286:	4443      	add	r3, r8
 8004288:	6463      	str	r3, [r4, #68]	; 0x44
 800428a:	f506 66a0 	add.w	r6, r6, #1280	; 0x500
 800428e:	6d23      	ldr	r3, [r4, #80]	; 0x50
 8004290:	017a      	lsls	r2, r7, #5
 8004292:	eb06 1747 	add.w	r7, r6, r7, lsl #5
 8004296:	4443      	add	r3, r8
 8004298:	4588      	cmp	r8, r1
 800429a:	6523      	str	r3, [r4, #80]	; 0x50
 800429c:	693b      	ldr	r3, [r7, #16]
 800429e:	d10e      	bne.n	80042be <HAL_HCD_IRQHandler+0x1ca>
 80042a0:	f3c3 43c9 	ubfx	r3, r3, #19, #10
 80042a4:	b15b      	cbz	r3, 80042be <HAL_HCD_IRQHandler+0x1ca>
 80042a6:	5993      	ldr	r3, [r2, r6]
 80042a8:	f023 4380 	bic.w	r3, r3, #1073741824	; 0x40000000
 80042ac:	f043 4300 	orr.w	r3, r3, #2147483648	; 0x80000000
 80042b0:	5193      	str	r3, [r2, r6]
 80042b2:	f894 3054 	ldrb.w	r3, [r4, #84]	; 0x54
 80042b6:	f083 0301 	eor.w	r3, r3, #1
 80042ba:	f884 3054 	strb.w	r3, [r4, #84]	; 0x54
 80042be:	682a      	ldr	r2, [r5, #0]
 80042c0:	6993      	ldr	r3, [r2, #24]
 80042c2:	f043 0310 	orr.w	r3, r3, #16
 80042c6:	6193      	str	r3, [r2, #24]
 80042c8:	6828      	ldr	r0, [r5, #0]
 80042ca:	f003 fad5 	bl	8007878 <USB_ReadInterrupts>
 80042ce:	0181      	lsls	r1, r0, #6
 80042d0:	d512      	bpl.n	80042f8 <HAL_HCD_IRQHandler+0x204>
 80042d2:	6828      	ldr	r0, [r5, #0]
 80042d4:	f003 fc22 	bl	8007b1c <USB_HC_ReadInterrupt>
 80042d8:	f509 63a0 	add.w	r3, r9, #1280	; 0x500
 80042dc:	9000      	str	r0, [sp, #0]
 80042de:	f04f 0a00 	mov.w	sl, #0
 80042e2:	9301      	str	r3, [sp, #4]
 80042e4:	272c      	movs	r7, #44	; 0x2c
 80042e6:	f04f 0802 	mov.w	r8, #2
 80042ea:	68ab      	ldr	r3, [r5, #8]
 80042ec:	6828      	ldr	r0, [r5, #0]
 80042ee:	4553      	cmp	r3, sl
 80042f0:	d815      	bhi.n	800431e <HAL_HCD_IRQHandler+0x22a>
 80042f2:	f04f 7300 	mov.w	r3, #33554432	; 0x2000000
 80042f6:	6143      	str	r3, [r0, #20]
 80042f8:	b005      	add	sp, #20
 80042fa:	e8bd 8ff0 	ldmia.w	sp!, {r4, r5, r6, r7, r8, r9, sl, fp, pc}
 80042fe:	68eb      	ldr	r3, [r5, #12]
 8004300:	2b01      	cmp	r3, #1
 8004302:	bf04      	itt	eq
 8004304:	f64e 2260 	movweq	r2, #60000	; 0xea60
 8004308:	f8c4 2404 	streq.w	r2, [r4, #1028]	; 0x404
 800430c:	e77c      	b.n	8004208 <HAL_HCD_IRQHandler+0x114>
 800430e:	4628      	mov	r0, r5
 8004310:	f004 fcd9 	bl	8008cc6 <HAL_HCD_PortDisabled_Callback>
 8004314:	e77b      	b.n	800420e <HAL_HCD_IRQHandler+0x11a>
 8004316:	2304      	movs	r3, #4
 8004318:	f884 3060 	strb.w	r3, [r4, #96]	; 0x60
 800431c:	e7cf      	b.n	80042be <HAL_HCD_IRQHandler+0x1ca>
 800431e:	9a00      	ldr	r2, [sp, #0]
 8004320:	f00a 030f 	and.w	r3, sl, #15
 8004324:	fa22 f303 	lsr.w	r3, r2, r3
 8004328:	07da      	lsls	r2, r3, #31
 800432a:	f140 80af 	bpl.w	800448c <HAL_HCD_IRQHandler+0x398>
 800432e:	9a01      	ldr	r2, [sp, #4]
 8004330:	ea4f 134a 	mov.w	r3, sl, lsl #5
 8004334:	fa5f f68a 	uxtb.w	r6, sl
 8004338:	58d1      	ldr	r1, [r2, r3]
 800433a:	f500 6ba0 	add.w	fp, r0, #1280	; 0x500
 800433e:	eb0b 1446 	add.w	r4, fp, r6, lsl #5
 8004342:	f411 4f00 	tst.w	r1, #32768	; 0x8000
 8004346:	ea4f 1946 	mov.w	r9, r6, lsl #5
 800434a:	68a1      	ldr	r1, [r4, #8]
 800434c:	f000 811c 	beq.w	8004588 <HAL_HCD_IRQHandler+0x494>
 8004350:	074b      	lsls	r3, r1, #29
 8004352:	d513      	bpl.n	800437c <HAL_HCD_IRQHandler+0x288>
 8004354:	2104      	movs	r1, #4
 8004356:	60a1      	str	r1, [r4, #8]
 8004358:	68e1      	ldr	r1, [r4, #12]
 800435a:	f041 0102 	orr.w	r1, r1, #2
 800435e:	60e1      	str	r1, [r4, #12]
 8004360:	68a1      	ldr	r1, [r4, #8]
 8004362:	058b      	lsls	r3, r1, #22
 8004364:	d55a      	bpl.n	800441c <HAL_HCD_IRQHandler+0x328>
 8004366:	68e3      	ldr	r3, [r4, #12]
 8004368:	6828      	ldr	r0, [r5, #0]
 800436a:	f043 0302 	orr.w	r3, r3, #2
 800436e:	60e3      	str	r3, [r4, #12]
 8004370:	4631      	mov	r1, r6
 8004372:	f003 fbd8 	bl	8007b26 <USB_HC_Halt>
 8004376:	f44f 7300 	mov.w	r3, #512	; 0x200
 800437a:	e0f8      	b.n	800456e <HAL_HCD_IRQHandler+0x47a>
 800437c:	68a1      	ldr	r1, [r4, #8]
 800437e:	05c9      	lsls	r1, r1, #23
 8004380:	d510      	bpl.n	80043a4 <HAL_HCD_IRQHandler+0x2b0>
 8004382:	f44f 7180 	mov.w	r1, #256	; 0x100
 8004386:	60a1      	str	r1, [r4, #8]
 8004388:	fb07 5106 	mla	r1, r7, r6, r5
 800438c:	f04f 0c07 	mov.w	ip, #7
 8004390:	f881 c061 	strb.w	ip, [r1, #97]	; 0x61
 8004394:	68e1      	ldr	r1, [r4, #12]
 8004396:	f041 0102 	orr.w	r1, r1, #2
 800439a:	60e1      	str	r1, [r4, #12]
 800439c:	4631      	mov	r1, r6
 800439e:	f003 fbc2 	bl	8007b26 <USB_HC_Halt>
 80043a2:	e7dd      	b.n	8004360 <HAL_HCD_IRQHandler+0x26c>
 80043a4:	68a1      	ldr	r1, [r4, #8]
 80043a6:	068a      	lsls	r2, r1, #26
 80043a8:	d502      	bpl.n	80043b0 <HAL_HCD_IRQHandler+0x2bc>
 80043aa:	2120      	movs	r1, #32
 80043ac:	60a1      	str	r1, [r4, #8]
 80043ae:	e7d7      	b.n	8004360 <HAL_HCD_IRQHandler+0x26c>
 80043b0:	68a1      	ldr	r1, [r4, #8]
 80043b2:	070b      	lsls	r3, r1, #28
 80043b4:	d50e      	bpl.n	80043d4 <HAL_HCD_IRQHandler+0x2e0>
 80043b6:	68e1      	ldr	r1, [r4, #12]
 80043b8:	f041 0102 	orr.w	r1, r1, #2
 80043bc:	60e1      	str	r1, [r4, #12]
 80043be:	fb07 5106 	mla	r1, r7, r6, r5
 80043c2:	f04f 0c05 	mov.w	ip, #5
 80043c6:	f881 c061 	strb.w	ip, [r1, #97]	; 0x61
 80043ca:	2110      	movs	r1, #16
 80043cc:	60a1      	str	r1, [r4, #8]
 80043ce:	2108      	movs	r1, #8
 80043d0:	60a1      	str	r1, [r4, #8]
 80043d2:	e7e3      	b.n	800439c <HAL_HCD_IRQHandler+0x2a8>
 80043d4:	68a1      	ldr	r1, [r4, #8]
 80043d6:	0549      	lsls	r1, r1, #21
 80043d8:	d50e      	bpl.n	80043f8 <HAL_HCD_IRQHandler+0x304>
 80043da:	68e1      	ldr	r1, [r4, #12]
 80043dc:	f041 0102 	orr.w	r1, r1, #2
 80043e0:	60e1      	str	r1, [r4, #12]
 80043e2:	fb07 5106 	mla	r1, r7, r6, r5
 80043e6:	f04f 0c08 	mov.w	ip, #8
 80043ea:	f881 c061 	strb.w	ip, [r1, #97]	; 0x61
 80043ee:	2110      	movs	r1, #16
 80043f0:	60a1      	str	r1, [r4, #8]
 80043f2:	f44f 6180 	mov.w	r1, #1024	; 0x400
 80043f6:	e7eb      	b.n	80043d0 <HAL_HCD_IRQHandler+0x2dc>
 80043f8:	68a1      	ldr	r1, [r4, #8]
 80043fa:	060a      	lsls	r2, r1, #24
 80043fc:	d5b0      	bpl.n	8004360 <HAL_HCD_IRQHandler+0x26c>
 80043fe:	68e1      	ldr	r1, [r4, #12]
 8004400:	f041 0102 	orr.w	r1, r1, #2
 8004404:	60e1      	str	r1, [r4, #12]
 8004406:	fb07 5106 	mla	r1, r7, r6, r5
 800440a:	f04f 0c06 	mov.w	ip, #6
 800440e:	f881 c061 	strb.w	ip, [r1, #97]	; 0x61
 8004412:	4631      	mov	r1, r6
 8004414:	f003 fb87 	bl	8007b26 <USB_HC_Halt>
 8004418:	2180      	movs	r1, #128	; 0x80
 800441a:	e7c7      	b.n	80043ac <HAL_HCD_IRQHandler+0x2b8>
 800441c:	68a1      	ldr	r1, [r4, #8]
 800441e:	07c8      	lsls	r0, r1, #31
 8004420:	d552      	bpl.n	80044c8 <HAL_HCD_IRQHandler+0x3d4>
 8004422:	6929      	ldr	r1, [r5, #16]
 8004424:	b149      	cbz	r1, 800443a <HAL_HCD_IRQHandler+0x346>
 8004426:	fb07 5c06 	mla	ip, r7, r6, r5
 800442a:	6920      	ldr	r0, [r4, #16]
 800442c:	f8dc 1048 	ldr.w	r1, [ip, #72]	; 0x48
 8004430:	f3c0 0012 	ubfx	r0, r0, #0, #19
 8004434:	1a09      	subs	r1, r1, r0
 8004436:	f8cc 1050 	str.w	r1, [ip, #80]	; 0x50
 800443a:	fb07 5106 	mla	r1, r7, r6, r5
 800443e:	2301      	movs	r3, #1
 8004440:	2000      	movs	r0, #0
 8004442:	f881 3061 	strb.w	r3, [r1, #97]	; 0x61
 8004446:	65c8      	str	r0, [r1, #92]	; 0x5c
 8004448:	60a3      	str	r3, [r4, #8]
 800444a:	f891 203f 	ldrb.w	r2, [r1, #63]	; 0x3f
 800444e:	f012 0ffd 	tst.w	r2, #253	; 0xfd
 8004452:	d11e      	bne.n	8004492 <HAL_HCD_IRQHandler+0x39e>
 8004454:	68e3      	ldr	r3, [r4, #12]
 8004456:	6828      	ldr	r0, [r5, #0]
 8004458:	f043 0302 	orr.w	r3, r3, #2
 800445c:	60e3      	str	r3, [r4, #12]
 800445e:	4631      	mov	r1, r6
 8004460:	f003 fb61 	bl	8007b26 <USB_HC_Halt>
 8004464:	2310      	movs	r3, #16
 8004466:	60a3      	str	r3, [r4, #8]
 8004468:	692b      	ldr	r3, [r5, #16]
 800446a:	2b01      	cmp	r3, #1
 800446c:	fb07 5606 	mla	r6, r7, r6, r5
 8004470:	d106      	bne.n	8004480 <HAL_HCD_IRQHandler+0x38c>
 8004472:	f8b6 2040 	ldrh.w	r2, [r6, #64]	; 0x40
 8004476:	6cb3      	ldr	r3, [r6, #72]	; 0x48
 8004478:	fbb3 f3f2 	udiv	r3, r3, r2
 800447c:	07d9      	lsls	r1, r3, #31
 800447e:	d505      	bpl.n	800448c <HAL_HCD_IRQHandler+0x398>
 8004480:	f896 3054 	ldrb.w	r3, [r6, #84]	; 0x54
 8004484:	f083 0301 	eor.w	r3, r3, #1
 8004488:	f886 3054 	strb.w	r3, [r6, #84]	; 0x54
 800448c:	f10a 0a01 	add.w	sl, sl, #1
 8004490:	e72b      	b.n	80042ea <HAL_HCD_IRQHandler+0x1f6>
 8004492:	2a03      	cmp	r2, #3
 8004494:	d10d      	bne.n	80044b2 <HAL_HCD_IRQHandler+0x3be>
 8004496:	f859 000b 	ldr.w	r0, [r9, fp]
 800449a:	f040 5000 	orr.w	r0, r0, #536870912	; 0x20000000
 800449e:	f849 000b 	str.w	r0, [r9, fp]
 80044a2:	461a      	mov	r2, r3
 80044a4:	f881 3060 	strb.w	r3, [r1, #96]	; 0x60
 80044a8:	4631      	mov	r1, r6
 80044aa:	4628      	mov	r0, r5
 80044ac:	f004 fc06 	bl	8008cbc <HAL_HCD_HC_NotifyURBChange_Callback>
 80044b0:	e7da      	b.n	8004468 <HAL_HCD_IRQHandler+0x374>
 80044b2:	2a01      	cmp	r2, #1
 80044b4:	d1d8      	bne.n	8004468 <HAL_HCD_IRQHandler+0x374>
 80044b6:	f891 3054 	ldrb.w	r3, [r1, #84]	; 0x54
 80044ba:	f881 2060 	strb.w	r2, [r1, #96]	; 0x60
 80044be:	f083 0301 	eor.w	r3, r3, #1
 80044c2:	f881 3054 	strb.w	r3, [r1, #84]	; 0x54
 80044c6:	e7ef      	b.n	80044a8 <HAL_HCD_IRQHandler+0x3b4>
 80044c8:	68a1      	ldr	r1, [r4, #8]
 80044ca:	f011 0102 	ands.w	r1, r1, #2
 80044ce:	d03b      	beq.n	8004548 <HAL_HCD_IRQHandler+0x454>
 80044d0:	68e1      	ldr	r1, [r4, #12]
 80044d2:	fb07 5006 	mla	r0, r7, r6, r5
 80044d6:	f021 0102 	bic.w	r1, r1, #2
 80044da:	60e1      	str	r1, [r4, #12]
 80044dc:	f890 1061 	ldrb.w	r1, [r0, #97]	; 0x61
 80044e0:	2901      	cmp	r1, #1
 80044e2:	d10c      	bne.n	80044fe <HAL_HCD_IRQHandler+0x40a>
 80044e4:	f880 1060 	strb.w	r1, [r0, #96]	; 0x60
 80044e8:	fb07 5306 	mla	r3, r7, r6, r5
 80044ec:	f8c4 8008 	str.w	r8, [r4, #8]
 80044f0:	f893 2060 	ldrb.w	r2, [r3, #96]	; 0x60
 80044f4:	4631      	mov	r1, r6
 80044f6:	4628      	mov	r0, r5
 80044f8:	f004 fbe0 	bl	8008cbc <HAL_HCD_HC_NotifyURBChange_Callback>
 80044fc:	e7c6      	b.n	800448c <HAL_HCD_IRQHandler+0x398>
 80044fe:	2905      	cmp	r1, #5
 8004500:	d0f0      	beq.n	80044e4 <HAL_HCD_IRQHandler+0x3f0>
 8004502:	2906      	cmp	r1, #6
 8004504:	d001      	beq.n	800450a <HAL_HCD_IRQHandler+0x416>
 8004506:	2908      	cmp	r1, #8
 8004508:	d108      	bne.n	800451c <HAL_HCD_IRQHandler+0x428>
 800450a:	fb07 5006 	mla	r0, r7, r6, r5
 800450e:	6dc1      	ldr	r1, [r0, #92]	; 0x5c
 8004510:	3101      	adds	r1, #1
 8004512:	2902      	cmp	r1, #2
 8004514:	65c1      	str	r1, [r0, #92]	; 0x5c
 8004516:	d903      	bls.n	8004520 <HAL_HCD_IRQHandler+0x42c>
 8004518:	2300      	movs	r3, #0
 800451a:	e010      	b.n	800453e <HAL_HCD_IRQHandler+0x44a>
 800451c:	2903      	cmp	r1, #3
 800451e:	d10a      	bne.n	8004536 <HAL_HCD_IRQHandler+0x442>
 8004520:	f880 8060 	strb.w	r8, [r0, #96]	; 0x60
 8004524:	f859 100b 	ldr.w	r1, [r9, fp]
 8004528:	f021 4180 	bic.w	r1, r1, #1073741824	; 0x40000000
 800452c:	f041 4100 	orr.w	r1, r1, #2147483648	; 0x80000000
 8004530:	f849 100b 	str.w	r1, [r9, fp]
 8004534:	e7d8      	b.n	80044e8 <HAL_HCD_IRQHandler+0x3f4>
 8004536:	2907      	cmp	r1, #7
 8004538:	d1d6      	bne.n	80044e8 <HAL_HCD_IRQHandler+0x3f4>
 800453a:	6dc3      	ldr	r3, [r0, #92]	; 0x5c
 800453c:	3301      	adds	r3, #1
 800453e:	65c3      	str	r3, [r0, #92]	; 0x5c
 8004540:	2304      	movs	r3, #4
 8004542:	f880 3060 	strb.w	r3, [r0, #96]	; 0x60
 8004546:	e7cf      	b.n	80044e8 <HAL_HCD_IRQHandler+0x3f4>
 8004548:	68a3      	ldr	r3, [r4, #8]
 800454a:	06da      	lsls	r2, r3, #27
 800454c:	d59e      	bpl.n	800448c <HAL_HCD_IRQHandler+0x398>
 800454e:	fb07 5206 	mla	r2, r7, r6, r5
 8004552:	6828      	ldr	r0, [r5, #0]
 8004554:	f892 303f 	ldrb.w	r3, [r2, #63]	; 0x3f
 8004558:	2b03      	cmp	r3, #3
 800455a:	d10a      	bne.n	8004572 <HAL_HCD_IRQHandler+0x47e>
 800455c:	65d1      	str	r1, [r2, #92]	; 0x5c
 800455e:	68e3      	ldr	r3, [r4, #12]
 8004560:	f043 0302 	orr.w	r3, r3, #2
 8004564:	60e3      	str	r3, [r4, #12]
 8004566:	4631      	mov	r1, r6
 8004568:	f003 fadd 	bl	8007b26 <USB_HC_Halt>
 800456c:	2310      	movs	r3, #16
 800456e:	60a3      	str	r3, [r4, #8]
 8004570:	e78c      	b.n	800448c <HAL_HCD_IRQHandler+0x398>
 8004572:	f013 03fd 	ands.w	r3, r3, #253	; 0xfd
 8004576:	d1f9      	bne.n	800456c <HAL_HCD_IRQHandler+0x478>
 8004578:	65d3      	str	r3, [r2, #92]	; 0x5c
 800457a:	692b      	ldr	r3, [r5, #16]
 800457c:	2b00      	cmp	r3, #0
 800457e:	d1f5      	bne.n	800456c <HAL_HCD_IRQHandler+0x478>
 8004580:	2303      	movs	r3, #3
 8004582:	f882 3061 	strb.w	r3, [r2, #97]	; 0x61
 8004586:	e7ea      	b.n	800455e <HAL_HCD_IRQHandler+0x46a>
 8004588:	f011 0104 	ands.w	r1, r1, #4
 800458c:	d006      	beq.n	800459c <HAL_HCD_IRQHandler+0x4a8>
 800458e:	2304      	movs	r3, #4
 8004590:	60a3      	str	r3, [r4, #8]
 8004592:	68e3      	ldr	r3, [r4, #12]
 8004594:	f043 0302 	orr.w	r3, r3, #2
 8004598:	60e3      	str	r3, [r4, #12]
 800459a:	e777      	b.n	800448c <HAL_HCD_IRQHandler+0x398>
 800459c:	68a3      	ldr	r3, [r4, #8]
 800459e:	069b      	lsls	r3, r3, #26
 80045a0:	d514      	bpl.n	80045cc <HAL_HCD_IRQHandler+0x4d8>
 80045a2:	2320      	movs	r3, #32
 80045a4:	60a3      	str	r3, [r4, #8]
 80045a6:	fb07 5306 	mla	r3, r7, r6, r5
 80045aa:	f893 203d 	ldrb.w	r2, [r3, #61]	; 0x3d
 80045ae:	2a01      	cmp	r2, #1
 80045b0:	f47f af6c 	bne.w	800448c <HAL_HCD_IRQHandler+0x398>
 80045b4:	f883 103d 	strb.w	r1, [r3, #61]	; 0x3d
 80045b8:	f883 8060 	strb.w	r8, [r3, #96]	; 0x60
 80045bc:	68e3      	ldr	r3, [r4, #12]
 80045be:	f043 0302 	orr.w	r3, r3, #2
 80045c2:	60e3      	str	r3, [r4, #12]
 80045c4:	4631      	mov	r1, r6
 80045c6:	f003 faae 	bl	8007b26 <USB_HC_Halt>
 80045ca:	e75f      	b.n	800448c <HAL_HCD_IRQHandler+0x398>
 80045cc:	68a2      	ldr	r2, [r4, #8]
 80045ce:	f412 7200 	ands.w	r2, r2, #512	; 0x200
 80045d2:	d005      	beq.n	80045e0 <HAL_HCD_IRQHandler+0x4ec>
 80045d4:	68e3      	ldr	r3, [r4, #12]
 80045d6:	f043 0302 	orr.w	r3, r3, #2
 80045da:	60e3      	str	r3, [r4, #12]
 80045dc:	4631      	mov	r1, r6
 80045de:	e6c8      	b.n	8004372 <HAL_HCD_IRQHandler+0x27e>
 80045e0:	68a1      	ldr	r1, [r4, #8]
 80045e2:	f011 0101 	ands.w	r1, r1, #1
 80045e6:	d018      	beq.n	800461a <HAL_HCD_IRQHandler+0x526>
 80045e8:	fb07 5306 	mla	r3, r7, r6, r5
 80045ec:	4631      	mov	r1, r6
 80045ee:	65da      	str	r2, [r3, #92]	; 0x5c
 80045f0:	68a2      	ldr	r2, [r4, #8]
 80045f2:	0652      	lsls	r2, r2, #25
 80045f4:	bf41      	itttt	mi
 80045f6:	2201      	movmi	r2, #1
 80045f8:	f883 203d 	strbmi.w	r2, [r3, #61]	; 0x3d
 80045fc:	2340      	movmi	r3, #64	; 0x40
 80045fe:	60a3      	strmi	r3, [r4, #8]
 8004600:	68e3      	ldr	r3, [r4, #12]
 8004602:	f043 0302 	orr.w	r3, r3, #2
 8004606:	60e3      	str	r3, [r4, #12]
 8004608:	f003 fa8d 	bl	8007b26 <USB_HC_Halt>
 800460c:	2301      	movs	r3, #1
 800460e:	60a3      	str	r3, [r4, #8]
 8004610:	fb07 5606 	mla	r6, r7, r6, r5
 8004614:	f886 3061 	strb.w	r3, [r6, #97]	; 0x61
 8004618:	e738      	b.n	800448c <HAL_HCD_IRQHandler+0x398>
 800461a:	68a3      	ldr	r3, [r4, #8]
 800461c:	065b      	lsls	r3, r3, #25
 800461e:	d511      	bpl.n	8004644 <HAL_HCD_IRQHandler+0x550>
 8004620:	fb07 5306 	mla	r3, r7, r6, r5
 8004624:	2204      	movs	r2, #4
 8004626:	f883 2061 	strb.w	r2, [r3, #97]	; 0x61
 800462a:	2201      	movs	r2, #1
 800462c:	f883 203d 	strb.w	r2, [r3, #61]	; 0x3d
 8004630:	65d9      	str	r1, [r3, #92]	; 0x5c
 8004632:	68e3      	ldr	r3, [r4, #12]
 8004634:	f043 0302 	orr.w	r3, r3, #2
 8004638:	60e3      	str	r3, [r4, #12]
 800463a:	4631      	mov	r1, r6
 800463c:	f003 fa73 	bl	8007b26 <USB_HC_Halt>
 8004640:	2340      	movs	r3, #64	; 0x40
 8004642:	e794      	b.n	800456e <HAL_HCD_IRQHandler+0x47a>
 8004644:	68a1      	ldr	r1, [r4, #8]
 8004646:	0709      	lsls	r1, r1, #28
 8004648:	d50c      	bpl.n	8004664 <HAL_HCD_IRQHandler+0x570>
 800464a:	2308      	movs	r3, #8
 800464c:	60a3      	str	r3, [r4, #8]
 800464e:	68e3      	ldr	r3, [r4, #12]
 8004650:	f043 0302 	orr.w	r3, r3, #2
 8004654:	60e3      	str	r3, [r4, #12]
 8004656:	4631      	mov	r1, r6
 8004658:	f003 fa65 	bl	8007b26 <USB_HC_Halt>
 800465c:	fb07 5606 	mla	r6, r7, r6, r5
 8004660:	2305      	movs	r3, #5
 8004662:	e7d7      	b.n	8004614 <HAL_HCD_IRQHandler+0x520>
 8004664:	68a1      	ldr	r1, [r4, #8]
 8004666:	06ca      	lsls	r2, r1, #27
 8004668:	d514      	bpl.n	8004694 <HAL_HCD_IRQHandler+0x5a0>
 800466a:	fb07 5306 	mla	r3, r7, r6, r5
 800466e:	2200      	movs	r2, #0
 8004670:	65da      	str	r2, [r3, #92]	; 0x5c
 8004672:	2203      	movs	r2, #3
 8004674:	f883 2061 	strb.w	r2, [r3, #97]	; 0x61
 8004678:	f893 203d 	ldrb.w	r2, [r3, #61]	; 0x3d
 800467c:	2a00      	cmp	r2, #0
 800467e:	f47f af6e 	bne.w	800455e <HAL_HCD_IRQHandler+0x46a>
 8004682:	f893 203c 	ldrb.w	r2, [r3, #60]	; 0x3c
 8004686:	2a00      	cmp	r2, #0
 8004688:	f47f af69 	bne.w	800455e <HAL_HCD_IRQHandler+0x46a>
 800468c:	2201      	movs	r2, #1
 800468e:	f883 203d 	strb.w	r2, [r3, #61]	; 0x3d
 8004692:	e764      	b.n	800455e <HAL_HCD_IRQHandler+0x46a>
 8004694:	68a1      	ldr	r1, [r4, #8]
 8004696:	060b      	lsls	r3, r1, #24
 8004698:	d523      	bpl.n	80046e2 <HAL_HCD_IRQHandler+0x5ee>
 800469a:	692b      	ldr	r3, [r5, #16]
 800469c:	b96b      	cbnz	r3, 80046ba <HAL_HCD_IRQHandler+0x5c6>
 800469e:	fb07 5306 	mla	r3, r7, r6, r5
 80046a2:	2206      	movs	r2, #6
 80046a4:	f883 2061 	strb.w	r2, [r3, #97]	; 0x61
 80046a8:	68e3      	ldr	r3, [r4, #12]
 80046aa:	f043 0302 	orr.w	r3, r3, #2
 80046ae:	60e3      	str	r3, [r4, #12]
 80046b0:	4631      	mov	r1, r6
 80046b2:	f003 fa38 	bl	8007b26 <USB_HC_Halt>
 80046b6:	2380      	movs	r3, #128	; 0x80
 80046b8:	e759      	b.n	800456e <HAL_HCD_IRQHandler+0x47a>
 80046ba:	fb07 5306 	mla	r3, r7, r6, r5
 80046be:	6dda      	ldr	r2, [r3, #92]	; 0x5c
 80046c0:	3201      	adds	r2, #1
 80046c2:	2a02      	cmp	r2, #2
 80046c4:	65da      	str	r2, [r3, #92]	; 0x5c
 80046c6:	d909      	bls.n	80046dc <HAL_HCD_IRQHandler+0x5e8>
 80046c8:	2200      	movs	r2, #0
 80046ca:	65da      	str	r2, [r3, #92]	; 0x5c
 80046cc:	2204      	movs	r2, #4
 80046ce:	f883 2060 	strb.w	r2, [r3, #96]	; 0x60
 80046d2:	4631      	mov	r1, r6
 80046d4:	4628      	mov	r0, r5
 80046d6:	f004 faf1 	bl	8008cbc <HAL_HCD_HC_NotifyURBChange_Callback>
 80046da:	e7ec      	b.n	80046b6 <HAL_HCD_IRQHandler+0x5c2>
 80046dc:	f883 8060 	strb.w	r8, [r3, #96]	; 0x60
 80046e0:	e7e9      	b.n	80046b6 <HAL_HCD_IRQHandler+0x5c2>
 80046e2:	68a1      	ldr	r1, [r4, #8]
 80046e4:	0549      	lsls	r1, r1, #21
 80046e6:	d50f      	bpl.n	8004708 <HAL_HCD_IRQHandler+0x614>
 80046e8:	68e3      	ldr	r3, [r4, #12]
 80046ea:	f043 0302 	orr.w	r3, r3, #2
 80046ee:	60e3      	str	r3, [r4, #12]
 80046f0:	4631      	mov	r1, r6
 80046f2:	f003 fa18 	bl	8007b26 <USB_HC_Halt>
 80046f6:	2310      	movs	r3, #16
 80046f8:	60a3      	str	r3, [r4, #8]
 80046fa:	f44f 6380 	mov.w	r3, #1024	; 0x400
 80046fe:	60a3      	str	r3, [r4, #8]
 8004700:	fb07 5606 	mla	r6, r7, r6, r5
 8004704:	2308      	movs	r3, #8
 8004706:	e785      	b.n	8004614 <HAL_HCD_IRQHandler+0x520>
 8004708:	68a1      	ldr	r1, [r4, #8]
 800470a:	078a      	lsls	r2, r1, #30
 800470c:	f57f aebe 	bpl.w	800448c <HAL_HCD_IRQHandler+0x398>
 8004710:	68e1      	ldr	r1, [r4, #12]
 8004712:	f021 0102 	bic.w	r1, r1, #2
 8004716:	60e1      	str	r1, [r4, #12]
 8004718:	fb07 5106 	mla	r1, r7, r6, r5
 800471c:	f891 0061 	ldrb.w	r0, [r1, #97]	; 0x61
 8004720:	2801      	cmp	r0, #1
 8004722:	d121      	bne.n	8004768 <HAL_HCD_IRQHandler+0x674>
 8004724:	f891 303f 	ldrb.w	r3, [r1, #63]	; 0x3f
 8004728:	f881 0060 	strb.w	r0, [r1, #96]	; 0x60
 800472c:	3b02      	subs	r3, #2
 800472e:	2b01      	cmp	r3, #1
 8004730:	f63f aeda 	bhi.w	80044e8 <HAL_HCD_IRQHandler+0x3f4>
 8004734:	692b      	ldr	r3, [r5, #16]
 8004736:	b933      	cbnz	r3, 8004746 <HAL_HCD_IRQHandler+0x652>
 8004738:	f891 3055 	ldrb.w	r3, [r1, #85]	; 0x55
 800473c:	f083 0301 	eor.w	r3, r3, #1
 8004740:	f881 3055 	strb.w	r3, [r1, #85]	; 0x55
 8004744:	e6d0      	b.n	80044e8 <HAL_HCD_IRQHandler+0x3f4>
 8004746:	2b01      	cmp	r3, #1
 8004748:	f47f aece 	bne.w	80044e8 <HAL_HCD_IRQHandler+0x3f4>
 800474c:	6ccb      	ldr	r3, [r1, #76]	; 0x4c
 800474e:	2b00      	cmp	r3, #0
 8004750:	f43f aeca 	beq.w	80044e8 <HAL_HCD_IRQHandler+0x3f4>
 8004754:	f8b1 2040 	ldrh.w	r2, [r1, #64]	; 0x40
 8004758:	3b01      	subs	r3, #1
 800475a:	4413      	add	r3, r2
 800475c:	fbb3 f3f2 	udiv	r3, r3, r2
 8004760:	07db      	lsls	r3, r3, #31
 8004762:	f57f aec1 	bpl.w	80044e8 <HAL_HCD_IRQHandler+0x3f4>
 8004766:	e7e7      	b.n	8004738 <HAL_HCD_IRQHandler+0x644>
 8004768:	2803      	cmp	r0, #3
 800476a:	d102      	bne.n	8004772 <HAL_HCD_IRQHandler+0x67e>
 800476c:	f881 8060 	strb.w	r8, [r1, #96]	; 0x60
 8004770:	e6ba      	b.n	80044e8 <HAL_HCD_IRQHandler+0x3f4>
 8004772:	2804      	cmp	r0, #4
 8004774:	d0fa      	beq.n	800476c <HAL_HCD_IRQHandler+0x678>
 8004776:	2805      	cmp	r0, #5
 8004778:	d102      	bne.n	8004780 <HAL_HCD_IRQHandler+0x68c>
 800477a:	f881 0060 	strb.w	r0, [r1, #96]	; 0x60
 800477e:	e6b3      	b.n	80044e8 <HAL_HCD_IRQHandler+0x3f4>
 8004780:	2806      	cmp	r0, #6
 8004782:	f43f aec2 	beq.w	800450a <HAL_HCD_IRQHandler+0x416>
 8004786:	2808      	cmp	r0, #8
 8004788:	f47f aeae 	bne.w	80044e8 <HAL_HCD_IRQHandler+0x3f4>
 800478c:	e6bd      	b.n	800450a <HAL_HCD_IRQHandler+0x416>

0800478e <HAL_HCD_Start>:
 800478e:	b510      	push	{r4, lr}
 8004790:	f890 32f8 	ldrb.w	r3, [r0, #760]	; 0x2f8
 8004794:	2b01      	cmp	r3, #1
 8004796:	4604      	mov	r4, r0
 8004798:	d00c      	beq.n	80047b4 <HAL_HCD_Start+0x26>
 800479a:	2101      	movs	r1, #1
 800479c:	f880 12f8 	strb.w	r1, [r0, #760]	; 0x2f8
 80047a0:	6800      	ldr	r0, [r0, #0]
 80047a2:	f003 f911 	bl	80079c8 <USB_DriveVbus>
 80047a6:	6820      	ldr	r0, [r4, #0]
 80047a8:	f002 ffc6 	bl	8007738 <USB_EnableGlobalInt>
 80047ac:	2000      	movs	r0, #0
 80047ae:	f884 02f8 	strb.w	r0, [r4, #760]	; 0x2f8
 80047b2:	bd10      	pop	{r4, pc}
 80047b4:	2002      	movs	r0, #2
 80047b6:	e7fc      	b.n	80047b2 <HAL_HCD_Start+0x24>

080047b8 <HAL_HCD_Stop>:
 80047b8:	b510      	push	{r4, lr}
 80047ba:	f890 32f8 	ldrb.w	r3, [r0, #760]	; 0x2f8
 80047be:	2b01      	cmp	r3, #1
 80047c0:	4604      	mov	r4, r0
 80047c2:	d009      	beq.n	80047d8 <HAL_HCD_Stop+0x20>
 80047c4:	2301      	movs	r3, #1
 80047c6:	f880 32f8 	strb.w	r3, [r0, #760]	; 0x2f8
 80047ca:	6800      	ldr	r0, [r0, #0]
 80047cc:	f003 fac3 	bl	8007d56 <USB_StopHost>
 80047d0:	2000      	movs	r0, #0
 80047d2:	f884 02f8 	strb.w	r0, [r4, #760]	; 0x2f8
 80047d6:	bd10      	pop	{r4, pc}
 80047d8:	2002      	movs	r0, #2
 80047da:	e7fc      	b.n	80047d6 <HAL_HCD_Stop+0x1e>

080047dc <HAL_HCD_ResetPort>:
 80047dc:	6800      	ldr	r0, [r0, #0]
 80047de:	f003 b8d5 	b.w	800798c <USB_ResetPort>

080047e2 <HAL_HCD_HC_GetURBState>:
 80047e2:	232c      	movs	r3, #44	; 0x2c
 80047e4:	fb03 0001 	mla	r0, r3, r1, r0
 80047e8:	f890 0060 	ldrb.w	r0, [r0, #96]	; 0x60
 80047ec:	4770      	bx	lr

080047ee <HAL_HCD_HC_GetXferCount>:
 80047ee:	232c      	movs	r3, #44	; 0x2c
 80047f0:	fb03 0001 	mla	r0, r3, r1, r0
 80047f4:	6d00      	ldr	r0, [r0, #80]	; 0x50
 80047f6:	4770      	bx	lr

080047f8 <HAL_HCD_GetCurrentFrame>:
 80047f8:	6800      	ldr	r0, [r0, #0]
 80047fa:	f003 b910 	b.w	8007a1e <USB_GetCurrentFrame>

080047fe <HAL_HCD_GetCurrentSpeed>:
 80047fe:	6800      	ldr	r0, [r0, #0]
 8004800:	f003 b902 	b.w	8007a08 <USB_GetHostSpeed>

08004804 <I2C_IsAcknowledgeFailed>:
 8004804:	6801      	ldr	r1, [r0, #0]
 8004806:	694b      	ldr	r3, [r1, #20]
 8004808:	f413 6380 	ands.w	r3, r3, #1024	; 0x400
 800480c:	f04f 0200 	mov.w	r2, #0
 8004810:	d010      	beq.n	8004834 <I2C_IsAcknowledgeFailed+0x30>
 8004812:	f46f 6380 	mvn.w	r3, #1024	; 0x400
 8004816:	614b      	str	r3, [r1, #20]
 8004818:	2320      	movs	r3, #32
 800481a:	6302      	str	r2, [r0, #48]	; 0x30
 800481c:	f880 303d 	strb.w	r3, [r0, #61]	; 0x3d
 8004820:	f880 203e 	strb.w	r2, [r0, #62]	; 0x3e
 8004824:	6c03      	ldr	r3, [r0, #64]	; 0x40
 8004826:	f880 203c 	strb.w	r2, [r0, #60]	; 0x3c
 800482a:	f043 0304 	orr.w	r3, r3, #4
 800482e:	6403      	str	r3, [r0, #64]	; 0x40
 8004830:	2001      	movs	r0, #1
 8004832:	4770      	bx	lr
 8004834:	4618      	mov	r0, r3
 8004836:	4770      	bx	lr

08004838 <I2C_WaitOnMasterAddressFlagUntilTimeout>:
 8004838:	e92d 41f0 	stmdb	sp!, {r4, r5, r6, r7, r8, lr}
 800483c:	4604      	mov	r4, r0
 800483e:	460f      	mov	r7, r1
 8004840:	4616      	mov	r6, r2
 8004842:	4698      	mov	r8, r3
 8004844:	6825      	ldr	r5, [r4, #0]
 8004846:	6968      	ldr	r0, [r5, #20]
 8004848:	ea27 0000 	bic.w	r0, r7, r0
 800484c:	b280      	uxth	r0, r0
 800484e:	b1b8      	cbz	r0, 8004880 <I2C_WaitOnMasterAddressFlagUntilTimeout+0x48>
 8004850:	696b      	ldr	r3, [r5, #20]
 8004852:	055a      	lsls	r2, r3, #21
 8004854:	d516      	bpl.n	8004884 <I2C_WaitOnMasterAddressFlagUntilTimeout+0x4c>
 8004856:	682b      	ldr	r3, [r5, #0]
 8004858:	f443 7300 	orr.w	r3, r3, #512	; 0x200
 800485c:	602b      	str	r3, [r5, #0]
 800485e:	f46f 6380 	mvn.w	r3, #1024	; 0x400
 8004862:	616b      	str	r3, [r5, #20]
 8004864:	2220      	movs	r2, #32
 8004866:	2300      	movs	r3, #0
 8004868:	6323      	str	r3, [r4, #48]	; 0x30
 800486a:	f884 203d 	strb.w	r2, [r4, #61]	; 0x3d
 800486e:	f884 303e 	strb.w	r3, [r4, #62]	; 0x3e
 8004872:	6c22      	ldr	r2, [r4, #64]	; 0x40
 8004874:	f042 0204 	orr.w	r2, r2, #4
 8004878:	6422      	str	r2, [r4, #64]	; 0x40
 800487a:	f884 303c 	strb.w	r3, [r4, #60]	; 0x3c
 800487e:	2001      	movs	r0, #1
 8004880:	e8bd 81f0 	ldmia.w	sp!, {r4, r5, r6, r7, r8, pc}
 8004884:	1c73      	adds	r3, r6, #1
 8004886:	d0de      	beq.n	8004846 <I2C_WaitOnMasterAddressFlagUntilTimeout+0xe>
 8004888:	f7fe fc42 	bl	8003110 <HAL_GetTick>
 800488c:	eba0 0008 	sub.w	r0, r0, r8
 8004890:	42b0      	cmp	r0, r6
 8004892:	d801      	bhi.n	8004898 <I2C_WaitOnMasterAddressFlagUntilTimeout+0x60>
 8004894:	2e00      	cmp	r6, #0
 8004896:	d1d5      	bne.n	8004844 <I2C_WaitOnMasterAddressFlagUntilTimeout+0xc>
 8004898:	2300      	movs	r3, #0
 800489a:	2220      	movs	r2, #32
 800489c:	6323      	str	r3, [r4, #48]	; 0x30
 800489e:	f884 203d 	strb.w	r2, [r4, #61]	; 0x3d
 80048a2:	f884 303e 	strb.w	r3, [r4, #62]	; 0x3e
 80048a6:	6c22      	ldr	r2, [r4, #64]	; 0x40
 80048a8:	f042 0220 	orr.w	r2, r2, #32
 80048ac:	e7e4      	b.n	8004878 <I2C_WaitOnMasterAddressFlagUntilTimeout+0x40>

080048ae <I2C_WaitOnBTFFlagUntilTimeout>:
 80048ae:	b570      	push	{r4, r5, r6, lr}
 80048b0:	4604      	mov	r4, r0
 80048b2:	460d      	mov	r5, r1
 80048b4:	4616      	mov	r6, r2
 80048b6:	6823      	ldr	r3, [r4, #0]
 80048b8:	695b      	ldr	r3, [r3, #20]
 80048ba:	075b      	lsls	r3, r3, #29
 80048bc:	d501      	bpl.n	80048c2 <I2C_WaitOnBTFFlagUntilTimeout+0x14>
 80048be:	2000      	movs	r0, #0
 80048c0:	bd70      	pop	{r4, r5, r6, pc}
 80048c2:	4620      	mov	r0, r4
 80048c4:	f7ff ff9e 	bl	8004804 <I2C_IsAcknowledgeFailed>
 80048c8:	b9a8      	cbnz	r0, 80048f6 <I2C_WaitOnBTFFlagUntilTimeout+0x48>
 80048ca:	1c6a      	adds	r2, r5, #1
 80048cc:	d0f3      	beq.n	80048b6 <I2C_WaitOnBTFFlagUntilTimeout+0x8>
 80048ce:	f7fe fc1f 	bl	8003110 <HAL_GetTick>
 80048d2:	1b80      	subs	r0, r0, r6
 80048d4:	42a8      	cmp	r0, r5
 80048d6:	d801      	bhi.n	80048dc <I2C_WaitOnBTFFlagUntilTimeout+0x2e>
 80048d8:	2d00      	cmp	r5, #0
 80048da:	d1ec      	bne.n	80048b6 <I2C_WaitOnBTFFlagUntilTimeout+0x8>
 80048dc:	2300      	movs	r3, #0
 80048de:	2220      	movs	r2, #32
 80048e0:	6323      	str	r3, [r4, #48]	; 0x30
 80048e2:	f884 203d 	strb.w	r2, [r4, #61]	; 0x3d
 80048e6:	f884 303e 	strb.w	r3, [r4, #62]	; 0x3e
 80048ea:	6c22      	ldr	r2, [r4, #64]	; 0x40
 80048ec:	f884 303c 	strb.w	r3, [r4, #60]	; 0x3c
 80048f0:	f042 0220 	orr.w	r2, r2, #32
 80048f4:	6422      	str	r2, [r4, #64]	; 0x40
 80048f6:	2001      	movs	r0, #1
 80048f8:	e7e2      	b.n	80048c0 <I2C_WaitOnBTFFlagUntilTimeout+0x12>

080048fa <I2C_WaitOnRXNEFlagUntilTimeout>:
 80048fa:	b570      	push	{r4, r5, r6, lr}
 80048fc:	4604      	mov	r4, r0
 80048fe:	460d      	mov	r5, r1
 8004900:	4616      	mov	r6, r2
 8004902:	6821      	ldr	r1, [r4, #0]
 8004904:	694b      	ldr	r3, [r1, #20]
 8004906:	f013 0340 	ands.w	r3, r3, #64	; 0x40
 800490a:	d001      	beq.n	8004910 <I2C_WaitOnRXNEFlagUntilTimeout+0x16>
 800490c:	2000      	movs	r0, #0
 800490e:	e010      	b.n	8004932 <I2C_WaitOnRXNEFlagUntilTimeout+0x38>
 8004910:	694a      	ldr	r2, [r1, #20]
 8004912:	06d2      	lsls	r2, r2, #27
 8004914:	d50e      	bpl.n	8004934 <I2C_WaitOnRXNEFlagUntilTimeout+0x3a>
 8004916:	f06f 0210 	mvn.w	r2, #16
 800491a:	614a      	str	r2, [r1, #20]
 800491c:	2220      	movs	r2, #32
 800491e:	6323      	str	r3, [r4, #48]	; 0x30
 8004920:	f884 203d 	strb.w	r2, [r4, #61]	; 0x3d
 8004924:	f884 303e 	strb.w	r3, [r4, #62]	; 0x3e
 8004928:	6c22      	ldr	r2, [r4, #64]	; 0x40
 800492a:	6422      	str	r2, [r4, #64]	; 0x40
 800492c:	f884 303c 	strb.w	r3, [r4, #60]	; 0x3c
 8004930:	2001      	movs	r0, #1
 8004932:	bd70      	pop	{r4, r5, r6, pc}
 8004934:	f7fe fbec 	bl	8003110 <HAL_GetTick>
 8004938:	1b80      	subs	r0, r0, r6
 800493a:	42a8      	cmp	r0, r5
 800493c:	d801      	bhi.n	8004942 <I2C_WaitOnRXNEFlagUntilTimeout+0x48>
 800493e:	2d00      	cmp	r5, #0
 8004940:	d1df      	bne.n	8004902 <I2C_WaitOnRXNEFlagUntilTimeout+0x8>
 8004942:	2300      	movs	r3, #0
 8004944:	2220      	movs	r2, #32
 8004946:	6323      	str	r3, [r4, #48]	; 0x30
 8004948:	f884 203d 	strb.w	r2, [r4, #61]	; 0x3d
 800494c:	f884 303e 	strb.w	r3, [r4, #62]	; 0x3e
 8004950:	6c22      	ldr	r2, [r4, #64]	; 0x40
 8004952:	f042 0220 	orr.w	r2, r2, #32
 8004956:	e7e8      	b.n	800492a <I2C_WaitOnRXNEFlagUntilTimeout+0x30>

08004958 <I2C_WaitOnFlagUntilTimeout>:
 8004958:	e92d 46f8 	stmdb	sp!, {r3, r4, r5, r6, r7, r9, sl, lr}
 800495c:	4606      	mov	r6, r0
 800495e:	460f      	mov	r7, r1
 8004960:	4691      	mov	r9, r2
 8004962:	461d      	mov	r5, r3
 8004964:	ea4f 4a11 	mov.w	sl, r1, lsr #16
 8004968:	6833      	ldr	r3, [r6, #0]
 800496a:	f1ba 0f01 	cmp.w	sl, #1
 800496e:	bf0c      	ite	eq
 8004970:	695c      	ldreq	r4, [r3, #20]
 8004972:	699c      	ldrne	r4, [r3, #24]
 8004974:	ea27 0404 	bic.w	r4, r7, r4
 8004978:	b2a4      	uxth	r4, r4
 800497a:	fab4 f484 	clz	r4, r4
 800497e:	0964      	lsrs	r4, r4, #5
 8004980:	45a1      	cmp	r9, r4
 8004982:	d001      	beq.n	8004988 <I2C_WaitOnFlagUntilTimeout+0x30>
 8004984:	2000      	movs	r0, #0
 8004986:	e017      	b.n	80049b8 <I2C_WaitOnFlagUntilTimeout+0x60>
 8004988:	1c6a      	adds	r2, r5, #1
 800498a:	d0ee      	beq.n	800496a <I2C_WaitOnFlagUntilTimeout+0x12>
 800498c:	f7fe fbc0 	bl	8003110 <HAL_GetTick>
 8004990:	9b08      	ldr	r3, [sp, #32]
 8004992:	1ac0      	subs	r0, r0, r3
 8004994:	42a8      	cmp	r0, r5
 8004996:	d801      	bhi.n	800499c <I2C_WaitOnFlagUntilTimeout+0x44>
 8004998:	2d00      	cmp	r5, #0
 800499a:	d1e5      	bne.n	8004968 <I2C_WaitOnFlagUntilTimeout+0x10>
 800499c:	2300      	movs	r3, #0
 800499e:	2220      	movs	r2, #32
 80049a0:	6333      	str	r3, [r6, #48]	; 0x30
 80049a2:	f886 203d 	strb.w	r2, [r6, #61]	; 0x3d
 80049a6:	f886 303e 	strb.w	r3, [r6, #62]	; 0x3e
 80049aa:	6c32      	ldr	r2, [r6, #64]	; 0x40
 80049ac:	f886 303c 	strb.w	r3, [r6, #60]	; 0x3c
 80049b0:	f042 0220 	orr.w	r2, r2, #32
 80049b4:	6432      	str	r2, [r6, #64]	; 0x40
 80049b6:	2001      	movs	r0, #1
 80049b8:	e8bd 86f8 	ldmia.w	sp!, {r3, r4, r5, r6, r7, r9, sl, pc}

080049bc <I2C_WaitOnTXEFlagUntilTimeout>:
 80049bc:	b570      	push	{r4, r5, r6, lr}
 80049be:	4604      	mov	r4, r0
 80049c0:	460d      	mov	r5, r1
 80049c2:	4616      	mov	r6, r2
 80049c4:	6823      	ldr	r3, [r4, #0]
 80049c6:	695b      	ldr	r3, [r3, #20]
 80049c8:	061b      	lsls	r3, r3, #24
 80049ca:	d501      	bpl.n	80049d0 <I2C_WaitOnTXEFlagUntilTimeout+0x14>
 80049cc:	2000      	movs	r0, #0
 80049ce:	bd70      	pop	{r4, r5, r6, pc}
 80049d0:	4620      	mov	r0, r4
 80049d2:	f7ff ff17 	bl	8004804 <I2C_IsAcknowledgeFailed>
 80049d6:	b9a8      	cbnz	r0, 8004a04 <I2C_WaitOnTXEFlagUntilTimeout+0x48>
 80049d8:	1c6a      	adds	r2, r5, #1
 80049da:	d0f3      	beq.n	80049c4 <I2C_WaitOnTXEFlagUntilTimeout+0x8>
 80049dc:	f7fe fb98 	bl	8003110 <HAL_GetTick>
 80049e0:	1b80      	subs	r0, r0, r6
 80049e2:	42a8      	cmp	r0, r5
 80049e4:	d801      	bhi.n	80049ea <I2C_WaitOnTXEFlagUntilTimeout+0x2e>
 80049e6:	2d00      	cmp	r5, #0
 80049e8:	d1ec      	bne.n	80049c4 <I2C_WaitOnTXEFlagUntilTimeout+0x8>
 80049ea:	2300      	movs	r3, #0
 80049ec:	2220      	movs	r2, #32
 80049ee:	6323      	str	r3, [r4, #48]	; 0x30
 80049f0:	f884 203d 	strb.w	r2, [r4, #61]	; 0x3d
 80049f4:	f884 303e 	strb.w	r3, [r4, #62]	; 0x3e
 80049f8:	6c22      	ldr	r2, [r4, #64]	; 0x40
 80049fa:	f884 303c 	strb.w	r3, [r4, #60]	; 0x3c
 80049fe:	f042 0220 	orr.w	r2, r2, #32
 8004a02:	6422      	str	r2, [r4, #64]	; 0x40
 8004a04:	2001      	movs	r0, #1
 8004a06:	e7e2      	b.n	80049ce <I2C_WaitOnTXEFlagUntilTimeout+0x12>

08004a08 <I2C_RequestMemoryWrite>:
 8004a08:	e92d 43f0 	stmdb	sp!, {r4, r5, r6, r7, r8, r9, lr}
 8004a0c:	4615      	mov	r5, r2
 8004a0e:	6802      	ldr	r2, [r0, #0]
 8004a10:	b085      	sub	sp, #20
 8004a12:	e9dd 780c 	ldrd	r7, r8, [sp, #48]	; 0x30
 8004a16:	4699      	mov	r9, r3
 8004a18:	6813      	ldr	r3, [r2, #0]
 8004a1a:	f443 7380 	orr.w	r3, r3, #256	; 0x100
 8004a1e:	6013      	str	r3, [r2, #0]
 8004a20:	460e      	mov	r6, r1
 8004a22:	463b      	mov	r3, r7
 8004a24:	f8cd 8000 	str.w	r8, [sp]
 8004a28:	2200      	movs	r2, #0
 8004a2a:	f04f 1101 	mov.w	r1, #65537	; 0x10001
 8004a2e:	4604      	mov	r4, r0
 8004a30:	f7ff ff92 	bl	8004958 <I2C_WaitOnFlagUntilTimeout>
 8004a34:	6823      	ldr	r3, [r4, #0]
 8004a36:	b138      	cbz	r0, 8004a48 <I2C_RequestMemoryWrite+0x40>
 8004a38:	681b      	ldr	r3, [r3, #0]
 8004a3a:	05db      	lsls	r3, r3, #23
 8004a3c:	d502      	bpl.n	8004a44 <I2C_RequestMemoryWrite+0x3c>
 8004a3e:	f44f 7300 	mov.w	r3, #512	; 0x200
 8004a42:	6423      	str	r3, [r4, #64]	; 0x40
 8004a44:	2003      	movs	r0, #3
 8004a46:	e00a      	b.n	8004a5e <I2C_RequestMemoryWrite+0x56>
 8004a48:	f006 06fe 	and.w	r6, r6, #254	; 0xfe
 8004a4c:	611e      	str	r6, [r3, #16]
 8004a4e:	4919      	ldr	r1, [pc, #100]	; (8004ab4 <I2C_RequestMemoryWrite+0xac>)
 8004a50:	4643      	mov	r3, r8
 8004a52:	463a      	mov	r2, r7
 8004a54:	4620      	mov	r0, r4
 8004a56:	f7ff feef 	bl	8004838 <I2C_WaitOnMasterAddressFlagUntilTimeout>
 8004a5a:	b118      	cbz	r0, 8004a64 <I2C_RequestMemoryWrite+0x5c>
 8004a5c:	2001      	movs	r0, #1
 8004a5e:	b005      	add	sp, #20
 8004a60:	e8bd 83f0 	ldmia.w	sp!, {r4, r5, r6, r7, r8, r9, pc}
 8004a64:	6823      	ldr	r3, [r4, #0]
 8004a66:	9003      	str	r0, [sp, #12]
 8004a68:	695a      	ldr	r2, [r3, #20]
 8004a6a:	9203      	str	r2, [sp, #12]
 8004a6c:	699b      	ldr	r3, [r3, #24]
 8004a6e:	9303      	str	r3, [sp, #12]
 8004a70:	4642      	mov	r2, r8
 8004a72:	4639      	mov	r1, r7
 8004a74:	4620      	mov	r0, r4
 8004a76:	9b03      	ldr	r3, [sp, #12]
 8004a78:	f7ff ffa0 	bl	80049bc <I2C_WaitOnTXEFlagUntilTimeout>
 8004a7c:	b140      	cbz	r0, 8004a90 <I2C_RequestMemoryWrite+0x88>
 8004a7e:	6c23      	ldr	r3, [r4, #64]	; 0x40
 8004a80:	2b04      	cmp	r3, #4
 8004a82:	bf01      	itttt	eq
 8004a84:	6822      	ldreq	r2, [r4, #0]
 8004a86:	6813      	ldreq	r3, [r2, #0]
 8004a88:	f443 7300 	orreq.w	r3, r3, #512	; 0x200
 8004a8c:	6013      	streq	r3, [r2, #0]
 8004a8e:	e7e5      	b.n	8004a5c <I2C_RequestMemoryWrite+0x54>
 8004a90:	f1b9 0f01 	cmp.w	r9, #1
 8004a94:	6823      	ldr	r3, [r4, #0]
 8004a96:	d102      	bne.n	8004a9e <I2C_RequestMemoryWrite+0x96>
 8004a98:	b2ed      	uxtb	r5, r5
 8004a9a:	611d      	str	r5, [r3, #16]
 8004a9c:	e7df      	b.n	8004a5e <I2C_RequestMemoryWrite+0x56>
 8004a9e:	0a2a      	lsrs	r2, r5, #8
 8004aa0:	611a      	str	r2, [r3, #16]
 8004aa2:	4639      	mov	r1, r7
 8004aa4:	4642      	mov	r2, r8
 8004aa6:	4620      	mov	r0, r4
 8004aa8:	f7ff ff88 	bl	80049bc <I2C_WaitOnTXEFlagUntilTimeout>
 8004aac:	2800      	cmp	r0, #0
 8004aae:	d1e6      	bne.n	8004a7e <I2C_RequestMemoryWrite+0x76>
 8004ab0:	6823      	ldr	r3, [r4, #0]
 8004ab2:	e7f1      	b.n	8004a98 <I2C_RequestMemoryWrite+0x90>
 8004ab4:	00010002 	.word	0x00010002

08004ab8 <I2C_RequestMemoryRead>:
 8004ab8:	e92d 47ff 	stmdb	sp!, {r0, r1, r2, r3, r4, r5, r6, r7, r8, r9, sl, lr}
 8004abc:	469a      	mov	sl, r3
 8004abe:	6803      	ldr	r3, [r0, #0]
 8004ac0:	4615      	mov	r5, r2
 8004ac2:	681a      	ldr	r2, [r3, #0]
 8004ac4:	f442 6280 	orr.w	r2, r2, #1024	; 0x400
 8004ac8:	601a      	str	r2, [r3, #0]
 8004aca:	681a      	ldr	r2, [r3, #0]
 8004acc:	e9dd 780c 	ldrd	r7, r8, [sp, #48]	; 0x30
 8004ad0:	f442 7280 	orr.w	r2, r2, #256	; 0x100
 8004ad4:	601a      	str	r2, [r3, #0]
 8004ad6:	460e      	mov	r6, r1
 8004ad8:	463b      	mov	r3, r7
 8004ada:	f8cd 8000 	str.w	r8, [sp]
 8004ade:	2200      	movs	r2, #0
 8004ae0:	f04f 1101 	mov.w	r1, #65537	; 0x10001
 8004ae4:	4604      	mov	r4, r0
 8004ae6:	f7ff ff37 	bl	8004958 <I2C_WaitOnFlagUntilTimeout>
 8004aea:	6823      	ldr	r3, [r4, #0]
 8004aec:	b148      	cbz	r0, 8004b02 <I2C_RequestMemoryRead+0x4a>
 8004aee:	681b      	ldr	r3, [r3, #0]
 8004af0:	05db      	lsls	r3, r3, #23
 8004af2:	d502      	bpl.n	8004afa <I2C_RequestMemoryRead+0x42>
 8004af4:	f44f 7300 	mov.w	r3, #512	; 0x200
 8004af8:	6423      	str	r3, [r4, #64]	; 0x40
 8004afa:	2003      	movs	r0, #3
 8004afc:	b004      	add	sp, #16
 8004afe:	e8bd 87f0 	ldmia.w	sp!, {r4, r5, r6, r7, r8, r9, sl, pc}
 8004b02:	fa5f f986 	uxtb.w	r9, r6
 8004b06:	f006 06fe 	and.w	r6, r6, #254	; 0xfe
 8004b0a:	611e      	str	r6, [r3, #16]
 8004b0c:	492a      	ldr	r1, [pc, #168]	; (8004bb8 <I2C_RequestMemoryRead+0x100>)
 8004b0e:	4643      	mov	r3, r8
 8004b10:	463a      	mov	r2, r7
 8004b12:	4620      	mov	r0, r4
 8004b14:	f7ff fe90 	bl	8004838 <I2C_WaitOnMasterAddressFlagUntilTimeout>
 8004b18:	b108      	cbz	r0, 8004b1e <I2C_RequestMemoryRead+0x66>
 8004b1a:	2001      	movs	r0, #1
 8004b1c:	e7ee      	b.n	8004afc <I2C_RequestMemoryRead+0x44>
 8004b1e:	6823      	ldr	r3, [r4, #0]
 8004b20:	9003      	str	r0, [sp, #12]
 8004b22:	695a      	ldr	r2, [r3, #20]
 8004b24:	9203      	str	r2, [sp, #12]
 8004b26:	699b      	ldr	r3, [r3, #24]
 8004b28:	9303      	str	r3, [sp, #12]
 8004b2a:	4642      	mov	r2, r8
 8004b2c:	4639      	mov	r1, r7
 8004b2e:	4620      	mov	r0, r4
 8004b30:	9b03      	ldr	r3, [sp, #12]
 8004b32:	f7ff ff43 	bl	80049bc <I2C_WaitOnTXEFlagUntilTimeout>
 8004b36:	b140      	cbz	r0, 8004b4a <I2C_RequestMemoryRead+0x92>
 8004b38:	6c23      	ldr	r3, [r4, #64]	; 0x40
 8004b3a:	2b04      	cmp	r3, #4
 8004b3c:	bf01      	itttt	eq
 8004b3e:	6822      	ldreq	r2, [r4, #0]
 8004b40:	6813      	ldreq	r3, [r2, #0]
 8004b42:	f443 7300 	orreq.w	r3, r3, #512	; 0x200
 8004b46:	6013      	streq	r3, [r2, #0]
 8004b48:	e7e7      	b.n	8004b1a <I2C_RequestMemoryRead+0x62>
 8004b4a:	f1ba 0f01 	cmp.w	sl, #1
 8004b4e:	6823      	ldr	r3, [r4, #0]
 8004b50:	d11a      	bne.n	8004b88 <I2C_RequestMemoryRead+0xd0>
 8004b52:	b2ed      	uxtb	r5, r5
 8004b54:	611d      	str	r5, [r3, #16]
 8004b56:	4642      	mov	r2, r8
 8004b58:	4639      	mov	r1, r7
 8004b5a:	4620      	mov	r0, r4
 8004b5c:	f7ff ff2e 	bl	80049bc <I2C_WaitOnTXEFlagUntilTimeout>
 8004b60:	2800      	cmp	r0, #0
 8004b62:	d1e9      	bne.n	8004b38 <I2C_RequestMemoryRead+0x80>
 8004b64:	6822      	ldr	r2, [r4, #0]
 8004b66:	6813      	ldr	r3, [r2, #0]
 8004b68:	f443 7380 	orr.w	r3, r3, #256	; 0x100
 8004b6c:	6013      	str	r3, [r2, #0]
 8004b6e:	f04f 1101 	mov.w	r1, #65537	; 0x10001
 8004b72:	4602      	mov	r2, r0
 8004b74:	f8cd 8000 	str.w	r8, [sp]
 8004b78:	463b      	mov	r3, r7
 8004b7a:	4620      	mov	r0, r4
 8004b7c:	f7ff feec 	bl	8004958 <I2C_WaitOnFlagUntilTimeout>
 8004b80:	6822      	ldr	r2, [r4, #0]
 8004b82:	b160      	cbz	r0, 8004b9e <I2C_RequestMemoryRead+0xe6>
 8004b84:	6813      	ldr	r3, [r2, #0]
 8004b86:	e7b3      	b.n	8004af0 <I2C_RequestMemoryRead+0x38>
 8004b88:	0a2a      	lsrs	r2, r5, #8
 8004b8a:	611a      	str	r2, [r3, #16]
 8004b8c:	4639      	mov	r1, r7
 8004b8e:	4642      	mov	r2, r8
 8004b90:	4620      	mov	r0, r4
 8004b92:	f7ff ff13 	bl	80049bc <I2C_WaitOnTXEFlagUntilTimeout>
 8004b96:	2800      	cmp	r0, #0
 8004b98:	d1ce      	bne.n	8004b38 <I2C_RequestMemoryRead+0x80>
 8004b9a:	6823      	ldr	r3, [r4, #0]
 8004b9c:	e7d9      	b.n	8004b52 <I2C_RequestMemoryRead+0x9a>
 8004b9e:	f049 0301 	orr.w	r3, r9, #1
 8004ba2:	6113      	str	r3, [r2, #16]
 8004ba4:	4904      	ldr	r1, [pc, #16]	; (8004bb8 <I2C_RequestMemoryRead+0x100>)
 8004ba6:	4643      	mov	r3, r8
 8004ba8:	463a      	mov	r2, r7
 8004baa:	4620      	mov	r0, r4
 8004bac:	f7ff fe44 	bl	8004838 <I2C_WaitOnMasterAddressFlagUntilTimeout>
 8004bb0:	3800      	subs	r0, #0
 8004bb2:	bf18      	it	ne
 8004bb4:	2001      	movne	r0, #1
 8004bb6:	e7a1      	b.n	8004afc <I2C_RequestMemoryRead+0x44>
 8004bb8:	00010002 	.word	0x00010002

08004bbc <HAL_I2C_Init>:
 8004bbc:	b570      	push	{r4, r5, r6, lr}
 8004bbe:	4604      	mov	r4, r0
 8004bc0:	b908      	cbnz	r0, 8004bc6 <HAL_I2C_Init+0xa>
 8004bc2:	2001      	movs	r0, #1
 8004bc4:	bd70      	pop	{r4, r5, r6, pc}
 8004bc6:	6803      	ldr	r3, [r0, #0]
 8004bc8:	4a7b      	ldr	r2, [pc, #492]	; (8004db8 <HAL_I2C_Init+0x1fc>)
 8004bca:	4293      	cmp	r3, r2
 8004bcc:	d00c      	beq.n	8004be8 <HAL_I2C_Init+0x2c>
 8004bce:	f502 6280 	add.w	r2, r2, #1024	; 0x400
 8004bd2:	4293      	cmp	r3, r2
 8004bd4:	d008      	beq.n	8004be8 <HAL_I2C_Init+0x2c>
 8004bd6:	f502 6280 	add.w	r2, r2, #1024	; 0x400
 8004bda:	4293      	cmp	r3, r2
 8004bdc:	d004      	beq.n	8004be8 <HAL_I2C_Init+0x2c>
 8004bde:	4877      	ldr	r0, [pc, #476]	; (8004dbc <HAL_I2C_Init+0x200>)
 8004be0:	f240 11bf 	movw	r1, #447	; 0x1bf
 8004be4:	f7fd fd6a 	bl	80026bc <assert_failed>
 8004be8:	6863      	ldr	r3, [r4, #4]
 8004bea:	4a75      	ldr	r2, [pc, #468]	; (8004dc0 <HAL_I2C_Init+0x204>)
 8004bec:	3b01      	subs	r3, #1
 8004bee:	4293      	cmp	r3, r2
 8004bf0:	d904      	bls.n	8004bfc <HAL_I2C_Init+0x40>
 8004bf2:	4872      	ldr	r0, [pc, #456]	; (8004dbc <HAL_I2C_Init+0x200>)
 8004bf4:	f44f 71e0 	mov.w	r1, #448	; 0x1c0
 8004bf8:	f7fd fd60 	bl	80026bc <assert_failed>
 8004bfc:	68a3      	ldr	r3, [r4, #8]
 8004bfe:	f433 4380 	bics.w	r3, r3, #16384	; 0x4000
 8004c02:	d004      	beq.n	8004c0e <HAL_I2C_Init+0x52>
 8004c04:	486d      	ldr	r0, [pc, #436]	; (8004dbc <HAL_I2C_Init+0x200>)
 8004c06:	f240 11c1 	movw	r1, #449	; 0x1c1
 8004c0a:	f7fd fd57 	bl	80026bc <assert_failed>
 8004c0e:	68e3      	ldr	r3, [r4, #12]
 8004c10:	f423 737f 	bic.w	r3, r3, #1020	; 0x3fc
 8004c14:	f023 0303 	bic.w	r3, r3, #3
 8004c18:	b123      	cbz	r3, 8004c24 <HAL_I2C_Init+0x68>
 8004c1a:	4868      	ldr	r0, [pc, #416]	; (8004dbc <HAL_I2C_Init+0x200>)
 8004c1c:	f44f 71e1 	mov.w	r1, #450	; 0x1c2
 8004c20:	f7fd fd4c 	bl	80026bc <assert_failed>
 8004c24:	6923      	ldr	r3, [r4, #16]
 8004c26:	f423 4300 	bic.w	r3, r3, #32768	; 0x8000
 8004c2a:	f5b3 4f80 	cmp.w	r3, #16384	; 0x4000
 8004c2e:	d004      	beq.n	8004c3a <HAL_I2C_Init+0x7e>
 8004c30:	4862      	ldr	r0, [pc, #392]	; (8004dbc <HAL_I2C_Init+0x200>)
 8004c32:	f240 11c3 	movw	r1, #451	; 0x1c3
 8004c36:	f7fd fd41 	bl	80026bc <assert_failed>
 8004c3a:	6963      	ldr	r3, [r4, #20]
 8004c3c:	2b01      	cmp	r3, #1
 8004c3e:	d904      	bls.n	8004c4a <HAL_I2C_Init+0x8e>
 8004c40:	485e      	ldr	r0, [pc, #376]	; (8004dbc <HAL_I2C_Init+0x200>)
 8004c42:	f44f 71e2 	mov.w	r1, #452	; 0x1c4
 8004c46:	f7fd fd39 	bl	80026bc <assert_failed>
 8004c4a:	69a3      	ldr	r3, [r4, #24]
 8004c4c:	f033 03fe 	bics.w	r3, r3, #254	; 0xfe
 8004c50:	d004      	beq.n	8004c5c <HAL_I2C_Init+0xa0>
 8004c52:	485a      	ldr	r0, [pc, #360]	; (8004dbc <HAL_I2C_Init+0x200>)
 8004c54:	f240 11c5 	movw	r1, #453	; 0x1c5
 8004c58:	f7fd fd30 	bl	80026bc <assert_failed>
 8004c5c:	69e3      	ldr	r3, [r4, #28]
 8004c5e:	f033 0340 	bics.w	r3, r3, #64	; 0x40
 8004c62:	d004      	beq.n	8004c6e <HAL_I2C_Init+0xb2>
 8004c64:	4855      	ldr	r0, [pc, #340]	; (8004dbc <HAL_I2C_Init+0x200>)
 8004c66:	f44f 71e3 	mov.w	r1, #454	; 0x1c6
 8004c6a:	f7fd fd27 	bl	80026bc <assert_failed>
 8004c6e:	6a23      	ldr	r3, [r4, #32]
 8004c70:	f033 0380 	bics.w	r3, r3, #128	; 0x80
 8004c74:	d004      	beq.n	8004c80 <HAL_I2C_Init+0xc4>
 8004c76:	4851      	ldr	r0, [pc, #324]	; (8004dbc <HAL_I2C_Init+0x200>)
 8004c78:	f240 11c7 	movw	r1, #455	; 0x1c7
 8004c7c:	f7fd fd1e 	bl	80026bc <assert_failed>
 8004c80:	f894 303d 	ldrb.w	r3, [r4, #61]	; 0x3d
 8004c84:	f003 02ff 	and.w	r2, r3, #255	; 0xff
 8004c88:	b923      	cbnz	r3, 8004c94 <HAL_I2C_Init+0xd8>
 8004c8a:	f884 203c 	strb.w	r2, [r4, #60]	; 0x3c
 8004c8e:	4620      	mov	r0, r4
 8004c90:	f7fc ff40 	bl	8001b14 <HAL_I2C_MspInit>
 8004c94:	2324      	movs	r3, #36	; 0x24
 8004c96:	f884 303d 	strb.w	r3, [r4, #61]	; 0x3d
 8004c9a:	6823      	ldr	r3, [r4, #0]
 8004c9c:	681a      	ldr	r2, [r3, #0]
 8004c9e:	f022 0201 	bic.w	r2, r2, #1
 8004ca2:	601a      	str	r2, [r3, #0]
 8004ca4:	681a      	ldr	r2, [r3, #0]
 8004ca6:	f442 4200 	orr.w	r2, r2, #32768	; 0x8000
 8004caa:	601a      	str	r2, [r3, #0]
 8004cac:	681a      	ldr	r2, [r3, #0]
 8004cae:	f422 4200 	bic.w	r2, r2, #32768	; 0x8000
 8004cb2:	601a      	str	r2, [r3, #0]
 8004cb4:	f000 fdb2 	bl	800581c <HAL_RCC_GetPCLK1Freq>
 8004cb8:	4a42      	ldr	r2, [pc, #264]	; (8004dc4 <HAL_I2C_Init+0x208>)
 8004cba:	6863      	ldr	r3, [r4, #4]
 8004cbc:	4293      	cmp	r3, r2
 8004cbe:	bf94      	ite	ls
 8004cc0:	4a41      	ldrls	r2, [pc, #260]	; (8004dc8 <HAL_I2C_Init+0x20c>)
 8004cc2:	4a42      	ldrhi	r2, [pc, #264]	; (8004dcc <HAL_I2C_Init+0x210>)
 8004cc4:	4290      	cmp	r0, r2
 8004cc6:	bf8c      	ite	hi
 8004cc8:	2200      	movhi	r2, #0
 8004cca:	2201      	movls	r2, #1
 8004ccc:	2a00      	cmp	r2, #0
 8004cce:	f47f af78 	bne.w	8004bc2 <HAL_I2C_Init+0x6>
 8004cd2:	6821      	ldr	r1, [r4, #0]
 8004cd4:	4e3e      	ldr	r6, [pc, #248]	; (8004dd0 <HAL_I2C_Init+0x214>)
 8004cd6:	684a      	ldr	r2, [r1, #4]
 8004cd8:	fbb0 f6f6 	udiv	r6, r0, r6
 8004cdc:	f022 023f 	bic.w	r2, r2, #63	; 0x3f
 8004ce0:	4332      	orrs	r2, r6
 8004ce2:	604a      	str	r2, [r1, #4]
 8004ce4:	4a37      	ldr	r2, [pc, #220]	; (8004dc4 <HAL_I2C_Init+0x208>)
 8004ce6:	6a0d      	ldr	r5, [r1, #32]
 8004ce8:	4293      	cmp	r3, r2
 8004cea:	bf84      	itt	hi
 8004cec:	f44f 7296 	movhi.w	r2, #300	; 0x12c
 8004cf0:	4372      	mulhi	r2, r6
 8004cf2:	f025 053f 	bic.w	r5, r5, #63	; 0x3f
 8004cf6:	bf91      	iteee	ls
 8004cf8:	1c72      	addls	r2, r6, #1
 8004cfa:	f44f 767a 	movhi.w	r6, #1000	; 0x3e8
 8004cfe:	fbb2 f2f6 	udivhi	r2, r2, r6
 8004d02:	3201      	addhi	r2, #1
 8004d04:	432a      	orrs	r2, r5
 8004d06:	620a      	str	r2, [r1, #32]
 8004d08:	69cd      	ldr	r5, [r1, #28]
 8004d0a:	1e42      	subs	r2, r0, #1
 8004d0c:	482d      	ldr	r0, [pc, #180]	; (8004dc4 <HAL_I2C_Init+0x208>)
 8004d0e:	f425 454f 	bic.w	r5, r5, #52992	; 0xcf00
 8004d12:	4283      	cmp	r3, r0
 8004d14:	f025 05ff 	bic.w	r5, r5, #255	; 0xff
 8004d18:	d832      	bhi.n	8004d80 <HAL_I2C_Init+0x1c4>
 8004d1a:	005b      	lsls	r3, r3, #1
 8004d1c:	fbb2 f3f3 	udiv	r3, r2, r3
 8004d20:	f640 72fc 	movw	r2, #4092	; 0xffc
 8004d24:	3301      	adds	r3, #1
 8004d26:	4213      	tst	r3, r2
 8004d28:	d042      	beq.n	8004db0 <HAL_I2C_Init+0x1f4>
 8004d2a:	f3c3 030b 	ubfx	r3, r3, #0, #12
 8004d2e:	432b      	orrs	r3, r5
 8004d30:	61cb      	str	r3, [r1, #28]
 8004d32:	e9d4 3007 	ldrd	r3, r0, [r4, #28]
 8004d36:	680a      	ldr	r2, [r1, #0]
 8004d38:	4303      	orrs	r3, r0
 8004d3a:	f022 02c0 	bic.w	r2, r2, #192	; 0xc0
 8004d3e:	4313      	orrs	r3, r2
 8004d40:	600b      	str	r3, [r1, #0]
 8004d42:	688a      	ldr	r2, [r1, #8]
 8004d44:	e9d4 0303 	ldrd	r0, r3, [r4, #12]
 8004d48:	f422 4203 	bic.w	r2, r2, #33536	; 0x8300
 8004d4c:	4303      	orrs	r3, r0
 8004d4e:	f022 02ff 	bic.w	r2, r2, #255	; 0xff
 8004d52:	4313      	orrs	r3, r2
 8004d54:	608b      	str	r3, [r1, #8]
 8004d56:	e9d4 3005 	ldrd	r3, r0, [r4, #20]
 8004d5a:	68ca      	ldr	r2, [r1, #12]
 8004d5c:	4303      	orrs	r3, r0
 8004d5e:	f022 02ff 	bic.w	r2, r2, #255	; 0xff
 8004d62:	4313      	orrs	r3, r2
 8004d64:	60cb      	str	r3, [r1, #12]
 8004d66:	680b      	ldr	r3, [r1, #0]
 8004d68:	f043 0301 	orr.w	r3, r3, #1
 8004d6c:	600b      	str	r3, [r1, #0]
 8004d6e:	2000      	movs	r0, #0
 8004d70:	2320      	movs	r3, #32
 8004d72:	6420      	str	r0, [r4, #64]	; 0x40
 8004d74:	f884 303d 	strb.w	r3, [r4, #61]	; 0x3d
 8004d78:	6320      	str	r0, [r4, #48]	; 0x30
 8004d7a:	f884 003e 	strb.w	r0, [r4, #62]	; 0x3e
 8004d7e:	e721      	b.n	8004bc4 <HAL_I2C_Init+0x8>
 8004d80:	68a0      	ldr	r0, [r4, #8]
 8004d82:	b950      	cbnz	r0, 8004d9a <HAL_I2C_Init+0x1de>
 8004d84:	eb03 0343 	add.w	r3, r3, r3, lsl #1
 8004d88:	fbb2 f3f3 	udiv	r3, r2, r3
 8004d8c:	3301      	adds	r3, #1
 8004d8e:	f3c3 030b 	ubfx	r3, r3, #0, #12
 8004d92:	b17b      	cbz	r3, 8004db4 <HAL_I2C_Init+0x1f8>
 8004d94:	f443 4300 	orr.w	r3, r3, #32768	; 0x8000
 8004d98:	e7c9      	b.n	8004d2e <HAL_I2C_Init+0x172>
 8004d9a:	2019      	movs	r0, #25
 8004d9c:	4343      	muls	r3, r0
 8004d9e:	fbb2 f3f3 	udiv	r3, r2, r3
 8004da2:	3301      	adds	r3, #1
 8004da4:	f3c3 030b 	ubfx	r3, r3, #0, #12
 8004da8:	b123      	cbz	r3, 8004db4 <HAL_I2C_Init+0x1f8>
 8004daa:	f443 4340 	orr.w	r3, r3, #49152	; 0xc000
 8004dae:	e7be      	b.n	8004d2e <HAL_I2C_Init+0x172>
 8004db0:	2304      	movs	r3, #4
 8004db2:	e7bc      	b.n	8004d2e <HAL_I2C_Init+0x172>
 8004db4:	2301      	movs	r3, #1
 8004db6:	e7ba      	b.n	8004d2e <HAL_I2C_Init+0x172>
 8004db8:	40005400 	.word	0x40005400
 8004dbc:	080097f2 	.word	0x080097f2
 8004dc0:	00061a7f 	.word	0x00061a7f
 8004dc4:	000186a0 	.word	0x000186a0
 8004dc8:	001e847f 	.word	0x001e847f
 8004dcc:	003d08ff 	.word	0x003d08ff
 8004dd0:	000f4240 	.word	0x000f4240

08004dd4 <HAL_I2C_DeInit>:
 8004dd4:	b510      	push	{r4, lr}
 8004dd6:	4604      	mov	r4, r0
 8004dd8:	b328      	cbz	r0, 8004e26 <HAL_I2C_DeInit+0x52>
 8004dda:	6803      	ldr	r3, [r0, #0]
 8004ddc:	4a13      	ldr	r2, [pc, #76]	; (8004e2c <HAL_I2C_DeInit+0x58>)
 8004dde:	4293      	cmp	r3, r2
 8004de0:	d00c      	beq.n	8004dfc <HAL_I2C_DeInit+0x28>
 8004de2:	f502 6280 	add.w	r2, r2, #1024	; 0x400
 8004de6:	4293      	cmp	r3, r2
 8004de8:	d008      	beq.n	8004dfc <HAL_I2C_DeInit+0x28>
 8004dea:	f502 6280 	add.w	r2, r2, #1024	; 0x400
 8004dee:	4293      	cmp	r3, r2
 8004df0:	d004      	beq.n	8004dfc <HAL_I2C_DeInit+0x28>
 8004df2:	480f      	ldr	r0, [pc, #60]	; (8004e30 <HAL_I2C_DeInit+0x5c>)
 8004df4:	f240 212f 	movw	r1, #559	; 0x22f
 8004df8:	f7fd fc60 	bl	80026bc <assert_failed>
 8004dfc:	6822      	ldr	r2, [r4, #0]
 8004dfe:	2324      	movs	r3, #36	; 0x24
 8004e00:	f884 303d 	strb.w	r3, [r4, #61]	; 0x3d
 8004e04:	6813      	ldr	r3, [r2, #0]
 8004e06:	f023 0301 	bic.w	r3, r3, #1
 8004e0a:	4620      	mov	r0, r4
 8004e0c:	6013      	str	r3, [r2, #0]
 8004e0e:	f7fc feef 	bl	8001bf0 <HAL_I2C_MspDeInit>
 8004e12:	2000      	movs	r0, #0
 8004e14:	6420      	str	r0, [r4, #64]	; 0x40
 8004e16:	f884 003c 	strb.w	r0, [r4, #60]	; 0x3c
 8004e1a:	f884 003d 	strb.w	r0, [r4, #61]	; 0x3d
 8004e1e:	6320      	str	r0, [r4, #48]	; 0x30
 8004e20:	f884 003e 	strb.w	r0, [r4, #62]	; 0x3e
 8004e24:	bd10      	pop	{r4, pc}
 8004e26:	2001      	movs	r0, #1
 8004e28:	e7fc      	b.n	8004e24 <HAL_I2C_DeInit+0x50>
 8004e2a:	bf00      	nop
 8004e2c:	40005400 	.word	0x40005400
 8004e30:	080097f2 	.word	0x080097f2

08004e34 <HAL_I2C_Mem_Write>:
 8004e34:	e92d 43f7 	stmdb	sp!, {r0, r1, r2, r4, r5, r6, r7, r8, r9, lr}
 8004e38:	9e0c      	ldr	r6, [sp, #48]	; 0x30
 8004e3a:	461f      	mov	r7, r3
 8004e3c:	4604      	mov	r4, r0
 8004e3e:	4688      	mov	r8, r1
 8004e40:	4691      	mov	r9, r2
 8004e42:	f7fe f965 	bl	8003110 <HAL_GetTick>
 8004e46:	2f01      	cmp	r7, #1
 8004e48:	4605      	mov	r5, r0
 8004e4a:	d006      	beq.n	8004e5a <HAL_I2C_Mem_Write+0x26>
 8004e4c:	2f10      	cmp	r7, #16
 8004e4e:	d004      	beq.n	8004e5a <HAL_I2C_Mem_Write+0x26>
 8004e50:	4842      	ldr	r0, [pc, #264]	; (8004f5c <HAL_I2C_Mem_Write+0x128>)
 8004e52:	f640 11ba 	movw	r1, #2490	; 0x9ba
 8004e56:	f7fd fc31 	bl	80026bc <assert_failed>
 8004e5a:	f894 303d 	ldrb.w	r3, [r4, #61]	; 0x3d
 8004e5e:	2b20      	cmp	r3, #32
 8004e60:	d003      	beq.n	8004e6a <HAL_I2C_Mem_Write+0x36>
 8004e62:	2002      	movs	r0, #2
 8004e64:	b003      	add	sp, #12
 8004e66:	e8bd 83f0 	ldmia.w	sp!, {r4, r5, r6, r7, r8, r9, pc}
 8004e6a:	493d      	ldr	r1, [pc, #244]	; (8004f60 <HAL_I2C_Mem_Write+0x12c>)
 8004e6c:	9500      	str	r5, [sp, #0]
 8004e6e:	2319      	movs	r3, #25
 8004e70:	2201      	movs	r2, #1
 8004e72:	4620      	mov	r0, r4
 8004e74:	f7ff fd70 	bl	8004958 <I2C_WaitOnFlagUntilTimeout>
 8004e78:	2800      	cmp	r0, #0
 8004e7a:	d1f2      	bne.n	8004e62 <HAL_I2C_Mem_Write+0x2e>
 8004e7c:	f894 303c 	ldrb.w	r3, [r4, #60]	; 0x3c
 8004e80:	2b01      	cmp	r3, #1
 8004e82:	d0ee      	beq.n	8004e62 <HAL_I2C_Mem_Write+0x2e>
 8004e84:	2301      	movs	r3, #1
 8004e86:	f884 303c 	strb.w	r3, [r4, #60]	; 0x3c
 8004e8a:	6823      	ldr	r3, [r4, #0]
 8004e8c:	681a      	ldr	r2, [r3, #0]
 8004e8e:	07d1      	lsls	r1, r2, #31
 8004e90:	bf5e      	ittt	pl
 8004e92:	681a      	ldrpl	r2, [r3, #0]
 8004e94:	f042 0201 	orrpl.w	r2, r2, #1
 8004e98:	601a      	strpl	r2, [r3, #0]
 8004e9a:	681a      	ldr	r2, [r3, #0]
 8004e9c:	f422 6200 	bic.w	r2, r2, #2048	; 0x800
 8004ea0:	601a      	str	r2, [r3, #0]
 8004ea2:	2321      	movs	r3, #33	; 0x21
 8004ea4:	f884 303d 	strb.w	r3, [r4, #61]	; 0x3d
 8004ea8:	2340      	movs	r3, #64	; 0x40
 8004eaa:	f884 303e 	strb.w	r3, [r4, #62]	; 0x3e
 8004eae:	2300      	movs	r3, #0
 8004eb0:	6423      	str	r3, [r4, #64]	; 0x40
 8004eb2:	9b0a      	ldr	r3, [sp, #40]	; 0x28
 8004eb4:	6263      	str	r3, [r4, #36]	; 0x24
 8004eb6:	f8bd 302c 	ldrh.w	r3, [sp, #44]	; 0x2c
 8004eba:	8563      	strh	r3, [r4, #42]	; 0x2a
 8004ebc:	8d63      	ldrh	r3, [r4, #42]	; 0x2a
 8004ebe:	8523      	strh	r3, [r4, #40]	; 0x28
 8004ec0:	4b28      	ldr	r3, [pc, #160]	; (8004f64 <HAL_I2C_Mem_Write+0x130>)
 8004ec2:	62e3      	str	r3, [r4, #44]	; 0x2c
 8004ec4:	e9cd 6500 	strd	r6, r5, [sp]
 8004ec8:	463b      	mov	r3, r7
 8004eca:	464a      	mov	r2, r9
 8004ecc:	4641      	mov	r1, r8
 8004ece:	4620      	mov	r0, r4
 8004ed0:	f7ff fd9a 	bl	8004a08 <I2C_RequestMemoryWrite>
 8004ed4:	2800      	cmp	r0, #0
 8004ed6:	d02a      	beq.n	8004f2e <HAL_I2C_Mem_Write+0xfa>
 8004ed8:	2001      	movs	r0, #1
 8004eda:	e7c3      	b.n	8004e64 <HAL_I2C_Mem_Write+0x30>
 8004edc:	f7ff fd6e 	bl	80049bc <I2C_WaitOnTXEFlagUntilTimeout>
 8004ee0:	b140      	cbz	r0, 8004ef4 <HAL_I2C_Mem_Write+0xc0>
 8004ee2:	6c23      	ldr	r3, [r4, #64]	; 0x40
 8004ee4:	2b04      	cmp	r3, #4
 8004ee6:	bf01      	itttt	eq
 8004ee8:	6822      	ldreq	r2, [r4, #0]
 8004eea:	6813      	ldreq	r3, [r2, #0]
 8004eec:	f443 7300 	orreq.w	r3, r3, #512	; 0x200
 8004ef0:	6013      	streq	r3, [r2, #0]
 8004ef2:	e7f1      	b.n	8004ed8 <HAL_I2C_Mem_Write+0xa4>
 8004ef4:	6a63      	ldr	r3, [r4, #36]	; 0x24
 8004ef6:	6827      	ldr	r7, [r4, #0]
 8004ef8:	461a      	mov	r2, r3
 8004efa:	f812 1b01 	ldrb.w	r1, [r2], #1
 8004efe:	6139      	str	r1, [r7, #16]
 8004f00:	6262      	str	r2, [r4, #36]	; 0x24
 8004f02:	8d62      	ldrh	r2, [r4, #42]	; 0x2a
 8004f04:	8d21      	ldrh	r1, [r4, #40]	; 0x28
 8004f06:	3a01      	subs	r2, #1
 8004f08:	b292      	uxth	r2, r2
 8004f0a:	8562      	strh	r2, [r4, #42]	; 0x2a
 8004f0c:	697a      	ldr	r2, [r7, #20]
 8004f0e:	1e48      	subs	r0, r1, #1
 8004f10:	b280      	uxth	r0, r0
 8004f12:	0752      	lsls	r2, r2, #29
 8004f14:	8520      	strh	r0, [r4, #40]	; 0x28
 8004f16:	d50a      	bpl.n	8004f2e <HAL_I2C_Mem_Write+0xfa>
 8004f18:	b148      	cbz	r0, 8004f2e <HAL_I2C_Mem_Write+0xfa>
 8004f1a:	785a      	ldrb	r2, [r3, #1]
 8004f1c:	613a      	str	r2, [r7, #16]
 8004f1e:	3302      	adds	r3, #2
 8004f20:	6263      	str	r3, [r4, #36]	; 0x24
 8004f22:	8d63      	ldrh	r3, [r4, #42]	; 0x2a
 8004f24:	3b01      	subs	r3, #1
 8004f26:	3902      	subs	r1, #2
 8004f28:	b29b      	uxth	r3, r3
 8004f2a:	8521      	strh	r1, [r4, #40]	; 0x28
 8004f2c:	8563      	strh	r3, [r4, #42]	; 0x2a
 8004f2e:	8d23      	ldrh	r3, [r4, #40]	; 0x28
 8004f30:	462a      	mov	r2, r5
 8004f32:	4631      	mov	r1, r6
 8004f34:	4620      	mov	r0, r4
 8004f36:	2b00      	cmp	r3, #0
 8004f38:	d1d0      	bne.n	8004edc <HAL_I2C_Mem_Write+0xa8>
 8004f3a:	f7ff fcb8 	bl	80048ae <I2C_WaitOnBTFFlagUntilTimeout>
 8004f3e:	2800      	cmp	r0, #0
 8004f40:	d1cf      	bne.n	8004ee2 <HAL_I2C_Mem_Write+0xae>
 8004f42:	6822      	ldr	r2, [r4, #0]
 8004f44:	6813      	ldr	r3, [r2, #0]
 8004f46:	f443 7300 	orr.w	r3, r3, #512	; 0x200
 8004f4a:	6013      	str	r3, [r2, #0]
 8004f4c:	2320      	movs	r3, #32
 8004f4e:	f884 303d 	strb.w	r3, [r4, #61]	; 0x3d
 8004f52:	f884 003c 	strb.w	r0, [r4, #60]	; 0x3c
 8004f56:	f884 003e 	strb.w	r0, [r4, #62]	; 0x3e
 8004f5a:	e783      	b.n	8004e64 <HAL_I2C_Mem_Write+0x30>
 8004f5c:	080097f2 	.word	0x080097f2
 8004f60:	00100002 	.word	0x00100002
 8004f64:	ffff0000 	.word	0xffff0000

08004f68 <HAL_I2C_Mem_Read>:
 8004f68:	e92d 43f0 	stmdb	sp!, {r4, r5, r6, r7, r8, r9, lr}
 8004f6c:	b087      	sub	sp, #28
 8004f6e:	461d      	mov	r5, r3
 8004f70:	9f10      	ldr	r7, [sp, #64]	; 0x40
 8004f72:	4604      	mov	r4, r0
 8004f74:	4688      	mov	r8, r1
 8004f76:	4691      	mov	r9, r2
 8004f78:	f7fe f8ca 	bl	8003110 <HAL_GetTick>
 8004f7c:	2d01      	cmp	r5, #1
 8004f7e:	4606      	mov	r6, r0
 8004f80:	d006      	beq.n	8004f90 <HAL_I2C_Mem_Read+0x28>
 8004f82:	2d10      	cmp	r5, #16
 8004f84:	d004      	beq.n	8004f90 <HAL_I2C_Mem_Read+0x28>
 8004f86:	487d      	ldr	r0, [pc, #500]	; (800517c <HAL_I2C_Mem_Read+0x214>)
 8004f88:	f640 2135 	movw	r1, #2613	; 0xa35
 8004f8c:	f7fd fb96 	bl	80026bc <assert_failed>
 8004f90:	f894 303d 	ldrb.w	r3, [r4, #61]	; 0x3d
 8004f94:	2b20      	cmp	r3, #32
 8004f96:	d004      	beq.n	8004fa2 <HAL_I2C_Mem_Read+0x3a>
 8004f98:	2502      	movs	r5, #2
 8004f9a:	4628      	mov	r0, r5
 8004f9c:	b007      	add	sp, #28
 8004f9e:	e8bd 83f0 	ldmia.w	sp!, {r4, r5, r6, r7, r8, r9, pc}
 8004fa2:	4977      	ldr	r1, [pc, #476]	; (8005180 <HAL_I2C_Mem_Read+0x218>)
 8004fa4:	9600      	str	r6, [sp, #0]
 8004fa6:	2319      	movs	r3, #25
 8004fa8:	2201      	movs	r2, #1
 8004faa:	4620      	mov	r0, r4
 8004fac:	f7ff fcd4 	bl	8004958 <I2C_WaitOnFlagUntilTimeout>
 8004fb0:	2800      	cmp	r0, #0
 8004fb2:	d1f1      	bne.n	8004f98 <HAL_I2C_Mem_Read+0x30>
 8004fb4:	f894 303c 	ldrb.w	r3, [r4, #60]	; 0x3c
 8004fb8:	2b01      	cmp	r3, #1
 8004fba:	d0ed      	beq.n	8004f98 <HAL_I2C_Mem_Read+0x30>
 8004fbc:	2301      	movs	r3, #1
 8004fbe:	f884 303c 	strb.w	r3, [r4, #60]	; 0x3c
 8004fc2:	6823      	ldr	r3, [r4, #0]
 8004fc4:	681a      	ldr	r2, [r3, #0]
 8004fc6:	07d0      	lsls	r0, r2, #31
 8004fc8:	bf5e      	ittt	pl
 8004fca:	681a      	ldrpl	r2, [r3, #0]
 8004fcc:	f042 0201 	orrpl.w	r2, r2, #1
 8004fd0:	601a      	strpl	r2, [r3, #0]
 8004fd2:	681a      	ldr	r2, [r3, #0]
 8004fd4:	f422 6200 	bic.w	r2, r2, #2048	; 0x800
 8004fd8:	601a      	str	r2, [r3, #0]
 8004fda:	2322      	movs	r3, #34	; 0x22
 8004fdc:	f884 303d 	strb.w	r3, [r4, #61]	; 0x3d
 8004fe0:	2340      	movs	r3, #64	; 0x40
 8004fe2:	f884 303e 	strb.w	r3, [r4, #62]	; 0x3e
 8004fe6:	2300      	movs	r3, #0
 8004fe8:	6423      	str	r3, [r4, #64]	; 0x40
 8004fea:	9b0e      	ldr	r3, [sp, #56]	; 0x38
 8004fec:	6263      	str	r3, [r4, #36]	; 0x24
 8004fee:	f8bd 303c 	ldrh.w	r3, [sp, #60]	; 0x3c
 8004ff2:	8563      	strh	r3, [r4, #42]	; 0x2a
 8004ff4:	8d63      	ldrh	r3, [r4, #42]	; 0x2a
 8004ff6:	8523      	strh	r3, [r4, #40]	; 0x28
 8004ff8:	4b62      	ldr	r3, [pc, #392]	; (8005184 <HAL_I2C_Mem_Read+0x21c>)
 8004ffa:	62e3      	str	r3, [r4, #44]	; 0x2c
 8004ffc:	e9cd 7600 	strd	r7, r6, [sp]
 8005000:	462b      	mov	r3, r5
 8005002:	464a      	mov	r2, r9
 8005004:	4641      	mov	r1, r8
 8005006:	4620      	mov	r0, r4
 8005008:	f7ff fd56 	bl	8004ab8 <I2C_RequestMemoryRead>
 800500c:	4605      	mov	r5, r0
 800500e:	b108      	cbz	r0, 8005014 <HAL_I2C_Mem_Read+0xac>
 8005010:	2501      	movs	r5, #1
 8005012:	e7c2      	b.n	8004f9a <HAL_I2C_Mem_Read+0x32>
 8005014:	8d22      	ldrh	r2, [r4, #40]	; 0x28
 8005016:	6823      	ldr	r3, [r4, #0]
 8005018:	b9b2      	cbnz	r2, 8005048 <HAL_I2C_Mem_Read+0xe0>
 800501a:	9002      	str	r0, [sp, #8]
 800501c:	695a      	ldr	r2, [r3, #20]
 800501e:	9202      	str	r2, [sp, #8]
 8005020:	699a      	ldr	r2, [r3, #24]
 8005022:	9202      	str	r2, [sp, #8]
 8005024:	9a02      	ldr	r2, [sp, #8]
 8005026:	681a      	ldr	r2, [r3, #0]
 8005028:	f442 7200 	orr.w	r2, r2, #512	; 0x200
 800502c:	601a      	str	r2, [r3, #0]
 800502e:	f8df 8158 	ldr.w	r8, [pc, #344]	; 8005188 <HAL_I2C_Mem_Read+0x220>
 8005032:	8d23      	ldrh	r3, [r4, #40]	; 0x28
 8005034:	2b00      	cmp	r3, #0
 8005036:	d12c      	bne.n	8005092 <HAL_I2C_Mem_Read+0x12a>
 8005038:	2220      	movs	r2, #32
 800503a:	f884 203d 	strb.w	r2, [r4, #61]	; 0x3d
 800503e:	f884 303c 	strb.w	r3, [r4, #60]	; 0x3c
 8005042:	f884 303e 	strb.w	r3, [r4, #62]	; 0x3e
 8005046:	e7a8      	b.n	8004f9a <HAL_I2C_Mem_Read+0x32>
 8005048:	2a01      	cmp	r2, #1
 800504a:	d10a      	bne.n	8005062 <HAL_I2C_Mem_Read+0xfa>
 800504c:	681a      	ldr	r2, [r3, #0]
 800504e:	f422 6280 	bic.w	r2, r2, #1024	; 0x400
 8005052:	601a      	str	r2, [r3, #0]
 8005054:	9003      	str	r0, [sp, #12]
 8005056:	695a      	ldr	r2, [r3, #20]
 8005058:	9203      	str	r2, [sp, #12]
 800505a:	699a      	ldr	r2, [r3, #24]
 800505c:	9203      	str	r2, [sp, #12]
 800505e:	9a03      	ldr	r2, [sp, #12]
 8005060:	e7e1      	b.n	8005026 <HAL_I2C_Mem_Read+0xbe>
 8005062:	2a02      	cmp	r2, #2
 8005064:	d10e      	bne.n	8005084 <HAL_I2C_Mem_Read+0x11c>
 8005066:	681a      	ldr	r2, [r3, #0]
 8005068:	f422 6280 	bic.w	r2, r2, #1024	; 0x400
 800506c:	601a      	str	r2, [r3, #0]
 800506e:	681a      	ldr	r2, [r3, #0]
 8005070:	f442 6200 	orr.w	r2, r2, #2048	; 0x800
 8005074:	601a      	str	r2, [r3, #0]
 8005076:	9004      	str	r0, [sp, #16]
 8005078:	695a      	ldr	r2, [r3, #20]
 800507a:	9204      	str	r2, [sp, #16]
 800507c:	699b      	ldr	r3, [r3, #24]
 800507e:	9304      	str	r3, [sp, #16]
 8005080:	9b04      	ldr	r3, [sp, #16]
 8005082:	e7d4      	b.n	800502e <HAL_I2C_Mem_Read+0xc6>
 8005084:	9005      	str	r0, [sp, #20]
 8005086:	695a      	ldr	r2, [r3, #20]
 8005088:	9205      	str	r2, [sp, #20]
 800508a:	699b      	ldr	r3, [r3, #24]
 800508c:	9305      	str	r3, [sp, #20]
 800508e:	9b05      	ldr	r3, [sp, #20]
 8005090:	e7cd      	b.n	800502e <HAL_I2C_Mem_Read+0xc6>
 8005092:	2b03      	cmp	r3, #3
 8005094:	d856      	bhi.n	8005144 <HAL_I2C_Mem_Read+0x1dc>
 8005096:	2b01      	cmp	r3, #1
 8005098:	d115      	bne.n	80050c6 <HAL_I2C_Mem_Read+0x15e>
 800509a:	4632      	mov	r2, r6
 800509c:	4639      	mov	r1, r7
 800509e:	4620      	mov	r0, r4
 80050a0:	f7ff fc2b 	bl	80048fa <I2C_WaitOnRXNEFlagUntilTimeout>
 80050a4:	2800      	cmp	r0, #0
 80050a6:	d1b3      	bne.n	8005010 <HAL_I2C_Mem_Read+0xa8>
 80050a8:	6823      	ldr	r3, [r4, #0]
 80050aa:	691a      	ldr	r2, [r3, #16]
 80050ac:	6a63      	ldr	r3, [r4, #36]	; 0x24
 80050ae:	701a      	strb	r2, [r3, #0]
 80050b0:	6a63      	ldr	r3, [r4, #36]	; 0x24
 80050b2:	3301      	adds	r3, #1
 80050b4:	6263      	str	r3, [r4, #36]	; 0x24
 80050b6:	8d23      	ldrh	r3, [r4, #40]	; 0x28
 80050b8:	3b01      	subs	r3, #1
 80050ba:	8523      	strh	r3, [r4, #40]	; 0x28
 80050bc:	8d63      	ldrh	r3, [r4, #42]	; 0x2a
 80050be:	3b01      	subs	r3, #1
 80050c0:	b29b      	uxth	r3, r3
 80050c2:	8563      	strh	r3, [r4, #42]	; 0x2a
 80050c4:	e7b5      	b.n	8005032 <HAL_I2C_Mem_Read+0xca>
 80050c6:	2b02      	cmp	r3, #2
 80050c8:	9600      	str	r6, [sp, #0]
 80050ca:	463b      	mov	r3, r7
 80050cc:	f04f 0200 	mov.w	r2, #0
 80050d0:	4641      	mov	r1, r8
 80050d2:	4620      	mov	r0, r4
 80050d4:	d119      	bne.n	800510a <HAL_I2C_Mem_Read+0x1a2>
 80050d6:	f7ff fc3f 	bl	8004958 <I2C_WaitOnFlagUntilTimeout>
 80050da:	2800      	cmp	r0, #0
 80050dc:	d198      	bne.n	8005010 <HAL_I2C_Mem_Read+0xa8>
 80050de:	6823      	ldr	r3, [r4, #0]
 80050e0:	681a      	ldr	r2, [r3, #0]
 80050e2:	f442 7200 	orr.w	r2, r2, #512	; 0x200
 80050e6:	601a      	str	r2, [r3, #0]
 80050e8:	691a      	ldr	r2, [r3, #16]
 80050ea:	6a63      	ldr	r3, [r4, #36]	; 0x24
 80050ec:	701a      	strb	r2, [r3, #0]
 80050ee:	6a62      	ldr	r2, [r4, #36]	; 0x24
 80050f0:	1c53      	adds	r3, r2, #1
 80050f2:	6263      	str	r3, [r4, #36]	; 0x24
 80050f4:	8d23      	ldrh	r3, [r4, #40]	; 0x28
 80050f6:	3b01      	subs	r3, #1
 80050f8:	8523      	strh	r3, [r4, #40]	; 0x28
 80050fa:	8d63      	ldrh	r3, [r4, #42]	; 0x2a
 80050fc:	3b01      	subs	r3, #1
 80050fe:	b29b      	uxth	r3, r3
 8005100:	8563      	strh	r3, [r4, #42]	; 0x2a
 8005102:	6823      	ldr	r3, [r4, #0]
 8005104:	691b      	ldr	r3, [r3, #16]
 8005106:	7053      	strb	r3, [r2, #1]
 8005108:	e7d2      	b.n	80050b0 <HAL_I2C_Mem_Read+0x148>
 800510a:	f7ff fc25 	bl	8004958 <I2C_WaitOnFlagUntilTimeout>
 800510e:	2800      	cmp	r0, #0
 8005110:	f47f af7e 	bne.w	8005010 <HAL_I2C_Mem_Read+0xa8>
 8005114:	6823      	ldr	r3, [r4, #0]
 8005116:	681a      	ldr	r2, [r3, #0]
 8005118:	f422 6280 	bic.w	r2, r2, #1024	; 0x400
 800511c:	601a      	str	r2, [r3, #0]
 800511e:	691a      	ldr	r2, [r3, #16]
 8005120:	6a63      	ldr	r3, [r4, #36]	; 0x24
 8005122:	701a      	strb	r2, [r3, #0]
 8005124:	6a63      	ldr	r3, [r4, #36]	; 0x24
 8005126:	9600      	str	r6, [sp, #0]
 8005128:	3301      	adds	r3, #1
 800512a:	6263      	str	r3, [r4, #36]	; 0x24
 800512c:	8d23      	ldrh	r3, [r4, #40]	; 0x28
 800512e:	3b01      	subs	r3, #1
 8005130:	8523      	strh	r3, [r4, #40]	; 0x28
 8005132:	8d63      	ldrh	r3, [r4, #42]	; 0x2a
 8005134:	3b01      	subs	r3, #1
 8005136:	b29b      	uxth	r3, r3
 8005138:	8563      	strh	r3, [r4, #42]	; 0x2a
 800513a:	4602      	mov	r2, r0
 800513c:	463b      	mov	r3, r7
 800513e:	4641      	mov	r1, r8
 8005140:	4620      	mov	r0, r4
 8005142:	e7c8      	b.n	80050d6 <HAL_I2C_Mem_Read+0x16e>
 8005144:	4632      	mov	r2, r6
 8005146:	4639      	mov	r1, r7
 8005148:	4620      	mov	r0, r4
 800514a:	f7ff fbd6 	bl	80048fa <I2C_WaitOnRXNEFlagUntilTimeout>
 800514e:	2800      	cmp	r0, #0
 8005150:	f47f af5e 	bne.w	8005010 <HAL_I2C_Mem_Read+0xa8>
 8005154:	6823      	ldr	r3, [r4, #0]
 8005156:	691a      	ldr	r2, [r3, #16]
 8005158:	6a63      	ldr	r3, [r4, #36]	; 0x24
 800515a:	701a      	strb	r2, [r3, #0]
 800515c:	6a62      	ldr	r2, [r4, #36]	; 0x24
 800515e:	1c53      	adds	r3, r2, #1
 8005160:	6263      	str	r3, [r4, #36]	; 0x24
 8005162:	8d23      	ldrh	r3, [r4, #40]	; 0x28
 8005164:	3b01      	subs	r3, #1
 8005166:	8523      	strh	r3, [r4, #40]	; 0x28
 8005168:	8d63      	ldrh	r3, [r4, #42]	; 0x2a
 800516a:	3b01      	subs	r3, #1
 800516c:	b29b      	uxth	r3, r3
 800516e:	8563      	strh	r3, [r4, #42]	; 0x2a
 8005170:	6823      	ldr	r3, [r4, #0]
 8005172:	6959      	ldr	r1, [r3, #20]
 8005174:	0749      	lsls	r1, r1, #29
 8005176:	f57f af5c 	bpl.w	8005032 <HAL_I2C_Mem_Read+0xca>
 800517a:	e7c3      	b.n	8005104 <HAL_I2C_Mem_Read+0x19c>
 800517c:	080097f2 	.word	0x080097f2
 8005180:	00100002 	.word	0x00100002
 8005184:	ffff0000 	.word	0xffff0000
 8005188:	00010004 	.word	0x00010004

0800518c <HAL_I2C_GetState>:
 800518c:	f890 003d 	ldrb.w	r0, [r0, #61]	; 0x3d
 8005190:	4770      	bx	lr
	...

08005194 <HAL_RCC_OscConfig>:
 8005194:	e92d 41f3 	stmdb	sp!, {r0, r1, r4, r5, r6, r7, r8, lr}
 8005198:	4604      	mov	r4, r0
 800519a:	2800      	cmp	r0, #0
 800519c:	d042      	beq.n	8005224 <HAL_RCC_OscConfig+0x90>
 800519e:	6803      	ldr	r3, [r0, #0]
 80051a0:	2b0f      	cmp	r3, #15
 80051a2:	d903      	bls.n	80051ac <HAL_RCC_OscConfig+0x18>
 80051a4:	48a5      	ldr	r0, [pc, #660]	; (800543c <HAL_RCC_OscConfig+0x2a8>)
 80051a6:	21e8      	movs	r1, #232	; 0xe8
 80051a8:	f7fd fa88 	bl	80026bc <assert_failed>
 80051ac:	6823      	ldr	r3, [r4, #0]
 80051ae:	07d8      	lsls	r0, r3, #31
 80051b0:	d418      	bmi.n	80051e4 <HAL_RCC_OscConfig+0x50>
 80051b2:	6823      	ldr	r3, [r4, #0]
 80051b4:	0799      	lsls	r1, r3, #30
 80051b6:	d471      	bmi.n	800529c <HAL_RCC_OscConfig+0x108>
 80051b8:	6823      	ldr	r3, [r4, #0]
 80051ba:	0719      	lsls	r1, r3, #28
 80051bc:	f100 80c3 	bmi.w	8005346 <HAL_RCC_OscConfig+0x1b2>
 80051c0:	6823      	ldr	r3, [r4, #0]
 80051c2:	075a      	lsls	r2, r3, #29
 80051c4:	f100 80e9 	bmi.w	800539a <HAL_RCC_OscConfig+0x206>
 80051c8:	69a3      	ldr	r3, [r4, #24]
 80051ca:	2b02      	cmp	r3, #2
 80051cc:	d904      	bls.n	80051d8 <HAL_RCC_OscConfig+0x44>
 80051ce:	489b      	ldr	r0, [pc, #620]	; (800543c <HAL_RCC_OscConfig+0x2a8>)
 80051d0:	f240 11cf 	movw	r1, #463	; 0x1cf
 80051d4:	f7fd fa72 	bl	80026bc <assert_failed>
 80051d8:	69a0      	ldr	r0, [r4, #24]
 80051da:	2800      	cmp	r0, #0
 80051dc:	f040 8156 	bne.w	800548c <HAL_RCC_OscConfig+0x2f8>
 80051e0:	2000      	movs	r0, #0
 80051e2:	e036      	b.n	8005252 <HAL_RCC_OscConfig+0xbe>
 80051e4:	6863      	ldr	r3, [r4, #4]
 80051e6:	f433 3280 	bics.w	r2, r3, #65536	; 0x10000
 80051ea:	d006      	beq.n	80051fa <HAL_RCC_OscConfig+0x66>
 80051ec:	f5b3 2fa0 	cmp.w	r3, #327680	; 0x50000
 80051f0:	d003      	beq.n	80051fa <HAL_RCC_OscConfig+0x66>
 80051f2:	4892      	ldr	r0, [pc, #584]	; (800543c <HAL_RCC_OscConfig+0x2a8>)
 80051f4:	21ed      	movs	r1, #237	; 0xed
 80051f6:	f7fd fa61 	bl	80026bc <assert_failed>
 80051fa:	4b91      	ldr	r3, [pc, #580]	; (8005440 <HAL_RCC_OscConfig+0x2ac>)
 80051fc:	689a      	ldr	r2, [r3, #8]
 80051fe:	f002 020c 	and.w	r2, r2, #12
 8005202:	2a04      	cmp	r2, #4
 8005204:	d007      	beq.n	8005216 <HAL_RCC_OscConfig+0x82>
 8005206:	689a      	ldr	r2, [r3, #8]
 8005208:	f002 020c 	and.w	r2, r2, #12
 800520c:	2a08      	cmp	r2, #8
 800520e:	d10b      	bne.n	8005228 <HAL_RCC_OscConfig+0x94>
 8005210:	685a      	ldr	r2, [r3, #4]
 8005212:	0252      	lsls	r2, r2, #9
 8005214:	d508      	bpl.n	8005228 <HAL_RCC_OscConfig+0x94>
 8005216:	4b8a      	ldr	r3, [pc, #552]	; (8005440 <HAL_RCC_OscConfig+0x2ac>)
 8005218:	681b      	ldr	r3, [r3, #0]
 800521a:	039b      	lsls	r3, r3, #14
 800521c:	d5c9      	bpl.n	80051b2 <HAL_RCC_OscConfig+0x1e>
 800521e:	6863      	ldr	r3, [r4, #4]
 8005220:	2b00      	cmp	r3, #0
 8005222:	d1c6      	bne.n	80051b2 <HAL_RCC_OscConfig+0x1e>
 8005224:	2001      	movs	r0, #1
 8005226:	e014      	b.n	8005252 <HAL_RCC_OscConfig+0xbe>
 8005228:	6862      	ldr	r2, [r4, #4]
 800522a:	f5b2 3f80 	cmp.w	r2, #65536	; 0x10000
 800522e:	d113      	bne.n	8005258 <HAL_RCC_OscConfig+0xc4>
 8005230:	681a      	ldr	r2, [r3, #0]
 8005232:	f442 3280 	orr.w	r2, r2, #65536	; 0x10000
 8005236:	601a      	str	r2, [r3, #0]
 8005238:	f7fd ff6a 	bl	8003110 <HAL_GetTick>
 800523c:	4e80      	ldr	r6, [pc, #512]	; (8005440 <HAL_RCC_OscConfig+0x2ac>)
 800523e:	4605      	mov	r5, r0
 8005240:	6833      	ldr	r3, [r6, #0]
 8005242:	039f      	lsls	r7, r3, #14
 8005244:	d4b5      	bmi.n	80051b2 <HAL_RCC_OscConfig+0x1e>
 8005246:	f7fd ff63 	bl	8003110 <HAL_GetTick>
 800524a:	1b40      	subs	r0, r0, r5
 800524c:	2864      	cmp	r0, #100	; 0x64
 800524e:	d9f7      	bls.n	8005240 <HAL_RCC_OscConfig+0xac>
 8005250:	2003      	movs	r0, #3
 8005252:	b002      	add	sp, #8
 8005254:	e8bd 81f0 	ldmia.w	sp!, {r4, r5, r6, r7, r8, pc}
 8005258:	4d79      	ldr	r5, [pc, #484]	; (8005440 <HAL_RCC_OscConfig+0x2ac>)
 800525a:	f5b2 2fa0 	cmp.w	r2, #327680	; 0x50000
 800525e:	682b      	ldr	r3, [r5, #0]
 8005260:	d107      	bne.n	8005272 <HAL_RCC_OscConfig+0xde>
 8005262:	f443 2380 	orr.w	r3, r3, #262144	; 0x40000
 8005266:	602b      	str	r3, [r5, #0]
 8005268:	682b      	ldr	r3, [r5, #0]
 800526a:	f443 3380 	orr.w	r3, r3, #65536	; 0x10000
 800526e:	602b      	str	r3, [r5, #0]
 8005270:	e7e2      	b.n	8005238 <HAL_RCC_OscConfig+0xa4>
 8005272:	f423 3380 	bic.w	r3, r3, #65536	; 0x10000
 8005276:	602b      	str	r3, [r5, #0]
 8005278:	682b      	ldr	r3, [r5, #0]
 800527a:	f423 2380 	bic.w	r3, r3, #262144	; 0x40000
 800527e:	602b      	str	r3, [r5, #0]
 8005280:	2a00      	cmp	r2, #0
 8005282:	d1d9      	bne.n	8005238 <HAL_RCC_OscConfig+0xa4>
 8005284:	f7fd ff44 	bl	8003110 <HAL_GetTick>
 8005288:	4606      	mov	r6, r0
 800528a:	682b      	ldr	r3, [r5, #0]
 800528c:	0398      	lsls	r0, r3, #14
 800528e:	d590      	bpl.n	80051b2 <HAL_RCC_OscConfig+0x1e>
 8005290:	f7fd ff3e 	bl	8003110 <HAL_GetTick>
 8005294:	1b80      	subs	r0, r0, r6
 8005296:	2864      	cmp	r0, #100	; 0x64
 8005298:	d9f7      	bls.n	800528a <HAL_RCC_OscConfig+0xf6>
 800529a:	e7d9      	b.n	8005250 <HAL_RCC_OscConfig+0xbc>
 800529c:	68e3      	ldr	r3, [r4, #12]
 800529e:	2b01      	cmp	r3, #1
 80052a0:	d904      	bls.n	80052ac <HAL_RCC_OscConfig+0x118>
 80052a2:	4866      	ldr	r0, [pc, #408]	; (800543c <HAL_RCC_OscConfig+0x2a8>)
 80052a4:	f240 111f 	movw	r1, #287	; 0x11f
 80052a8:	f7fd fa08 	bl	80026bc <assert_failed>
 80052ac:	6923      	ldr	r3, [r4, #16]
 80052ae:	2b1f      	cmp	r3, #31
 80052b0:	d904      	bls.n	80052bc <HAL_RCC_OscConfig+0x128>
 80052b2:	4862      	ldr	r0, [pc, #392]	; (800543c <HAL_RCC_OscConfig+0x2a8>)
 80052b4:	f44f 7190 	mov.w	r1, #288	; 0x120
 80052b8:	f7fd fa00 	bl	80026bc <assert_failed>
 80052bc:	4b60      	ldr	r3, [pc, #384]	; (8005440 <HAL_RCC_OscConfig+0x2ac>)
 80052be:	689a      	ldr	r2, [r3, #8]
 80052c0:	f012 0f0c 	tst.w	r2, #12
 80052c4:	d007      	beq.n	80052d6 <HAL_RCC_OscConfig+0x142>
 80052c6:	689a      	ldr	r2, [r3, #8]
 80052c8:	f002 020c 	and.w	r2, r2, #12
 80052cc:	2a08      	cmp	r2, #8
 80052ce:	d111      	bne.n	80052f4 <HAL_RCC_OscConfig+0x160>
 80052d0:	685b      	ldr	r3, [r3, #4]
 80052d2:	0259      	lsls	r1, r3, #9
 80052d4:	d40e      	bmi.n	80052f4 <HAL_RCC_OscConfig+0x160>
 80052d6:	4b5a      	ldr	r3, [pc, #360]	; (8005440 <HAL_RCC_OscConfig+0x2ac>)
 80052d8:	681a      	ldr	r2, [r3, #0]
 80052da:	0792      	lsls	r2, r2, #30
 80052dc:	d502      	bpl.n	80052e4 <HAL_RCC_OscConfig+0x150>
 80052de:	68e2      	ldr	r2, [r4, #12]
 80052e0:	2a01      	cmp	r2, #1
 80052e2:	d19f      	bne.n	8005224 <HAL_RCC_OscConfig+0x90>
 80052e4:	681a      	ldr	r2, [r3, #0]
 80052e6:	6921      	ldr	r1, [r4, #16]
 80052e8:	f022 02f8 	bic.w	r2, r2, #248	; 0xf8
 80052ec:	ea42 02c1 	orr.w	r2, r2, r1, lsl #3
 80052f0:	601a      	str	r2, [r3, #0]
 80052f2:	e761      	b.n	80051b8 <HAL_RCC_OscConfig+0x24>
 80052f4:	68e2      	ldr	r2, [r4, #12]
 80052f6:	4b53      	ldr	r3, [pc, #332]	; (8005444 <HAL_RCC_OscConfig+0x2b0>)
 80052f8:	b1b2      	cbz	r2, 8005328 <HAL_RCC_OscConfig+0x194>
 80052fa:	2201      	movs	r2, #1
 80052fc:	601a      	str	r2, [r3, #0]
 80052fe:	f7fd ff07 	bl	8003110 <HAL_GetTick>
 8005302:	4d4f      	ldr	r5, [pc, #316]	; (8005440 <HAL_RCC_OscConfig+0x2ac>)
 8005304:	4606      	mov	r6, r0
 8005306:	682b      	ldr	r3, [r5, #0]
 8005308:	079f      	lsls	r7, r3, #30
 800530a:	d507      	bpl.n	800531c <HAL_RCC_OscConfig+0x188>
 800530c:	682b      	ldr	r3, [r5, #0]
 800530e:	6922      	ldr	r2, [r4, #16]
 8005310:	f023 03f8 	bic.w	r3, r3, #248	; 0xf8
 8005314:	ea43 03c2 	orr.w	r3, r3, r2, lsl #3
 8005318:	602b      	str	r3, [r5, #0]
 800531a:	e74d      	b.n	80051b8 <HAL_RCC_OscConfig+0x24>
 800531c:	f7fd fef8 	bl	8003110 <HAL_GetTick>
 8005320:	1b80      	subs	r0, r0, r6
 8005322:	2802      	cmp	r0, #2
 8005324:	d9ef      	bls.n	8005306 <HAL_RCC_OscConfig+0x172>
 8005326:	e793      	b.n	8005250 <HAL_RCC_OscConfig+0xbc>
 8005328:	601a      	str	r2, [r3, #0]
 800532a:	f7fd fef1 	bl	8003110 <HAL_GetTick>
 800532e:	4e44      	ldr	r6, [pc, #272]	; (8005440 <HAL_RCC_OscConfig+0x2ac>)
 8005330:	4605      	mov	r5, r0
 8005332:	6833      	ldr	r3, [r6, #0]
 8005334:	0798      	lsls	r0, r3, #30
 8005336:	f57f af3f 	bpl.w	80051b8 <HAL_RCC_OscConfig+0x24>
 800533a:	f7fd fee9 	bl	8003110 <HAL_GetTick>
 800533e:	1b40      	subs	r0, r0, r5
 8005340:	2802      	cmp	r0, #2
 8005342:	d9f6      	bls.n	8005332 <HAL_RCC_OscConfig+0x19e>
 8005344:	e784      	b.n	8005250 <HAL_RCC_OscConfig+0xbc>
 8005346:	6963      	ldr	r3, [r4, #20]
 8005348:	2b01      	cmp	r3, #1
 800534a:	d904      	bls.n	8005356 <HAL_RCC_OscConfig+0x1c2>
 800534c:	483b      	ldr	r0, [pc, #236]	; (800543c <HAL_RCC_OscConfig+0x2a8>)
 800534e:	f44f 71b0 	mov.w	r1, #352	; 0x160
 8005352:	f7fd f9b3 	bl	80026bc <assert_failed>
 8005356:	6962      	ldr	r2, [r4, #20]
 8005358:	4b3b      	ldr	r3, [pc, #236]	; (8005448 <HAL_RCC_OscConfig+0x2b4>)
 800535a:	b17a      	cbz	r2, 800537c <HAL_RCC_OscConfig+0x1e8>
 800535c:	2201      	movs	r2, #1
 800535e:	601a      	str	r2, [r3, #0]
 8005360:	f7fd fed6 	bl	8003110 <HAL_GetTick>
 8005364:	4e36      	ldr	r6, [pc, #216]	; (8005440 <HAL_RCC_OscConfig+0x2ac>)
 8005366:	4605      	mov	r5, r0
 8005368:	6f73      	ldr	r3, [r6, #116]	; 0x74
 800536a:	079b      	lsls	r3, r3, #30
 800536c:	f53f af28 	bmi.w	80051c0 <HAL_RCC_OscConfig+0x2c>
 8005370:	f7fd fece 	bl	8003110 <HAL_GetTick>
 8005374:	1b40      	subs	r0, r0, r5
 8005376:	2802      	cmp	r0, #2
 8005378:	d9f6      	bls.n	8005368 <HAL_RCC_OscConfig+0x1d4>
 800537a:	e769      	b.n	8005250 <HAL_RCC_OscConfig+0xbc>
 800537c:	601a      	str	r2, [r3, #0]
 800537e:	f7fd fec7 	bl	8003110 <HAL_GetTick>
 8005382:	4e2f      	ldr	r6, [pc, #188]	; (8005440 <HAL_RCC_OscConfig+0x2ac>)
 8005384:	4605      	mov	r5, r0
 8005386:	6f73      	ldr	r3, [r6, #116]	; 0x74
 8005388:	079f      	lsls	r7, r3, #30
 800538a:	f57f af19 	bpl.w	80051c0 <HAL_RCC_OscConfig+0x2c>
 800538e:	f7fd febf 	bl	8003110 <HAL_GetTick>
 8005392:	1b40      	subs	r0, r0, r5
 8005394:	2802      	cmp	r0, #2
 8005396:	d9f6      	bls.n	8005386 <HAL_RCC_OscConfig+0x1f2>
 8005398:	e75a      	b.n	8005250 <HAL_RCC_OscConfig+0xbc>
 800539a:	68a3      	ldr	r3, [r4, #8]
 800539c:	2b01      	cmp	r3, #1
 800539e:	d906      	bls.n	80053ae <HAL_RCC_OscConfig+0x21a>
 80053a0:	2b05      	cmp	r3, #5
 80053a2:	d004      	beq.n	80053ae <HAL_RCC_OscConfig+0x21a>
 80053a4:	4825      	ldr	r0, [pc, #148]	; (800543c <HAL_RCC_OscConfig+0x2a8>)
 80053a6:	f44f 71c6 	mov.w	r1, #396	; 0x18c
 80053aa:	f7fd f987 	bl	80026bc <assert_failed>
 80053ae:	4b24      	ldr	r3, [pc, #144]	; (8005440 <HAL_RCC_OscConfig+0x2ac>)
 80053b0:	6c1a      	ldr	r2, [r3, #64]	; 0x40
 80053b2:	f012 5280 	ands.w	r2, r2, #268435456	; 0x10000000
 80053b6:	d128      	bne.n	800540a <HAL_RCC_OscConfig+0x276>
 80053b8:	9201      	str	r2, [sp, #4]
 80053ba:	6c1a      	ldr	r2, [r3, #64]	; 0x40
 80053bc:	f042 5280 	orr.w	r2, r2, #268435456	; 0x10000000
 80053c0:	641a      	str	r2, [r3, #64]	; 0x40
 80053c2:	6c1b      	ldr	r3, [r3, #64]	; 0x40
 80053c4:	f003 5380 	and.w	r3, r3, #268435456	; 0x10000000
 80053c8:	9301      	str	r3, [sp, #4]
 80053ca:	9b01      	ldr	r3, [sp, #4]
 80053cc:	2701      	movs	r7, #1
 80053ce:	4d1f      	ldr	r5, [pc, #124]	; (800544c <HAL_RCC_OscConfig+0x2b8>)
 80053d0:	682b      	ldr	r3, [r5, #0]
 80053d2:	05d8      	lsls	r0, r3, #23
 80053d4:	d51b      	bpl.n	800540e <HAL_RCC_OscConfig+0x27a>
 80053d6:	68a3      	ldr	r3, [r4, #8]
 80053d8:	4d19      	ldr	r5, [pc, #100]	; (8005440 <HAL_RCC_OscConfig+0x2ac>)
 80053da:	2b01      	cmp	r3, #1
 80053dc:	d127      	bne.n	800542e <HAL_RCC_OscConfig+0x29a>
 80053de:	6f2b      	ldr	r3, [r5, #112]	; 0x70
 80053e0:	f043 0301 	orr.w	r3, r3, #1
 80053e4:	672b      	str	r3, [r5, #112]	; 0x70
 80053e6:	f7fd fe93 	bl	8003110 <HAL_GetTick>
 80053ea:	4e15      	ldr	r6, [pc, #84]	; (8005440 <HAL_RCC_OscConfig+0x2ac>)
 80053ec:	4605      	mov	r5, r0
 80053ee:	f241 3888 	movw	r8, #5000	; 0x1388
 80053f2:	6f33      	ldr	r3, [r6, #112]	; 0x70
 80053f4:	079a      	lsls	r2, r3, #30
 80053f6:	d543      	bpl.n	8005480 <HAL_RCC_OscConfig+0x2ec>
 80053f8:	2f00      	cmp	r7, #0
 80053fa:	f43f aee5 	beq.w	80051c8 <HAL_RCC_OscConfig+0x34>
 80053fe:	4a10      	ldr	r2, [pc, #64]	; (8005440 <HAL_RCC_OscConfig+0x2ac>)
 8005400:	6c13      	ldr	r3, [r2, #64]	; 0x40
 8005402:	f023 5380 	bic.w	r3, r3, #268435456	; 0x10000000
 8005406:	6413      	str	r3, [r2, #64]	; 0x40
 8005408:	e6de      	b.n	80051c8 <HAL_RCC_OscConfig+0x34>
 800540a:	2700      	movs	r7, #0
 800540c:	e7df      	b.n	80053ce <HAL_RCC_OscConfig+0x23a>
 800540e:	682b      	ldr	r3, [r5, #0]
 8005410:	f443 7380 	orr.w	r3, r3, #256	; 0x100
 8005414:	602b      	str	r3, [r5, #0]
 8005416:	f7fd fe7b 	bl	8003110 <HAL_GetTick>
 800541a:	4606      	mov	r6, r0
 800541c:	682b      	ldr	r3, [r5, #0]
 800541e:	05d9      	lsls	r1, r3, #23
 8005420:	d4d9      	bmi.n	80053d6 <HAL_RCC_OscConfig+0x242>
 8005422:	f7fd fe75 	bl	8003110 <HAL_GetTick>
 8005426:	1b80      	subs	r0, r0, r6
 8005428:	2802      	cmp	r0, #2
 800542a:	d9f7      	bls.n	800541c <HAL_RCC_OscConfig+0x288>
 800542c:	e710      	b.n	8005250 <HAL_RCC_OscConfig+0xbc>
 800542e:	2b05      	cmp	r3, #5
 8005430:	d10e      	bne.n	8005450 <HAL_RCC_OscConfig+0x2bc>
 8005432:	6f2b      	ldr	r3, [r5, #112]	; 0x70
 8005434:	f043 0304 	orr.w	r3, r3, #4
 8005438:	672b      	str	r3, [r5, #112]	; 0x70
 800543a:	e7d0      	b.n	80053de <HAL_RCC_OscConfig+0x24a>
 800543c:	0800982a 	.word	0x0800982a
 8005440:	40023800 	.word	0x40023800
 8005444:	42470000 	.word	0x42470000
 8005448:	42470e80 	.word	0x42470e80
 800544c:	40007000 	.word	0x40007000
 8005450:	6f2a      	ldr	r2, [r5, #112]	; 0x70
 8005452:	f022 0201 	bic.w	r2, r2, #1
 8005456:	672a      	str	r2, [r5, #112]	; 0x70
 8005458:	6f2a      	ldr	r2, [r5, #112]	; 0x70
 800545a:	f022 0204 	bic.w	r2, r2, #4
 800545e:	672a      	str	r2, [r5, #112]	; 0x70
 8005460:	2b00      	cmp	r3, #0
 8005462:	d1c0      	bne.n	80053e6 <HAL_RCC_OscConfig+0x252>
 8005464:	f7fd fe54 	bl	8003110 <HAL_GetTick>
 8005468:	f241 3888 	movw	r8, #5000	; 0x1388
 800546c:	4606      	mov	r6, r0
 800546e:	6f2b      	ldr	r3, [r5, #112]	; 0x70
 8005470:	079b      	lsls	r3, r3, #30
 8005472:	d5c1      	bpl.n	80053f8 <HAL_RCC_OscConfig+0x264>
 8005474:	f7fd fe4c 	bl	8003110 <HAL_GetTick>
 8005478:	1b80      	subs	r0, r0, r6
 800547a:	4540      	cmp	r0, r8
 800547c:	d9f7      	bls.n	800546e <HAL_RCC_OscConfig+0x2da>
 800547e:	e6e7      	b.n	8005250 <HAL_RCC_OscConfig+0xbc>
 8005480:	f7fd fe46 	bl	8003110 <HAL_GetTick>
 8005484:	1b40      	subs	r0, r0, r5
 8005486:	4540      	cmp	r0, r8
 8005488:	d9b3      	bls.n	80053f2 <HAL_RCC_OscConfig+0x25e>
 800548a:	e6e1      	b.n	8005250 <HAL_RCC_OscConfig+0xbc>
 800548c:	4d4f      	ldr	r5, [pc, #316]	; (80055cc <HAL_RCC_OscConfig+0x438>)
 800548e:	68ab      	ldr	r3, [r5, #8]
 8005490:	f003 030c 	and.w	r3, r3, #12
 8005494:	2b08      	cmp	r3, #8
 8005496:	d070      	beq.n	800557a <HAL_RCC_OscConfig+0x3e6>
 8005498:	2802      	cmp	r0, #2
 800549a:	4e4d      	ldr	r6, [pc, #308]	; (80055d0 <HAL_RCC_OscConfig+0x43c>)
 800549c:	d15e      	bne.n	800555c <HAL_RCC_OscConfig+0x3c8>
 800549e:	69e3      	ldr	r3, [r4, #28]
 80054a0:	f433 0380 	bics.w	r3, r3, #4194304	; 0x400000
 80054a4:	d004      	beq.n	80054b0 <HAL_RCC_OscConfig+0x31c>
 80054a6:	484b      	ldr	r0, [pc, #300]	; (80055d4 <HAL_RCC_OscConfig+0x440>)
 80054a8:	f44f 71ec 	mov.w	r1, #472	; 0x1d8
 80054ac:	f7fd f906 	bl	80026bc <assert_failed>
 80054b0:	6a23      	ldr	r3, [r4, #32]
 80054b2:	2b3f      	cmp	r3, #63	; 0x3f
 80054b4:	d904      	bls.n	80054c0 <HAL_RCC_OscConfig+0x32c>
 80054b6:	4847      	ldr	r0, [pc, #284]	; (80055d4 <HAL_RCC_OscConfig+0x440>)
 80054b8:	f240 11d9 	movw	r1, #473	; 0x1d9
 80054bc:	f7fd f8fe 	bl	80026bc <assert_failed>
 80054c0:	6a63      	ldr	r3, [r4, #36]	; 0x24
 80054c2:	3b32      	subs	r3, #50	; 0x32
 80054c4:	f5b3 7fbf 	cmp.w	r3, #382	; 0x17e
 80054c8:	d904      	bls.n	80054d4 <HAL_RCC_OscConfig+0x340>
 80054ca:	4842      	ldr	r0, [pc, #264]	; (80055d4 <HAL_RCC_OscConfig+0x440>)
 80054cc:	f44f 71ed 	mov.w	r1, #474	; 0x1da
 80054d0:	f7fd f8f4 	bl	80026bc <assert_failed>
 80054d4:	6aa2      	ldr	r2, [r4, #40]	; 0x28
 80054d6:	2a08      	cmp	r2, #8
 80054d8:	d804      	bhi.n	80054e4 <HAL_RCC_OscConfig+0x350>
 80054da:	f44f 73aa 	mov.w	r3, #340	; 0x154
 80054de:	40d3      	lsrs	r3, r2
 80054e0:	07d8      	lsls	r0, r3, #31
 80054e2:	d404      	bmi.n	80054ee <HAL_RCC_OscConfig+0x35a>
 80054e4:	483b      	ldr	r0, [pc, #236]	; (80055d4 <HAL_RCC_OscConfig+0x440>)
 80054e6:	f240 11db 	movw	r1, #475	; 0x1db
 80054ea:	f7fd f8e7 	bl	80026bc <assert_failed>
 80054ee:	6ae3      	ldr	r3, [r4, #44]	; 0x2c
 80054f0:	3b02      	subs	r3, #2
 80054f2:	2b0d      	cmp	r3, #13
 80054f4:	d904      	bls.n	8005500 <HAL_RCC_OscConfig+0x36c>
 80054f6:	4837      	ldr	r0, [pc, #220]	; (80055d4 <HAL_RCC_OscConfig+0x440>)
 80054f8:	f44f 71ee 	mov.w	r1, #476	; 0x1dc
 80054fc:	f7fd f8de 	bl	80026bc <assert_failed>
 8005500:	2300      	movs	r3, #0
 8005502:	6033      	str	r3, [r6, #0]
 8005504:	f7fd fe04 	bl	8003110 <HAL_GetTick>
 8005508:	4d30      	ldr	r5, [pc, #192]	; (80055cc <HAL_RCC_OscConfig+0x438>)
 800550a:	4607      	mov	r7, r0
 800550c:	682b      	ldr	r3, [r5, #0]
 800550e:	0199      	lsls	r1, r3, #6
 8005510:	d41e      	bmi.n	8005550 <HAL_RCC_OscConfig+0x3bc>
 8005512:	e9d4 3207 	ldrd	r3, r2, [r4, #28]
 8005516:	4313      	orrs	r3, r2
 8005518:	6a62      	ldr	r2, [r4, #36]	; 0x24
 800551a:	ea43 1382 	orr.w	r3, r3, r2, lsl #6
 800551e:	6ae2      	ldr	r2, [r4, #44]	; 0x2c
 8005520:	ea43 6302 	orr.w	r3, r3, r2, lsl #24
 8005524:	6aa2      	ldr	r2, [r4, #40]	; 0x28
 8005526:	0852      	lsrs	r2, r2, #1
 8005528:	3a01      	subs	r2, #1
 800552a:	ea43 4302 	orr.w	r3, r3, r2, lsl #16
 800552e:	606b      	str	r3, [r5, #4]
 8005530:	2301      	movs	r3, #1
 8005532:	6033      	str	r3, [r6, #0]
 8005534:	f7fd fdec 	bl	8003110 <HAL_GetTick>
 8005538:	4d24      	ldr	r5, [pc, #144]	; (80055cc <HAL_RCC_OscConfig+0x438>)
 800553a:	4604      	mov	r4, r0
 800553c:	682b      	ldr	r3, [r5, #0]
 800553e:	019a      	lsls	r2, r3, #6
 8005540:	f53f ae4e 	bmi.w	80051e0 <HAL_RCC_OscConfig+0x4c>
 8005544:	f7fd fde4 	bl	8003110 <HAL_GetTick>
 8005548:	1b00      	subs	r0, r0, r4
 800554a:	2802      	cmp	r0, #2
 800554c:	d9f6      	bls.n	800553c <HAL_RCC_OscConfig+0x3a8>
 800554e:	e67f      	b.n	8005250 <HAL_RCC_OscConfig+0xbc>
 8005550:	f7fd fdde 	bl	8003110 <HAL_GetTick>
 8005554:	1bc0      	subs	r0, r0, r7
 8005556:	2802      	cmp	r0, #2
 8005558:	d9d8      	bls.n	800550c <HAL_RCC_OscConfig+0x378>
 800555a:	e679      	b.n	8005250 <HAL_RCC_OscConfig+0xbc>
 800555c:	2300      	movs	r3, #0
 800555e:	6033      	str	r3, [r6, #0]
 8005560:	f7fd fdd6 	bl	8003110 <HAL_GetTick>
 8005564:	4604      	mov	r4, r0
 8005566:	682b      	ldr	r3, [r5, #0]
 8005568:	019b      	lsls	r3, r3, #6
 800556a:	f57f ae39 	bpl.w	80051e0 <HAL_RCC_OscConfig+0x4c>
 800556e:	f7fd fdcf 	bl	8003110 <HAL_GetTick>
 8005572:	1b00      	subs	r0, r0, r4
 8005574:	2802      	cmp	r0, #2
 8005576:	d9f6      	bls.n	8005566 <HAL_RCC_OscConfig+0x3d2>
 8005578:	e66a      	b.n	8005250 <HAL_RCC_OscConfig+0xbc>
 800557a:	2801      	cmp	r0, #1
 800557c:	f43f ae69 	beq.w	8005252 <HAL_RCC_OscConfig+0xbe>
 8005580:	686b      	ldr	r3, [r5, #4]
 8005582:	69e2      	ldr	r2, [r4, #28]
 8005584:	f403 0180 	and.w	r1, r3, #4194304	; 0x400000
 8005588:	4291      	cmp	r1, r2
 800558a:	f47f ae4b 	bne.w	8005224 <HAL_RCC_OscConfig+0x90>
 800558e:	6a21      	ldr	r1, [r4, #32]
 8005590:	f003 023f 	and.w	r2, r3, #63	; 0x3f
 8005594:	428a      	cmp	r2, r1
 8005596:	f47f ae45 	bne.w	8005224 <HAL_RCC_OscConfig+0x90>
 800559a:	6a61      	ldr	r1, [r4, #36]	; 0x24
 800559c:	f647 72c0 	movw	r2, #32704	; 0x7fc0
 80055a0:	401a      	ands	r2, r3
 80055a2:	ebb2 1f81 	cmp.w	r2, r1, lsl #6
 80055a6:	f47f ae3d 	bne.w	8005224 <HAL_RCC_OscConfig+0x90>
 80055aa:	6aa2      	ldr	r2, [r4, #40]	; 0x28
 80055ac:	0852      	lsrs	r2, r2, #1
 80055ae:	f403 3140 	and.w	r1, r3, #196608	; 0x30000
 80055b2:	3a01      	subs	r2, #1
 80055b4:	ebb1 4f02 	cmp.w	r1, r2, lsl #16
 80055b8:	f47f ae34 	bne.w	8005224 <HAL_RCC_OscConfig+0x90>
 80055bc:	6ae2      	ldr	r2, [r4, #44]	; 0x2c
 80055be:	f003 6370 	and.w	r3, r3, #251658240	; 0xf000000
 80055c2:	ebb3 6f02 	cmp.w	r3, r2, lsl #24
 80055c6:	f43f ae0b 	beq.w	80051e0 <HAL_RCC_OscConfig+0x4c>
 80055ca:	e62b      	b.n	8005224 <HAL_RCC_OscConfig+0x90>
 80055cc:	40023800 	.word	0x40023800
 80055d0:	42470060 	.word	0x42470060
 80055d4:	0800982a 	.word	0x0800982a

080055d8 <HAL_RCC_GetSysClockFreq>:
 80055d8:	4913      	ldr	r1, [pc, #76]	; (8005628 <HAL_RCC_GetSysClockFreq+0x50>)
 80055da:	b508      	push	{r3, lr}
 80055dc:	688b      	ldr	r3, [r1, #8]
 80055de:	f003 030c 	and.w	r3, r3, #12
 80055e2:	2b04      	cmp	r3, #4
 80055e4:	d01c      	beq.n	8005620 <HAL_RCC_GetSysClockFreq+0x48>
 80055e6:	2b08      	cmp	r3, #8
 80055e8:	d11c      	bne.n	8005624 <HAL_RCC_GetSysClockFreq+0x4c>
 80055ea:	684a      	ldr	r2, [r1, #4]
 80055ec:	684b      	ldr	r3, [r1, #4]
 80055ee:	6849      	ldr	r1, [r1, #4]
 80055f0:	f413 0380 	ands.w	r3, r3, #4194304	; 0x400000
 80055f4:	bf14      	ite	ne
 80055f6:	480d      	ldrne	r0, [pc, #52]	; (800562c <HAL_RCC_GetSysClockFreq+0x54>)
 80055f8:	480d      	ldreq	r0, [pc, #52]	; (8005630 <HAL_RCC_GetSysClockFreq+0x58>)
 80055fa:	f3c1 1188 	ubfx	r1, r1, #6, #9
 80055fe:	bf18      	it	ne
 8005600:	2300      	movne	r3, #0
 8005602:	f002 023f 	and.w	r2, r2, #63	; 0x3f
 8005606:	fba1 0100 	umull	r0, r1, r1, r0
 800560a:	f7fb fa8b 	bl	8000b24 <__aeabi_uldivmod>
 800560e:	4b06      	ldr	r3, [pc, #24]	; (8005628 <HAL_RCC_GetSysClockFreq+0x50>)
 8005610:	685b      	ldr	r3, [r3, #4]
 8005612:	f3c3 4301 	ubfx	r3, r3, #16, #2
 8005616:	3301      	adds	r3, #1
 8005618:	005b      	lsls	r3, r3, #1
 800561a:	fbb0 f0f3 	udiv	r0, r0, r3
 800561e:	bd08      	pop	{r3, pc}
 8005620:	4802      	ldr	r0, [pc, #8]	; (800562c <HAL_RCC_GetSysClockFreq+0x54>)
 8005622:	e7fc      	b.n	800561e <HAL_RCC_GetSysClockFreq+0x46>
 8005624:	4802      	ldr	r0, [pc, #8]	; (8005630 <HAL_RCC_GetSysClockFreq+0x58>)
 8005626:	e7fa      	b.n	800561e <HAL_RCC_GetSysClockFreq+0x46>
 8005628:	40023800 	.word	0x40023800
 800562c:	007a1200 	.word	0x007a1200
 8005630:	00f42400 	.word	0x00f42400

08005634 <HAL_RCC_ClockConfig>:
 8005634:	e92d 41f0 	stmdb	sp!, {r4, r5, r6, r7, r8, lr}
 8005638:	460d      	mov	r5, r1
 800563a:	4604      	mov	r4, r0
 800563c:	b910      	cbnz	r0, 8005644 <HAL_RCC_ClockConfig+0x10>
 800563e:	2001      	movs	r0, #1
 8005640:	e8bd 81f0 	ldmia.w	sp!, {r4, r5, r6, r7, r8, pc}
 8005644:	6803      	ldr	r3, [r0, #0]
 8005646:	3b01      	subs	r3, #1
 8005648:	2b0e      	cmp	r3, #14
 800564a:	d904      	bls.n	8005656 <HAL_RCC_ClockConfig+0x22>
 800564c:	486d      	ldr	r0, [pc, #436]	; (8005804 <HAL_RCC_ClockConfig+0x1d0>)
 800564e:	f44f 7117 	mov.w	r1, #604	; 0x25c
 8005652:	f7fd f833 	bl	80026bc <assert_failed>
 8005656:	2d07      	cmp	r5, #7
 8005658:	d904      	bls.n	8005664 <HAL_RCC_ClockConfig+0x30>
 800565a:	486a      	ldr	r0, [pc, #424]	; (8005804 <HAL_RCC_ClockConfig+0x1d0>)
 800565c:	f240 215d 	movw	r1, #605	; 0x25d
 8005660:	f7fd f82c 	bl	80026bc <assert_failed>
 8005664:	4b68      	ldr	r3, [pc, #416]	; (8005808 <HAL_RCC_ClockConfig+0x1d4>)
 8005666:	681a      	ldr	r2, [r3, #0]
 8005668:	f002 0207 	and.w	r2, r2, #7
 800566c:	42aa      	cmp	r2, r5
 800566e:	d33d      	bcc.n	80056ec <HAL_RCC_ClockConfig+0xb8>
 8005670:	6822      	ldr	r2, [r4, #0]
 8005672:	0796      	lsls	r6, r2, #30
 8005674:	d442      	bmi.n	80056fc <HAL_RCC_ClockConfig+0xc8>
 8005676:	6823      	ldr	r3, [r4, #0]
 8005678:	07d9      	lsls	r1, r3, #31
 800567a:	d46c      	bmi.n	8005756 <HAL_RCC_ClockConfig+0x122>
 800567c:	4b62      	ldr	r3, [pc, #392]	; (8005808 <HAL_RCC_ClockConfig+0x1d4>)
 800567e:	681a      	ldr	r2, [r3, #0]
 8005680:	f002 0207 	and.w	r2, r2, #7
 8005684:	42aa      	cmp	r2, r5
 8005686:	f200 809b 	bhi.w	80057c0 <HAL_RCC_ClockConfig+0x18c>
 800568a:	6823      	ldr	r3, [r4, #0]
 800568c:	075a      	lsls	r2, r3, #29
 800568e:	f100 80a0 	bmi.w	80057d2 <HAL_RCC_ClockConfig+0x19e>
 8005692:	6823      	ldr	r3, [r4, #0]
 8005694:	071b      	lsls	r3, r3, #28
 8005696:	d518      	bpl.n	80056ca <HAL_RCC_ClockConfig+0x96>
 8005698:	6923      	ldr	r3, [r4, #16]
 800569a:	f433 5280 	bics.w	r2, r3, #4096	; 0x1000
 800569e:	d00c      	beq.n	80056ba <HAL_RCC_ClockConfig+0x86>
 80056a0:	f423 6200 	bic.w	r2, r3, #2048	; 0x800
 80056a4:	f5b2 5fa0 	cmp.w	r2, #5120	; 0x1400
 80056a8:	d007      	beq.n	80056ba <HAL_RCC_ClockConfig+0x86>
 80056aa:	f5b3 5fc0 	cmp.w	r3, #6144	; 0x1800
 80056ae:	d004      	beq.n	80056ba <HAL_RCC_ClockConfig+0x86>
 80056b0:	4854      	ldr	r0, [pc, #336]	; (8005804 <HAL_RCC_ClockConfig+0x1d0>)
 80056b2:	f44f 7133 	mov.w	r1, #716	; 0x2cc
 80056b6:	f7fd f801 	bl	80026bc <assert_failed>
 80056ba:	4a54      	ldr	r2, [pc, #336]	; (800580c <HAL_RCC_ClockConfig+0x1d8>)
 80056bc:	6921      	ldr	r1, [r4, #16]
 80056be:	6893      	ldr	r3, [r2, #8]
 80056c0:	f423 4360 	bic.w	r3, r3, #57344	; 0xe000
 80056c4:	ea43 03c1 	orr.w	r3, r3, r1, lsl #3
 80056c8:	6093      	str	r3, [r2, #8]
 80056ca:	f7ff ff85 	bl	80055d8 <HAL_RCC_GetSysClockFreq>
 80056ce:	4b4f      	ldr	r3, [pc, #316]	; (800580c <HAL_RCC_ClockConfig+0x1d8>)
 80056d0:	4a4f      	ldr	r2, [pc, #316]	; (8005810 <HAL_RCC_ClockConfig+0x1dc>)
 80056d2:	689b      	ldr	r3, [r3, #8]
 80056d4:	f3c3 1303 	ubfx	r3, r3, #4, #4
 80056d8:	5cd3      	ldrb	r3, [r2, r3]
 80056da:	40d8      	lsrs	r0, r3
 80056dc:	4b4d      	ldr	r3, [pc, #308]	; (8005814 <HAL_RCC_ClockConfig+0x1e0>)
 80056de:	6018      	str	r0, [r3, #0]
 80056e0:	4b4d      	ldr	r3, [pc, #308]	; (8005818 <HAL_RCC_ClockConfig+0x1e4>)
 80056e2:	6818      	ldr	r0, [r3, #0]
 80056e4:	f7fd fcca 	bl	800307c <HAL_InitTick>
 80056e8:	2000      	movs	r0, #0
 80056ea:	e7a9      	b.n	8005640 <HAL_RCC_ClockConfig+0xc>
 80056ec:	b2ea      	uxtb	r2, r5
 80056ee:	701a      	strb	r2, [r3, #0]
 80056f0:	681b      	ldr	r3, [r3, #0]
 80056f2:	f003 0307 	and.w	r3, r3, #7
 80056f6:	42ab      	cmp	r3, r5
 80056f8:	d1a1      	bne.n	800563e <HAL_RCC_ClockConfig+0xa>
 80056fa:	e7b9      	b.n	8005670 <HAL_RCC_ClockConfig+0x3c>
 80056fc:	4b43      	ldr	r3, [pc, #268]	; (800580c <HAL_RCC_ClockConfig+0x1d8>)
 80056fe:	f012 0f04 	tst.w	r2, #4
 8005702:	bf1e      	ittt	ne
 8005704:	6899      	ldrne	r1, [r3, #8]
 8005706:	f441 51e0 	orrne.w	r1, r1, #7168	; 0x1c00
 800570a:	6099      	strne	r1, [r3, #8]
 800570c:	0710      	lsls	r0, r2, #28
 800570e:	bf42      	ittt	mi
 8005710:	689a      	ldrmi	r2, [r3, #8]
 8005712:	f442 4260 	orrmi.w	r2, r2, #57344	; 0xe000
 8005716:	609a      	strmi	r2, [r3, #8]
 8005718:	68a3      	ldr	r3, [r4, #8]
 800571a:	f033 0280 	bics.w	r2, r3, #128	; 0x80
 800571e:	d012      	beq.n	8005746 <HAL_RCC_ClockConfig+0x112>
 8005720:	f023 0220 	bic.w	r2, r3, #32
 8005724:	2a90      	cmp	r2, #144	; 0x90
 8005726:	d00e      	beq.n	8005746 <HAL_RCC_ClockConfig+0x112>
 8005728:	f023 0240 	bic.w	r2, r3, #64	; 0x40
 800572c:	2aa0      	cmp	r2, #160	; 0xa0
 800572e:	d00a      	beq.n	8005746 <HAL_RCC_ClockConfig+0x112>
 8005730:	f023 0210 	bic.w	r2, r3, #16
 8005734:	2ac0      	cmp	r2, #192	; 0xc0
 8005736:	d006      	beq.n	8005746 <HAL_RCC_ClockConfig+0x112>
 8005738:	2bf0      	cmp	r3, #240	; 0xf0
 800573a:	d004      	beq.n	8005746 <HAL_RCC_ClockConfig+0x112>
 800573c:	4831      	ldr	r0, [pc, #196]	; (8005804 <HAL_RCC_ClockConfig+0x1d0>)
 800573e:	f44f 7120 	mov.w	r1, #640	; 0x280
 8005742:	f7fc ffbb 	bl	80026bc <assert_failed>
 8005746:	4a31      	ldr	r2, [pc, #196]	; (800580c <HAL_RCC_ClockConfig+0x1d8>)
 8005748:	68a1      	ldr	r1, [r4, #8]
 800574a:	6893      	ldr	r3, [r2, #8]
 800574c:	f023 03f0 	bic.w	r3, r3, #240	; 0xf0
 8005750:	430b      	orrs	r3, r1
 8005752:	6093      	str	r3, [r2, #8]
 8005754:	e78f      	b.n	8005676 <HAL_RCC_ClockConfig+0x42>
 8005756:	6863      	ldr	r3, [r4, #4]
 8005758:	2b03      	cmp	r3, #3
 800575a:	d904      	bls.n	8005766 <HAL_RCC_ClockConfig+0x132>
 800575c:	4829      	ldr	r0, [pc, #164]	; (8005804 <HAL_RCC_ClockConfig+0x1d0>)
 800575e:	f240 2187 	movw	r1, #647	; 0x287
 8005762:	f7fc ffab 	bl	80026bc <assert_failed>
 8005766:	6862      	ldr	r2, [r4, #4]
 8005768:	4b28      	ldr	r3, [pc, #160]	; (800580c <HAL_RCC_ClockConfig+0x1d8>)
 800576a:	2a01      	cmp	r2, #1
 800576c:	d11e      	bne.n	80057ac <HAL_RCC_ClockConfig+0x178>
 800576e:	681b      	ldr	r3, [r3, #0]
 8005770:	f413 3f00 	tst.w	r3, #131072	; 0x20000
 8005774:	f43f af63 	beq.w	800563e <HAL_RCC_ClockConfig+0xa>
 8005778:	4e24      	ldr	r6, [pc, #144]	; (800580c <HAL_RCC_ClockConfig+0x1d8>)
 800577a:	68b3      	ldr	r3, [r6, #8]
 800577c:	f023 0303 	bic.w	r3, r3, #3
 8005780:	4313      	orrs	r3, r2
 8005782:	60b3      	str	r3, [r6, #8]
 8005784:	f7fd fcc4 	bl	8003110 <HAL_GetTick>
 8005788:	f241 3888 	movw	r8, #5000	; 0x1388
 800578c:	4607      	mov	r7, r0
 800578e:	68b3      	ldr	r3, [r6, #8]
 8005790:	6862      	ldr	r2, [r4, #4]
 8005792:	f003 030c 	and.w	r3, r3, #12
 8005796:	ebb3 0f82 	cmp.w	r3, r2, lsl #2
 800579a:	f43f af6f 	beq.w	800567c <HAL_RCC_ClockConfig+0x48>
 800579e:	f7fd fcb7 	bl	8003110 <HAL_GetTick>
 80057a2:	1bc0      	subs	r0, r0, r7
 80057a4:	4540      	cmp	r0, r8
 80057a6:	d9f2      	bls.n	800578e <HAL_RCC_ClockConfig+0x15a>
 80057a8:	2003      	movs	r0, #3
 80057aa:	e749      	b.n	8005640 <HAL_RCC_ClockConfig+0xc>
 80057ac:	1e91      	subs	r1, r2, #2
 80057ae:	2901      	cmp	r1, #1
 80057b0:	681b      	ldr	r3, [r3, #0]
 80057b2:	d802      	bhi.n	80057ba <HAL_RCC_ClockConfig+0x186>
 80057b4:	f013 7f00 	tst.w	r3, #33554432	; 0x2000000
 80057b8:	e7dc      	b.n	8005774 <HAL_RCC_ClockConfig+0x140>
 80057ba:	f013 0f02 	tst.w	r3, #2
 80057be:	e7d9      	b.n	8005774 <HAL_RCC_ClockConfig+0x140>
 80057c0:	b2ea      	uxtb	r2, r5
 80057c2:	701a      	strb	r2, [r3, #0]
 80057c4:	681b      	ldr	r3, [r3, #0]
 80057c6:	f003 0307 	and.w	r3, r3, #7
 80057ca:	42ab      	cmp	r3, r5
 80057cc:	f47f af37 	bne.w	800563e <HAL_RCC_ClockConfig+0xa>
 80057d0:	e75b      	b.n	800568a <HAL_RCC_ClockConfig+0x56>
 80057d2:	68e3      	ldr	r3, [r4, #12]
 80057d4:	f433 5280 	bics.w	r2, r3, #4096	; 0x1000
 80057d8:	d00c      	beq.n	80057f4 <HAL_RCC_ClockConfig+0x1c0>
 80057da:	f423 6200 	bic.w	r2, r3, #2048	; 0x800
 80057de:	f5b2 5fa0 	cmp.w	r2, #5120	; 0x1400
 80057e2:	d007      	beq.n	80057f4 <HAL_RCC_ClockConfig+0x1c0>
 80057e4:	f5b3 5fc0 	cmp.w	r3, #6144	; 0x1800
 80057e8:	d004      	beq.n	80057f4 <HAL_RCC_ClockConfig+0x1c0>
 80057ea:	4806      	ldr	r0, [pc, #24]	; (8005804 <HAL_RCC_ClockConfig+0x1d0>)
 80057ec:	f240 21c5 	movw	r1, #709	; 0x2c5
 80057f0:	f7fc ff64 	bl	80026bc <assert_failed>
 80057f4:	4a05      	ldr	r2, [pc, #20]	; (800580c <HAL_RCC_ClockConfig+0x1d8>)
 80057f6:	68e1      	ldr	r1, [r4, #12]
 80057f8:	6893      	ldr	r3, [r2, #8]
 80057fa:	f423 53e0 	bic.w	r3, r3, #7168	; 0x1c00
 80057fe:	430b      	orrs	r3, r1
 8005800:	6093      	str	r3, [r2, #8]
 8005802:	e746      	b.n	8005692 <HAL_RCC_ClockConfig+0x5e>
 8005804:	0800982a 	.word	0x0800982a
 8005808:	40023c00 	.word	0x40023c00
 800580c:	40023800 	.word	0x40023800
 8005810:	080096b6 	.word	0x080096b6
 8005814:	200000d8 	.word	0x200000d8
 8005818:	200000e0 	.word	0x200000e0

0800581c <HAL_RCC_GetPCLK1Freq>:
 800581c:	4b04      	ldr	r3, [pc, #16]	; (8005830 <HAL_RCC_GetPCLK1Freq+0x14>)
 800581e:	4a05      	ldr	r2, [pc, #20]	; (8005834 <HAL_RCC_GetPCLK1Freq+0x18>)
 8005820:	689b      	ldr	r3, [r3, #8]
 8005822:	f3c3 2382 	ubfx	r3, r3, #10, #3
 8005826:	5cd3      	ldrb	r3, [r2, r3]
 8005828:	4a03      	ldr	r2, [pc, #12]	; (8005838 <HAL_RCC_GetPCLK1Freq+0x1c>)
 800582a:	6810      	ldr	r0, [r2, #0]
 800582c:	40d8      	lsrs	r0, r3
 800582e:	4770      	bx	lr
 8005830:	40023800 	.word	0x40023800
 8005834:	080096c6 	.word	0x080096c6
 8005838:	200000d8 	.word	0x200000d8

0800583c <SPI_WaitFlagStateUntilTimeout.constprop.0>:
 800583c:	e92d 41f3 	stmdb	sp!, {r0, r1, r4, r5, r6, r7, r8, lr}
 8005840:	461d      	mov	r5, r3
 8005842:	4617      	mov	r7, r2
 8005844:	4688      	mov	r8, r1
 8005846:	4606      	mov	r6, r0
 8005848:	f7fd fc62 	bl	8003110 <HAL_GetTick>
 800584c:	443d      	add	r5, r7
 800584e:	1a2c      	subs	r4, r5, r0
 8005850:	f7fd fc5e 	bl	8003110 <HAL_GetTick>
 8005854:	4b22      	ldr	r3, [pc, #136]	; (80058e0 <SPI_WaitFlagStateUntilTimeout.constprop.0+0xa4>)
 8005856:	681b      	ldr	r3, [r3, #0]
 8005858:	f3c3 33cb 	ubfx	r3, r3, #15, #12
 800585c:	4605      	mov	r5, r0
 800585e:	4363      	muls	r3, r4
 8005860:	6832      	ldr	r2, [r6, #0]
 8005862:	9301      	str	r3, [sp, #4]
 8005864:	6893      	ldr	r3, [r2, #8]
 8005866:	ea38 0303 	bics.w	r3, r8, r3
 800586a:	d001      	beq.n	8005870 <SPI_WaitFlagStateUntilTimeout.constprop.0+0x34>
 800586c:	2000      	movs	r0, #0
 800586e:	e02d      	b.n	80058cc <SPI_WaitFlagStateUntilTimeout.constprop.0+0x90>
 8005870:	1c7b      	adds	r3, r7, #1
 8005872:	d0f7      	beq.n	8005864 <SPI_WaitFlagStateUntilTimeout.constprop.0+0x28>
 8005874:	f7fd fc4c 	bl	8003110 <HAL_GetTick>
 8005878:	1b40      	subs	r0, r0, r5
 800587a:	42a0      	cmp	r0, r4
 800587c:	d329      	bcc.n	80058d2 <SPI_WaitFlagStateUntilTimeout.constprop.0+0x96>
 800587e:	6833      	ldr	r3, [r6, #0]
 8005880:	685a      	ldr	r2, [r3, #4]
 8005882:	f022 02e0 	bic.w	r2, r2, #224	; 0xe0
 8005886:	605a      	str	r2, [r3, #4]
 8005888:	6872      	ldr	r2, [r6, #4]
 800588a:	f5b2 7f82 	cmp.w	r2, #260	; 0x104
 800588e:	d10a      	bne.n	80058a6 <SPI_WaitFlagStateUntilTimeout.constprop.0+0x6a>
 8005890:	68b2      	ldr	r2, [r6, #8]
 8005892:	f5b2 4f00 	cmp.w	r2, #32768	; 0x8000
 8005896:	d002      	beq.n	800589e <SPI_WaitFlagStateUntilTimeout.constprop.0+0x62>
 8005898:	f5b2 6f80 	cmp.w	r2, #1024	; 0x400
 800589c:	d103      	bne.n	80058a6 <SPI_WaitFlagStateUntilTimeout.constprop.0+0x6a>
 800589e:	681a      	ldr	r2, [r3, #0]
 80058a0:	f022 0240 	bic.w	r2, r2, #64	; 0x40
 80058a4:	601a      	str	r2, [r3, #0]
 80058a6:	6ab2      	ldr	r2, [r6, #40]	; 0x28
 80058a8:	f5b2 5f00 	cmp.w	r2, #8192	; 0x2000
 80058ac:	d107      	bne.n	80058be <SPI_WaitFlagStateUntilTimeout.constprop.0+0x82>
 80058ae:	681a      	ldr	r2, [r3, #0]
 80058b0:	f422 5200 	bic.w	r2, r2, #8192	; 0x2000
 80058b4:	601a      	str	r2, [r3, #0]
 80058b6:	681a      	ldr	r2, [r3, #0]
 80058b8:	f442 5200 	orr.w	r2, r2, #8192	; 0x2000
 80058bc:	601a      	str	r2, [r3, #0]
 80058be:	2301      	movs	r3, #1
 80058c0:	f886 3051 	strb.w	r3, [r6, #81]	; 0x51
 80058c4:	2300      	movs	r3, #0
 80058c6:	f886 3050 	strb.w	r3, [r6, #80]	; 0x50
 80058ca:	2003      	movs	r0, #3
 80058cc:	b002      	add	sp, #8
 80058ce:	e8bd 81f0 	ldmia.w	sp!, {r4, r5, r6, r7, r8, pc}
 80058d2:	9b01      	ldr	r3, [sp, #4]
 80058d4:	2b00      	cmp	r3, #0
 80058d6:	9b01      	ldr	r3, [sp, #4]
 80058d8:	bf08      	it	eq
 80058da:	2400      	moveq	r4, #0
 80058dc:	3b01      	subs	r3, #1
 80058de:	e7bf      	b.n	8005860 <SPI_WaitFlagStateUntilTimeout.constprop.0+0x24>
 80058e0:	200000d8 	.word	0x200000d8

080058e4 <SPI_EndRxTxTransaction>:
 80058e4:	b537      	push	{r0, r1, r2, r4, r5, lr}
 80058e6:	4613      	mov	r3, r2
 80058e8:	4a12      	ldr	r2, [pc, #72]	; (8005934 <SPI_EndRxTxTransaction+0x50>)
 80058ea:	4d13      	ldr	r5, [pc, #76]	; (8005938 <SPI_EndRxTxTransaction+0x54>)
 80058ec:	6812      	ldr	r2, [r2, #0]
 80058ee:	fbb2 f5f5 	udiv	r5, r2, r5
 80058f2:	f44f 727a 	mov.w	r2, #1000	; 0x3e8
 80058f6:	436a      	muls	r2, r5
 80058f8:	9201      	str	r2, [sp, #4]
 80058fa:	6842      	ldr	r2, [r0, #4]
 80058fc:	f5b2 7f82 	cmp.w	r2, #260	; 0x104
 8005900:	4604      	mov	r4, r0
 8005902:	d10b      	bne.n	800591c <SPI_EndRxTxTransaction+0x38>
 8005904:	460a      	mov	r2, r1
 8005906:	2180      	movs	r1, #128	; 0x80
 8005908:	f7ff ff98 	bl	800583c <SPI_WaitFlagStateUntilTimeout.constprop.0>
 800590c:	b178      	cbz	r0, 800592e <SPI_EndRxTxTransaction+0x4a>
 800590e:	6d63      	ldr	r3, [r4, #84]	; 0x54
 8005910:	f043 0320 	orr.w	r3, r3, #32
 8005914:	6563      	str	r3, [r4, #84]	; 0x54
 8005916:	2003      	movs	r0, #3
 8005918:	b003      	add	sp, #12
 800591a:	bd30      	pop	{r4, r5, pc}
 800591c:	9b01      	ldr	r3, [sp, #4]
 800591e:	b133      	cbz	r3, 800592e <SPI_EndRxTxTransaction+0x4a>
 8005920:	9b01      	ldr	r3, [sp, #4]
 8005922:	3b01      	subs	r3, #1
 8005924:	9301      	str	r3, [sp, #4]
 8005926:	6823      	ldr	r3, [r4, #0]
 8005928:	689b      	ldr	r3, [r3, #8]
 800592a:	061b      	lsls	r3, r3, #24
 800592c:	d4f6      	bmi.n	800591c <SPI_EndRxTxTransaction+0x38>
 800592e:	2000      	movs	r0, #0
 8005930:	e7f2      	b.n	8005918 <SPI_EndRxTxTransaction+0x34>
 8005932:	bf00      	nop
 8005934:	200000d8 	.word	0x200000d8
 8005938:	016e3600 	.word	0x016e3600

0800593c <HAL_SPI_Init>:
 800593c:	b510      	push	{r4, lr}
 800593e:	4604      	mov	r4, r0
 8005940:	2800      	cmp	r0, #0
 8005942:	f000 80e2 	beq.w	8005b0a <HAL_SPI_Init+0x1ce>
 8005946:	6803      	ldr	r3, [r0, #0]
 8005948:	4a71      	ldr	r2, [pc, #452]	; (8005b10 <HAL_SPI_Init+0x1d4>)
 800594a:	4293      	cmp	r3, r2
 800594c:	d014      	beq.n	8005978 <HAL_SPI_Init+0x3c>
 800594e:	f5a2 4278 	sub.w	r2, r2, #63488	; 0xf800
 8005952:	4293      	cmp	r3, r2
 8005954:	d010      	beq.n	8005978 <HAL_SPI_Init+0x3c>
 8005956:	f502 6280 	add.w	r2, r2, #1024	; 0x400
 800595a:	4293      	cmp	r3, r2
 800595c:	d00c      	beq.n	8005978 <HAL_SPI_Init+0x3c>
 800595e:	f502 4278 	add.w	r2, r2, #63488	; 0xf800
 8005962:	4293      	cmp	r3, r2
 8005964:	d008      	beq.n	8005978 <HAL_SPI_Init+0x3c>
 8005966:	f502 52e0 	add.w	r2, r2, #7168	; 0x1c00
 800596a:	4293      	cmp	r3, r2
 800596c:	d004      	beq.n	8005978 <HAL_SPI_Init+0x3c>
 800596e:	4869      	ldr	r0, [pc, #420]	; (8005b14 <HAL_SPI_Init+0x1d8>)
 8005970:	f44f 71a1 	mov.w	r1, #322	; 0x142
 8005974:	f7fc fea2 	bl	80026bc <assert_failed>
 8005978:	6863      	ldr	r3, [r4, #4]
 800597a:	b13b      	cbz	r3, 800598c <HAL_SPI_Init+0x50>
 800597c:	f5b3 7f82 	cmp.w	r3, #260	; 0x104
 8005980:	d004      	beq.n	800598c <HAL_SPI_Init+0x50>
 8005982:	4864      	ldr	r0, [pc, #400]	; (8005b14 <HAL_SPI_Init+0x1d8>)
 8005984:	f240 1143 	movw	r1, #323	; 0x143
 8005988:	f7fc fe98 	bl	80026bc <assert_failed>
 800598c:	68a3      	ldr	r3, [r4, #8]
 800598e:	f433 6280 	bics.w	r2, r3, #1024	; 0x400
 8005992:	d007      	beq.n	80059a4 <HAL_SPI_Init+0x68>
 8005994:	f5b3 4f00 	cmp.w	r3, #32768	; 0x8000
 8005998:	d004      	beq.n	80059a4 <HAL_SPI_Init+0x68>
 800599a:	485e      	ldr	r0, [pc, #376]	; (8005b14 <HAL_SPI_Init+0x1d8>)
 800599c:	f44f 71a2 	mov.w	r1, #324	; 0x144
 80059a0:	f7fc fe8c 	bl	80026bc <assert_failed>
 80059a4:	68e3      	ldr	r3, [r4, #12]
 80059a6:	f433 6300 	bics.w	r3, r3, #2048	; 0x800
 80059aa:	d004      	beq.n	80059b6 <HAL_SPI_Init+0x7a>
 80059ac:	4859      	ldr	r0, [pc, #356]	; (8005b14 <HAL_SPI_Init+0x1d8>)
 80059ae:	f240 1145 	movw	r1, #325	; 0x145
 80059b2:	f7fc fe83 	bl	80026bc <assert_failed>
 80059b6:	69a3      	ldr	r3, [r4, #24]
 80059b8:	f433 7200 	bics.w	r2, r3, #512	; 0x200
 80059bc:	d007      	beq.n	80059ce <HAL_SPI_Init+0x92>
 80059be:	f5b3 2f80 	cmp.w	r3, #262144	; 0x40000
 80059c2:	d004      	beq.n	80059ce <HAL_SPI_Init+0x92>
 80059c4:	4853      	ldr	r0, [pc, #332]	; (8005b14 <HAL_SPI_Init+0x1d8>)
 80059c6:	f44f 71a3 	mov.w	r1, #326	; 0x146
 80059ca:	f7fc fe77 	bl	80026bc <assert_failed>
 80059ce:	69e3      	ldr	r3, [r4, #28]
 80059d0:	f033 0318 	bics.w	r3, r3, #24
 80059d4:	d006      	beq.n	80059e4 <HAL_SPI_Init+0xa8>
 80059d6:	2b20      	cmp	r3, #32
 80059d8:	d004      	beq.n	80059e4 <HAL_SPI_Init+0xa8>
 80059da:	484e      	ldr	r0, [pc, #312]	; (8005b14 <HAL_SPI_Init+0x1d8>)
 80059dc:	f240 1147 	movw	r1, #327	; 0x147
 80059e0:	f7fc fe6c 	bl	80026bc <assert_failed>
 80059e4:	6a23      	ldr	r3, [r4, #32]
 80059e6:	f033 0380 	bics.w	r3, r3, #128	; 0x80
 80059ea:	d004      	beq.n	80059f6 <HAL_SPI_Init+0xba>
 80059ec:	4849      	ldr	r0, [pc, #292]	; (8005b14 <HAL_SPI_Init+0x1d8>)
 80059ee:	f44f 71a4 	mov.w	r1, #328	; 0x148
 80059f2:	f7fc fe63 	bl	80026bc <assert_failed>
 80059f6:	6a63      	ldr	r3, [r4, #36]	; 0x24
 80059f8:	2b00      	cmp	r3, #0
 80059fa:	d164      	bne.n	8005ac6 <HAL_SPI_Init+0x18a>
 80059fc:	6923      	ldr	r3, [r4, #16]
 80059fe:	f033 0302 	bics.w	r3, r3, #2
 8005a02:	d179      	bne.n	8005af8 <HAL_SPI_Init+0x1bc>
 8005a04:	6963      	ldr	r3, [r4, #20]
 8005a06:	2b01      	cmp	r3, #1
 8005a08:	d904      	bls.n	8005a14 <HAL_SPI_Init+0xd8>
 8005a0a:	4842      	ldr	r0, [pc, #264]	; (8005b14 <HAL_SPI_Init+0x1d8>)
 8005a0c:	f240 114d 	movw	r1, #333	; 0x14d
 8005a10:	f7fc fe54 	bl	80026bc <assert_failed>
 8005a14:	6863      	ldr	r3, [r4, #4]
 8005a16:	f5b3 7f82 	cmp.w	r3, #260	; 0x104
 8005a1a:	d173      	bne.n	8005b04 <HAL_SPI_Init+0x1c8>
 8005a1c:	69e3      	ldr	r3, [r4, #28]
 8005a1e:	f033 0318 	bics.w	r3, r3, #24
 8005a22:	d006      	beq.n	8005a32 <HAL_SPI_Init+0xf6>
 8005a24:	2b20      	cmp	r3, #32
 8005a26:	d004      	beq.n	8005a32 <HAL_SPI_Init+0xf6>
 8005a28:	483a      	ldr	r0, [pc, #232]	; (8005b14 <HAL_SPI_Init+0x1d8>)
 8005a2a:	f240 1151 	movw	r1, #337	; 0x151
 8005a2e:	f7fc fe45 	bl	80026bc <assert_failed>
 8005a32:	2300      	movs	r3, #0
 8005a34:	62a3      	str	r3, [r4, #40]	; 0x28
 8005a36:	f894 3051 	ldrb.w	r3, [r4, #81]	; 0x51
 8005a3a:	f003 02ff 	and.w	r2, r3, #255	; 0xff
 8005a3e:	b923      	cbnz	r3, 8005a4a <HAL_SPI_Init+0x10e>
 8005a40:	f884 2050 	strb.w	r2, [r4, #80]	; 0x50
 8005a44:	4620      	mov	r0, r4
 8005a46:	f7fc fe7f 	bl	8002748 <HAL_SPI_MspInit>
 8005a4a:	6821      	ldr	r1, [r4, #0]
 8005a4c:	68a0      	ldr	r0, [r4, #8]
 8005a4e:	69a2      	ldr	r2, [r4, #24]
 8005a50:	2302      	movs	r3, #2
 8005a52:	f884 3051 	strb.w	r3, [r4, #81]	; 0x51
 8005a56:	680b      	ldr	r3, [r1, #0]
 8005a58:	f023 0340 	bic.w	r3, r3, #64	; 0x40
 8005a5c:	600b      	str	r3, [r1, #0]
 8005a5e:	6863      	ldr	r3, [r4, #4]
 8005a60:	f400 4004 	and.w	r0, r0, #33792	; 0x8400
 8005a64:	f403 7382 	and.w	r3, r3, #260	; 0x104
 8005a68:	4303      	orrs	r3, r0
 8005a6a:	68e0      	ldr	r0, [r4, #12]
 8005a6c:	f400 6000 	and.w	r0, r0, #2048	; 0x800
 8005a70:	4303      	orrs	r3, r0
 8005a72:	6920      	ldr	r0, [r4, #16]
 8005a74:	f000 0002 	and.w	r0, r0, #2
 8005a78:	4303      	orrs	r3, r0
 8005a7a:	6960      	ldr	r0, [r4, #20]
 8005a7c:	f000 0001 	and.w	r0, r0, #1
 8005a80:	4303      	orrs	r3, r0
 8005a82:	f402 7000 	and.w	r0, r2, #512	; 0x200
 8005a86:	4303      	orrs	r3, r0
 8005a88:	69e0      	ldr	r0, [r4, #28]
 8005a8a:	f000 0038 	and.w	r0, r0, #56	; 0x38
 8005a8e:	4303      	orrs	r3, r0
 8005a90:	6a20      	ldr	r0, [r4, #32]
 8005a92:	f000 0080 	and.w	r0, r0, #128	; 0x80
 8005a96:	4303      	orrs	r3, r0
 8005a98:	6aa0      	ldr	r0, [r4, #40]	; 0x28
 8005a9a:	f400 5000 	and.w	r0, r0, #8192	; 0x2000
 8005a9e:	4303      	orrs	r3, r0
 8005aa0:	600b      	str	r3, [r1, #0]
 8005aa2:	6a63      	ldr	r3, [r4, #36]	; 0x24
 8005aa4:	0c12      	lsrs	r2, r2, #16
 8005aa6:	f003 0310 	and.w	r3, r3, #16
 8005aaa:	f002 0204 	and.w	r2, r2, #4
 8005aae:	431a      	orrs	r2, r3
 8005ab0:	604a      	str	r2, [r1, #4]
 8005ab2:	69cb      	ldr	r3, [r1, #28]
 8005ab4:	f423 6300 	bic.w	r3, r3, #2048	; 0x800
 8005ab8:	61cb      	str	r3, [r1, #28]
 8005aba:	2000      	movs	r0, #0
 8005abc:	2301      	movs	r3, #1
 8005abe:	6560      	str	r0, [r4, #84]	; 0x54
 8005ac0:	f884 3051 	strb.w	r3, [r4, #81]	; 0x51
 8005ac4:	bd10      	pop	{r4, pc}
 8005ac6:	2b10      	cmp	r3, #16
 8005ac8:	d007      	beq.n	8005ada <HAL_SPI_Init+0x19e>
 8005aca:	4812      	ldr	r0, [pc, #72]	; (8005b14 <HAL_SPI_Init+0x1d8>)
 8005acc:	f240 1149 	movw	r1, #329	; 0x149
 8005ad0:	f7fc fdf4 	bl	80026bc <assert_failed>
 8005ad4:	6a63      	ldr	r3, [r4, #36]	; 0x24
 8005ad6:	2b00      	cmp	r3, #0
 8005ad8:	d090      	beq.n	80059fc <HAL_SPI_Init+0xc0>
 8005ada:	69e3      	ldr	r3, [r4, #28]
 8005adc:	f033 0318 	bics.w	r3, r3, #24
 8005ae0:	d006      	beq.n	8005af0 <HAL_SPI_Init+0x1b4>
 8005ae2:	2b20      	cmp	r3, #32
 8005ae4:	d004      	beq.n	8005af0 <HAL_SPI_Init+0x1b4>
 8005ae6:	480b      	ldr	r0, [pc, #44]	; (8005b14 <HAL_SPI_Init+0x1d8>)
 8005ae8:	f240 115b 	movw	r1, #347	; 0x15b
 8005aec:	f7fc fde6 	bl	80026bc <assert_failed>
 8005af0:	2300      	movs	r3, #0
 8005af2:	e9c4 3304 	strd	r3, r3, [r4, #16]
 8005af6:	e79c      	b.n	8005a32 <HAL_SPI_Init+0xf6>
 8005af8:	4806      	ldr	r0, [pc, #24]	; (8005b14 <HAL_SPI_Init+0x1d8>)
 8005afa:	f44f 71a6 	mov.w	r1, #332	; 0x14c
 8005afe:	f7fc fddd 	bl	80026bc <assert_failed>
 8005b02:	e77f      	b.n	8005a04 <HAL_SPI_Init+0xc8>
 8005b04:	2300      	movs	r3, #0
 8005b06:	61e3      	str	r3, [r4, #28]
 8005b08:	e793      	b.n	8005a32 <HAL_SPI_Init+0xf6>
 8005b0a:	2001      	movs	r0, #1
 8005b0c:	e7da      	b.n	8005ac4 <HAL_SPI_Init+0x188>
 8005b0e:	bf00      	nop
 8005b10:	40013000 	.word	0x40013000
 8005b14:	08009862 	.word	0x08009862

08005b18 <HAL_SPI_DeInit>:
 8005b18:	b510      	push	{r4, lr}
 8005b1a:	4604      	mov	r4, r0
 8005b1c:	b350      	cbz	r0, 8005b74 <HAL_SPI_DeInit+0x5c>
 8005b1e:	6803      	ldr	r3, [r0, #0]
 8005b20:	4a15      	ldr	r2, [pc, #84]	; (8005b78 <HAL_SPI_DeInit+0x60>)
 8005b22:	4293      	cmp	r3, r2
 8005b24:	d014      	beq.n	8005b50 <HAL_SPI_DeInit+0x38>
 8005b26:	f5a2 4278 	sub.w	r2, r2, #63488	; 0xf800
 8005b2a:	4293      	cmp	r3, r2
 8005b2c:	d010      	beq.n	8005b50 <HAL_SPI_DeInit+0x38>
 8005b2e:	f502 6280 	add.w	r2, r2, #1024	; 0x400
 8005b32:	4293      	cmp	r3, r2
 8005b34:	d00c      	beq.n	8005b50 <HAL_SPI_DeInit+0x38>
 8005b36:	f502 4278 	add.w	r2, r2, #63488	; 0xf800
 8005b3a:	4293      	cmp	r3, r2
 8005b3c:	d008      	beq.n	8005b50 <HAL_SPI_DeInit+0x38>
 8005b3e:	f502 52e0 	add.w	r2, r2, #7168	; 0x1c00
 8005b42:	4293      	cmp	r3, r2
 8005b44:	d004      	beq.n	8005b50 <HAL_SPI_DeInit+0x38>
 8005b46:	480d      	ldr	r0, [pc, #52]	; (8005b7c <HAL_SPI_DeInit+0x64>)
 8005b48:	f44f 71e0 	mov.w	r1, #448	; 0x1c0
 8005b4c:	f7fc fdb6 	bl	80026bc <assert_failed>
 8005b50:	6822      	ldr	r2, [r4, #0]
 8005b52:	2302      	movs	r3, #2
 8005b54:	f884 3051 	strb.w	r3, [r4, #81]	; 0x51
 8005b58:	6813      	ldr	r3, [r2, #0]
 8005b5a:	f023 0340 	bic.w	r3, r3, #64	; 0x40
 8005b5e:	4620      	mov	r0, r4
 8005b60:	6013      	str	r3, [r2, #0]
 8005b62:	f7fc fe55 	bl	8002810 <HAL_SPI_MspDeInit>
 8005b66:	2000      	movs	r0, #0
 8005b68:	6560      	str	r0, [r4, #84]	; 0x54
 8005b6a:	f884 0050 	strb.w	r0, [r4, #80]	; 0x50
 8005b6e:	f884 0051 	strb.w	r0, [r4, #81]	; 0x51
 8005b72:	bd10      	pop	{r4, pc}
 8005b74:	2001      	movs	r0, #1
 8005b76:	e7fc      	b.n	8005b72 <HAL_SPI_DeInit+0x5a>
 8005b78:	40013000 	.word	0x40013000
 8005b7c:	08009862 	.word	0x08009862

08005b80 <HAL_SPI_Transmit>:
 8005b80:	e92d 43f7 	stmdb	sp!, {r0, r1, r2, r4, r5, r6, r7, r8, r9, lr}
 8005b84:	461f      	mov	r7, r3
 8005b86:	6883      	ldr	r3, [r0, #8]
 8005b88:	f433 4300 	bics.w	r3, r3, #32768	; 0x8000
 8005b8c:	4604      	mov	r4, r0
 8005b8e:	460d      	mov	r5, r1
 8005b90:	4690      	mov	r8, r2
 8005b92:	d004      	beq.n	8005b9e <HAL_SPI_Transmit+0x1e>
 8005b94:	4855      	ldr	r0, [pc, #340]	; (8005cec <HAL_SPI_Transmit+0x16c>)
 8005b96:	f240 310a 	movw	r1, #778	; 0x30a
 8005b9a:	f7fc fd8f 	bl	80026bc <assert_failed>
 8005b9e:	f894 3050 	ldrb.w	r3, [r4, #80]	; 0x50
 8005ba2:	2b01      	cmp	r3, #1
 8005ba4:	f000 80a0 	beq.w	8005ce8 <HAL_SPI_Transmit+0x168>
 8005ba8:	2301      	movs	r3, #1
 8005baa:	f884 3050 	strb.w	r3, [r4, #80]	; 0x50
 8005bae:	f7fd faaf 	bl	8003110 <HAL_GetTick>
 8005bb2:	f894 3051 	ldrb.w	r3, [r4, #81]	; 0x51
 8005bb6:	2b01      	cmp	r3, #1
 8005bb8:	4681      	mov	r9, r0
 8005bba:	b2d8      	uxtb	r0, r3
 8005bbc:	f040 8092 	bne.w	8005ce4 <HAL_SPI_Transmit+0x164>
 8005bc0:	2d00      	cmp	r5, #0
 8005bc2:	d061      	beq.n	8005c88 <HAL_SPI_Transmit+0x108>
 8005bc4:	f1b8 0f00 	cmp.w	r8, #0
 8005bc8:	d05e      	beq.n	8005c88 <HAL_SPI_Transmit+0x108>
 8005bca:	2303      	movs	r3, #3
 8005bcc:	f884 3051 	strb.w	r3, [r4, #81]	; 0x51
 8005bd0:	2300      	movs	r3, #0
 8005bd2:	6563      	str	r3, [r4, #84]	; 0x54
 8005bd4:	e9c4 3310 	strd	r3, r3, [r4, #64]	; 0x40
 8005bd8:	f8a4 8036 	strh.w	r8, [r4, #54]	; 0x36
 8005bdc:	63a3      	str	r3, [r4, #56]	; 0x38
 8005bde:	87a3      	strh	r3, [r4, #60]	; 0x3c
 8005be0:	87e3      	strh	r3, [r4, #62]	; 0x3e
 8005be2:	68a3      	ldr	r3, [r4, #8]
 8005be4:	6826      	ldr	r6, [r4, #0]
 8005be6:	6325      	str	r5, [r4, #48]	; 0x30
 8005be8:	f5b3 4f00 	cmp.w	r3, #32768	; 0x8000
 8005bec:	f8a4 8034 	strh.w	r8, [r4, #52]	; 0x34
 8005bf0:	d107      	bne.n	8005c02 <HAL_SPI_Transmit+0x82>
 8005bf2:	6833      	ldr	r3, [r6, #0]
 8005bf4:	f023 0340 	bic.w	r3, r3, #64	; 0x40
 8005bf8:	6033      	str	r3, [r6, #0]
 8005bfa:	6833      	ldr	r3, [r6, #0]
 8005bfc:	f443 4380 	orr.w	r3, r3, #16384	; 0x4000
 8005c00:	6033      	str	r3, [r6, #0]
 8005c02:	6833      	ldr	r3, [r6, #0]
 8005c04:	68e2      	ldr	r2, [r4, #12]
 8005c06:	065b      	lsls	r3, r3, #25
 8005c08:	bf5e      	ittt	pl
 8005c0a:	6833      	ldrpl	r3, [r6, #0]
 8005c0c:	f043 0340 	orrpl.w	r3, r3, #64	; 0x40
 8005c10:	6033      	strpl	r3, [r6, #0]
 8005c12:	f5b2 6f00 	cmp.w	r2, #2048	; 0x800
 8005c16:	6863      	ldr	r3, [r4, #4]
 8005c18:	d13f      	bne.n	8005c9a <HAL_SPI_Transmit+0x11a>
 8005c1a:	b113      	cbz	r3, 8005c22 <HAL_SPI_Transmit+0xa2>
 8005c1c:	f1b8 0f01 	cmp.w	r8, #1
 8005c20:	d107      	bne.n	8005c32 <HAL_SPI_Transmit+0xb2>
 8005c22:	f835 3b02 	ldrh.w	r3, [r5], #2
 8005c26:	60f3      	str	r3, [r6, #12]
 8005c28:	6325      	str	r5, [r4, #48]	; 0x30
 8005c2a:	8ee3      	ldrh	r3, [r4, #54]	; 0x36
 8005c2c:	3b01      	subs	r3, #1
 8005c2e:	b29b      	uxth	r3, r3
 8005c30:	86e3      	strh	r3, [r4, #54]	; 0x36
 8005c32:	8ee3      	ldrh	r3, [r4, #54]	; 0x36
 8005c34:	b29b      	uxth	r3, r3
 8005c36:	b9a3      	cbnz	r3, 8005c62 <HAL_SPI_Transmit+0xe2>
 8005c38:	464a      	mov	r2, r9
 8005c3a:	4639      	mov	r1, r7
 8005c3c:	4620      	mov	r0, r4
 8005c3e:	f7ff fe51 	bl	80058e4 <SPI_EndRxTxTransaction>
 8005c42:	2800      	cmp	r0, #0
 8005c44:	d14b      	bne.n	8005cde <HAL_SPI_Transmit+0x15e>
 8005c46:	68a3      	ldr	r3, [r4, #8]
 8005c48:	b933      	cbnz	r3, 8005c58 <HAL_SPI_Transmit+0xd8>
 8005c4a:	9301      	str	r3, [sp, #4]
 8005c4c:	6823      	ldr	r3, [r4, #0]
 8005c4e:	68da      	ldr	r2, [r3, #12]
 8005c50:	9201      	str	r2, [sp, #4]
 8005c52:	689b      	ldr	r3, [r3, #8]
 8005c54:	9301      	str	r3, [sp, #4]
 8005c56:	9b01      	ldr	r3, [sp, #4]
 8005c58:	6d60      	ldr	r0, [r4, #84]	; 0x54
 8005c5a:	3800      	subs	r0, #0
 8005c5c:	bf18      	it	ne
 8005c5e:	2001      	movne	r0, #1
 8005c60:	e012      	b.n	8005c88 <HAL_SPI_Transmit+0x108>
 8005c62:	6822      	ldr	r2, [r4, #0]
 8005c64:	6893      	ldr	r3, [r2, #8]
 8005c66:	0798      	lsls	r0, r3, #30
 8005c68:	d505      	bpl.n	8005c76 <HAL_SPI_Transmit+0xf6>
 8005c6a:	6b23      	ldr	r3, [r4, #48]	; 0x30
 8005c6c:	f833 1b02 	ldrh.w	r1, [r3], #2
 8005c70:	60d1      	str	r1, [r2, #12]
 8005c72:	6323      	str	r3, [r4, #48]	; 0x30
 8005c74:	e7d9      	b.n	8005c2a <HAL_SPI_Transmit+0xaa>
 8005c76:	f7fd fa4b 	bl	8003110 <HAL_GetTick>
 8005c7a:	eba0 0009 	sub.w	r0, r0, r9
 8005c7e:	42b8      	cmp	r0, r7
 8005c80:	d3d7      	bcc.n	8005c32 <HAL_SPI_Transmit+0xb2>
 8005c82:	1c79      	adds	r1, r7, #1
 8005c84:	d0d5      	beq.n	8005c32 <HAL_SPI_Transmit+0xb2>
 8005c86:	2003      	movs	r0, #3
 8005c88:	2301      	movs	r3, #1
 8005c8a:	f884 3051 	strb.w	r3, [r4, #81]	; 0x51
 8005c8e:	2300      	movs	r3, #0
 8005c90:	f884 3050 	strb.w	r3, [r4, #80]	; 0x50
 8005c94:	b003      	add	sp, #12
 8005c96:	e8bd 83f0 	ldmia.w	sp!, {r4, r5, r6, r7, r8, r9, pc}
 8005c9a:	b113      	cbz	r3, 8005ca2 <HAL_SPI_Transmit+0x122>
 8005c9c:	f1b8 0f01 	cmp.w	r8, #1
 8005ca0:	d108      	bne.n	8005cb4 <HAL_SPI_Transmit+0x134>
 8005ca2:	782b      	ldrb	r3, [r5, #0]
 8005ca4:	7333      	strb	r3, [r6, #12]
 8005ca6:	6b23      	ldr	r3, [r4, #48]	; 0x30
 8005ca8:	3301      	adds	r3, #1
 8005caa:	6323      	str	r3, [r4, #48]	; 0x30
 8005cac:	8ee3      	ldrh	r3, [r4, #54]	; 0x36
 8005cae:	3b01      	subs	r3, #1
 8005cb0:	b29b      	uxth	r3, r3
 8005cb2:	86e3      	strh	r3, [r4, #54]	; 0x36
 8005cb4:	8ee3      	ldrh	r3, [r4, #54]	; 0x36
 8005cb6:	b29b      	uxth	r3, r3
 8005cb8:	2b00      	cmp	r3, #0
 8005cba:	d0bd      	beq.n	8005c38 <HAL_SPI_Transmit+0xb8>
 8005cbc:	6823      	ldr	r3, [r4, #0]
 8005cbe:	689a      	ldr	r2, [r3, #8]
 8005cc0:	0792      	lsls	r2, r2, #30
 8005cc2:	d503      	bpl.n	8005ccc <HAL_SPI_Transmit+0x14c>
 8005cc4:	6b22      	ldr	r2, [r4, #48]	; 0x30
 8005cc6:	7812      	ldrb	r2, [r2, #0]
 8005cc8:	731a      	strb	r2, [r3, #12]
 8005cca:	e7ec      	b.n	8005ca6 <HAL_SPI_Transmit+0x126>
 8005ccc:	f7fd fa20 	bl	8003110 <HAL_GetTick>
 8005cd0:	eba0 0009 	sub.w	r0, r0, r9
 8005cd4:	42b8      	cmp	r0, r7
 8005cd6:	d3ed      	bcc.n	8005cb4 <HAL_SPI_Transmit+0x134>
 8005cd8:	1c7b      	adds	r3, r7, #1
 8005cda:	d0eb      	beq.n	8005cb4 <HAL_SPI_Transmit+0x134>
 8005cdc:	e7d3      	b.n	8005c86 <HAL_SPI_Transmit+0x106>
 8005cde:	2320      	movs	r3, #32
 8005ce0:	6563      	str	r3, [r4, #84]	; 0x54
 8005ce2:	e7b0      	b.n	8005c46 <HAL_SPI_Transmit+0xc6>
 8005ce4:	2002      	movs	r0, #2
 8005ce6:	e7cf      	b.n	8005c88 <HAL_SPI_Transmit+0x108>
 8005ce8:	2002      	movs	r0, #2
 8005cea:	e7d3      	b.n	8005c94 <HAL_SPI_Transmit+0x114>
 8005cec:	08009862 	.word	0x08009862

08005cf0 <HAL_SPI_TransmitReceive>:
 8005cf0:	e92d 43f7 	stmdb	sp!, {r0, r1, r2, r4, r5, r6, r7, r8, r9, lr}
 8005cf4:	461e      	mov	r6, r3
 8005cf6:	6883      	ldr	r3, [r0, #8]
 8005cf8:	f8dd 8028 	ldr.w	r8, [sp, #40]	; 0x28
 8005cfc:	4604      	mov	r4, r0
 8005cfe:	460d      	mov	r5, r1
 8005d00:	4691      	mov	r9, r2
 8005d02:	b123      	cbz	r3, 8005d0e <HAL_SPI_TransmitReceive+0x1e>
 8005d04:	4875      	ldr	r0, [pc, #468]	; (8005edc <HAL_SPI_TransmitReceive+0x1ec>)
 8005d06:	f240 417e 	movw	r1, #1150	; 0x47e
 8005d0a:	f7fc fcd7 	bl	80026bc <assert_failed>
 8005d0e:	f894 3050 	ldrb.w	r3, [r4, #80]	; 0x50
 8005d12:	2b01      	cmp	r3, #1
 8005d14:	f000 80e0 	beq.w	8005ed8 <HAL_SPI_TransmitReceive+0x1e8>
 8005d18:	2301      	movs	r3, #1
 8005d1a:	f884 3050 	strb.w	r3, [r4, #80]	; 0x50
 8005d1e:	f7fd f9f7 	bl	8003110 <HAL_GetTick>
 8005d22:	f894 3051 	ldrb.w	r3, [r4, #81]	; 0x51
 8005d26:	6861      	ldr	r1, [r4, #4]
 8005d28:	2b01      	cmp	r3, #1
 8005d2a:	4607      	mov	r7, r0
 8005d2c:	b2da      	uxtb	r2, r3
 8005d2e:	d00a      	beq.n	8005d46 <HAL_SPI_TransmitReceive+0x56>
 8005d30:	f5b1 7f82 	cmp.w	r1, #260	; 0x104
 8005d34:	f040 80ce 	bne.w	8005ed4 <HAL_SPI_TransmitReceive+0x1e4>
 8005d38:	68a3      	ldr	r3, [r4, #8]
 8005d3a:	2b00      	cmp	r3, #0
 8005d3c:	f040 80ca 	bne.w	8005ed4 <HAL_SPI_TransmitReceive+0x1e4>
 8005d40:	2a04      	cmp	r2, #4
 8005d42:	f040 80c7 	bne.w	8005ed4 <HAL_SPI_TransmitReceive+0x1e4>
 8005d46:	2d00      	cmp	r5, #0
 8005d48:	d03f      	beq.n	8005dca <HAL_SPI_TransmitReceive+0xda>
 8005d4a:	f1b9 0f00 	cmp.w	r9, #0
 8005d4e:	d03c      	beq.n	8005dca <HAL_SPI_TransmitReceive+0xda>
 8005d50:	2e00      	cmp	r6, #0
 8005d52:	d03a      	beq.n	8005dca <HAL_SPI_TransmitReceive+0xda>
 8005d54:	f894 3051 	ldrb.w	r3, [r4, #81]	; 0x51
 8005d58:	f8c4 9038 	str.w	r9, [r4, #56]	; 0x38
 8005d5c:	2b04      	cmp	r3, #4
 8005d5e:	bf1c      	itt	ne
 8005d60:	2305      	movne	r3, #5
 8005d62:	f884 3051 	strbne.w	r3, [r4, #81]	; 0x51
 8005d66:	2300      	movs	r3, #0
 8005d68:	6563      	str	r3, [r4, #84]	; 0x54
 8005d6a:	e9c4 3310 	strd	r3, r3, [r4, #64]	; 0x40
 8005d6e:	6823      	ldr	r3, [r4, #0]
 8005d70:	87e6      	strh	r6, [r4, #62]	; 0x3e
 8005d72:	86e6      	strh	r6, [r4, #54]	; 0x36
 8005d74:	681a      	ldr	r2, [r3, #0]
 8005d76:	87a6      	strh	r6, [r4, #60]	; 0x3c
 8005d78:	0650      	lsls	r0, r2, #25
 8005d7a:	bf58      	it	pl
 8005d7c:	681a      	ldrpl	r2, [r3, #0]
 8005d7e:	6325      	str	r5, [r4, #48]	; 0x30
 8005d80:	bf58      	it	pl
 8005d82:	f042 0240 	orrpl.w	r2, r2, #64	; 0x40
 8005d86:	86a6      	strh	r6, [r4, #52]	; 0x34
 8005d88:	bf58      	it	pl
 8005d8a:	601a      	strpl	r2, [r3, #0]
 8005d8c:	68e2      	ldr	r2, [r4, #12]
 8005d8e:	f5b2 6f00 	cmp.w	r2, #2048	; 0x800
 8005d92:	d151      	bne.n	8005e38 <HAL_SPI_TransmitReceive+0x148>
 8005d94:	b109      	cbz	r1, 8005d9a <HAL_SPI_TransmitReceive+0xaa>
 8005d96:	2e01      	cmp	r6, #1
 8005d98:	d107      	bne.n	8005daa <HAL_SPI_TransmitReceive+0xba>
 8005d9a:	f835 2b02 	ldrh.w	r2, [r5], #2
 8005d9e:	60da      	str	r2, [r3, #12]
 8005da0:	8ee3      	ldrh	r3, [r4, #54]	; 0x36
 8005da2:	6325      	str	r5, [r4, #48]	; 0x30
 8005da4:	3b01      	subs	r3, #1
 8005da6:	b29b      	uxth	r3, r3
 8005da8:	86e3      	strh	r3, [r4, #54]	; 0x36
 8005daa:	2501      	movs	r5, #1
 8005dac:	8ee3      	ldrh	r3, [r4, #54]	; 0x36
 8005dae:	b29b      	uxth	r3, r3
 8005db0:	b96b      	cbnz	r3, 8005dce <HAL_SPI_TransmitReceive+0xde>
 8005db2:	8fe3      	ldrh	r3, [r4, #62]	; 0x3e
 8005db4:	b29b      	uxth	r3, r3
 8005db6:	b953      	cbnz	r3, 8005dce <HAL_SPI_TransmitReceive+0xde>
 8005db8:	463a      	mov	r2, r7
 8005dba:	4641      	mov	r1, r8
 8005dbc:	4620      	mov	r0, r4
 8005dbe:	f7ff fd91 	bl	80058e4 <SPI_EndRxTxTransaction>
 8005dc2:	2800      	cmp	r0, #0
 8005dc4:	d07b      	beq.n	8005ebe <HAL_SPI_TransmitReceive+0x1ce>
 8005dc6:	2320      	movs	r3, #32
 8005dc8:	6563      	str	r3, [r4, #84]	; 0x54
 8005dca:	2001      	movs	r0, #1
 8005dcc:	e02b      	b.n	8005e26 <HAL_SPI_TransmitReceive+0x136>
 8005dce:	6821      	ldr	r1, [r4, #0]
 8005dd0:	688b      	ldr	r3, [r1, #8]
 8005dd2:	079a      	lsls	r2, r3, #30
 8005dd4:	d50d      	bpl.n	8005df2 <HAL_SPI_TransmitReceive+0x102>
 8005dd6:	8ee3      	ldrh	r3, [r4, #54]	; 0x36
 8005dd8:	b29b      	uxth	r3, r3
 8005dda:	b153      	cbz	r3, 8005df2 <HAL_SPI_TransmitReceive+0x102>
 8005ddc:	b14d      	cbz	r5, 8005df2 <HAL_SPI_TransmitReceive+0x102>
 8005dde:	6b23      	ldr	r3, [r4, #48]	; 0x30
 8005de0:	f833 2b02 	ldrh.w	r2, [r3], #2
 8005de4:	60ca      	str	r2, [r1, #12]
 8005de6:	6323      	str	r3, [r4, #48]	; 0x30
 8005de8:	8ee3      	ldrh	r3, [r4, #54]	; 0x36
 8005dea:	3b01      	subs	r3, #1
 8005dec:	b29b      	uxth	r3, r3
 8005dee:	86e3      	strh	r3, [r4, #54]	; 0x36
 8005df0:	2500      	movs	r5, #0
 8005df2:	688a      	ldr	r2, [r1, #8]
 8005df4:	f012 0201 	ands.w	r2, r2, #1
 8005df8:	d00c      	beq.n	8005e14 <HAL_SPI_TransmitReceive+0x124>
 8005dfa:	8fe3      	ldrh	r3, [r4, #62]	; 0x3e
 8005dfc:	b29b      	uxth	r3, r3
 8005dfe:	b14b      	cbz	r3, 8005e14 <HAL_SPI_TransmitReceive+0x124>
 8005e00:	6ba3      	ldr	r3, [r4, #56]	; 0x38
 8005e02:	68c9      	ldr	r1, [r1, #12]
 8005e04:	f823 1b02 	strh.w	r1, [r3], #2
 8005e08:	63a3      	str	r3, [r4, #56]	; 0x38
 8005e0a:	8fe3      	ldrh	r3, [r4, #62]	; 0x3e
 8005e0c:	3b01      	subs	r3, #1
 8005e0e:	b29b      	uxth	r3, r3
 8005e10:	87e3      	strh	r3, [r4, #62]	; 0x3e
 8005e12:	4615      	mov	r5, r2
 8005e14:	f7fd f97c 	bl	8003110 <HAL_GetTick>
 8005e18:	1bc0      	subs	r0, r0, r7
 8005e1a:	4540      	cmp	r0, r8
 8005e1c:	d3c6      	bcc.n	8005dac <HAL_SPI_TransmitReceive+0xbc>
 8005e1e:	f1b8 3fff 	cmp.w	r8, #4294967295	; 0xffffffff
 8005e22:	d0c3      	beq.n	8005dac <HAL_SPI_TransmitReceive+0xbc>
 8005e24:	2003      	movs	r0, #3
 8005e26:	2301      	movs	r3, #1
 8005e28:	f884 3051 	strb.w	r3, [r4, #81]	; 0x51
 8005e2c:	2300      	movs	r3, #0
 8005e2e:	f884 3050 	strb.w	r3, [r4, #80]	; 0x50
 8005e32:	b003      	add	sp, #12
 8005e34:	e8bd 83f0 	ldmia.w	sp!, {r4, r5, r6, r7, r8, r9, pc}
 8005e38:	b109      	cbz	r1, 8005e3e <HAL_SPI_TransmitReceive+0x14e>
 8005e3a:	2e01      	cmp	r6, #1
 8005e3c:	d108      	bne.n	8005e50 <HAL_SPI_TransmitReceive+0x160>
 8005e3e:	782a      	ldrb	r2, [r5, #0]
 8005e40:	731a      	strb	r2, [r3, #12]
 8005e42:	6b23      	ldr	r3, [r4, #48]	; 0x30
 8005e44:	3301      	adds	r3, #1
 8005e46:	6323      	str	r3, [r4, #48]	; 0x30
 8005e48:	8ee3      	ldrh	r3, [r4, #54]	; 0x36
 8005e4a:	3b01      	subs	r3, #1
 8005e4c:	b29b      	uxth	r3, r3
 8005e4e:	86e3      	strh	r3, [r4, #54]	; 0x36
 8005e50:	2501      	movs	r5, #1
 8005e52:	8ee3      	ldrh	r3, [r4, #54]	; 0x36
 8005e54:	b29b      	uxth	r3, r3
 8005e56:	b91b      	cbnz	r3, 8005e60 <HAL_SPI_TransmitReceive+0x170>
 8005e58:	8fe3      	ldrh	r3, [r4, #62]	; 0x3e
 8005e5a:	b29b      	uxth	r3, r3
 8005e5c:	2b00      	cmp	r3, #0
 8005e5e:	d0ab      	beq.n	8005db8 <HAL_SPI_TransmitReceive+0xc8>
 8005e60:	6822      	ldr	r2, [r4, #0]
 8005e62:	6893      	ldr	r3, [r2, #8]
 8005e64:	079b      	lsls	r3, r3, #30
 8005e66:	d50e      	bpl.n	8005e86 <HAL_SPI_TransmitReceive+0x196>
 8005e68:	8ee3      	ldrh	r3, [r4, #54]	; 0x36
 8005e6a:	b29b      	uxth	r3, r3
 8005e6c:	b15b      	cbz	r3, 8005e86 <HAL_SPI_TransmitReceive+0x196>
 8005e6e:	b155      	cbz	r5, 8005e86 <HAL_SPI_TransmitReceive+0x196>
 8005e70:	6b23      	ldr	r3, [r4, #48]	; 0x30
 8005e72:	781b      	ldrb	r3, [r3, #0]
 8005e74:	7313      	strb	r3, [r2, #12]
 8005e76:	6b23      	ldr	r3, [r4, #48]	; 0x30
 8005e78:	3301      	adds	r3, #1
 8005e7a:	6323      	str	r3, [r4, #48]	; 0x30
 8005e7c:	8ee3      	ldrh	r3, [r4, #54]	; 0x36
 8005e7e:	3b01      	subs	r3, #1
 8005e80:	b29b      	uxth	r3, r3
 8005e82:	86e3      	strh	r3, [r4, #54]	; 0x36
 8005e84:	2500      	movs	r5, #0
 8005e86:	6822      	ldr	r2, [r4, #0]
 8005e88:	6891      	ldr	r1, [r2, #8]
 8005e8a:	f011 0101 	ands.w	r1, r1, #1
 8005e8e:	d00d      	beq.n	8005eac <HAL_SPI_TransmitReceive+0x1bc>
 8005e90:	8fe3      	ldrh	r3, [r4, #62]	; 0x3e
 8005e92:	b29b      	uxth	r3, r3
 8005e94:	b153      	cbz	r3, 8005eac <HAL_SPI_TransmitReceive+0x1bc>
 8005e96:	6ba3      	ldr	r3, [r4, #56]	; 0x38
 8005e98:	68d2      	ldr	r2, [r2, #12]
 8005e9a:	701a      	strb	r2, [r3, #0]
 8005e9c:	6ba3      	ldr	r3, [r4, #56]	; 0x38
 8005e9e:	3301      	adds	r3, #1
 8005ea0:	63a3      	str	r3, [r4, #56]	; 0x38
 8005ea2:	8fe3      	ldrh	r3, [r4, #62]	; 0x3e
 8005ea4:	3b01      	subs	r3, #1
 8005ea6:	b29b      	uxth	r3, r3
 8005ea8:	87e3      	strh	r3, [r4, #62]	; 0x3e
 8005eaa:	460d      	mov	r5, r1
 8005eac:	f7fd f930 	bl	8003110 <HAL_GetTick>
 8005eb0:	1bc0      	subs	r0, r0, r7
 8005eb2:	4540      	cmp	r0, r8
 8005eb4:	d3cd      	bcc.n	8005e52 <HAL_SPI_TransmitReceive+0x162>
 8005eb6:	f1b8 3fff 	cmp.w	r8, #4294967295	; 0xffffffff
 8005eba:	d0ca      	beq.n	8005e52 <HAL_SPI_TransmitReceive+0x162>
 8005ebc:	e7b2      	b.n	8005e24 <HAL_SPI_TransmitReceive+0x134>
 8005ebe:	68a3      	ldr	r3, [r4, #8]
 8005ec0:	2b00      	cmp	r3, #0
 8005ec2:	d1b0      	bne.n	8005e26 <HAL_SPI_TransmitReceive+0x136>
 8005ec4:	6823      	ldr	r3, [r4, #0]
 8005ec6:	9001      	str	r0, [sp, #4]
 8005ec8:	68da      	ldr	r2, [r3, #12]
 8005eca:	9201      	str	r2, [sp, #4]
 8005ecc:	689b      	ldr	r3, [r3, #8]
 8005ece:	9301      	str	r3, [sp, #4]
 8005ed0:	9b01      	ldr	r3, [sp, #4]
 8005ed2:	e7a8      	b.n	8005e26 <HAL_SPI_TransmitReceive+0x136>
 8005ed4:	2002      	movs	r0, #2
 8005ed6:	e7a6      	b.n	8005e26 <HAL_SPI_TransmitReceive+0x136>
 8005ed8:	2002      	movs	r0, #2
 8005eda:	e7aa      	b.n	8005e32 <HAL_SPI_TransmitReceive+0x142>
 8005edc:	08009862 	.word	0x08009862

08005ee0 <HAL_SPI_GetState>:
 8005ee0:	f890 0051 	ldrb.w	r0, [r0, #81]	; 0x51
 8005ee4:	4770      	bx	lr
	...

08005ee8 <TIM_OC1_SetConfig>:
 8005ee8:	6a03      	ldr	r3, [r0, #32]
 8005eea:	f023 0301 	bic.w	r3, r3, #1
 8005eee:	e92d 41f0 	stmdb	sp!, {r4, r5, r6, r7, r8, lr}
 8005ef2:	6203      	str	r3, [r0, #32]
 8005ef4:	6a05      	ldr	r5, [r0, #32]
 8005ef6:	f8d0 8004 	ldr.w	r8, [r0, #4]
 8005efa:	6986      	ldr	r6, [r0, #24]
 8005efc:	680b      	ldr	r3, [r1, #0]
 8005efe:	f026 0673 	bic.w	r6, r6, #115	; 0x73
 8005f02:	431e      	orrs	r6, r3
 8005f04:	688b      	ldr	r3, [r1, #8]
 8005f06:	f025 0502 	bic.w	r5, r5, #2
 8005f0a:	431d      	orrs	r5, r3
 8005f0c:	4b1a      	ldr	r3, [pc, #104]	; (8005f78 <TIM_OC1_SetConfig+0x90>)
 8005f0e:	4298      	cmp	r0, r3
 8005f10:	4604      	mov	r4, r0
 8005f12:	460f      	mov	r7, r1
 8005f14:	d127      	bne.n	8005f66 <TIM_OC1_SetConfig+0x7e>
 8005f16:	68cb      	ldr	r3, [r1, #12]
 8005f18:	f033 0308 	bics.w	r3, r3, #8
 8005f1c:	d004      	beq.n	8005f28 <TIM_OC1_SetConfig+0x40>
 8005f1e:	4817      	ldr	r0, [pc, #92]	; (8005f7c <TIM_OC1_SetConfig+0x94>)
 8005f20:	f641 21cb 	movw	r1, #6859	; 0x1acb
 8005f24:	f7fc fbca 	bl	80026bc <assert_failed>
 8005f28:	68fb      	ldr	r3, [r7, #12]
 8005f2a:	f025 0508 	bic.w	r5, r5, #8
 8005f2e:	431d      	orrs	r5, r3
 8005f30:	69bb      	ldr	r3, [r7, #24]
 8005f32:	f433 7300 	bics.w	r3, r3, #512	; 0x200
 8005f36:	f025 0504 	bic.w	r5, r5, #4
 8005f3a:	d004      	beq.n	8005f46 <TIM_OC1_SetConfig+0x5e>
 8005f3c:	480f      	ldr	r0, [pc, #60]	; (8005f7c <TIM_OC1_SetConfig+0x94>)
 8005f3e:	f641 21d8 	movw	r1, #6872	; 0x1ad8
 8005f42:	f7fc fbbb 	bl	80026bc <assert_failed>
 8005f46:	697b      	ldr	r3, [r7, #20]
 8005f48:	f433 7380 	bics.w	r3, r3, #256	; 0x100
 8005f4c:	d004      	beq.n	8005f58 <TIM_OC1_SetConfig+0x70>
 8005f4e:	480b      	ldr	r0, [pc, #44]	; (8005f7c <TIM_OC1_SetConfig+0x94>)
 8005f50:	f641 21d9 	movw	r1, #6873	; 0x1ad9
 8005f54:	f7fc fbb2 	bl	80026bc <assert_failed>
 8005f58:	e9d7 3205 	ldrd	r3, r2, [r7, #20]
 8005f5c:	f428 7840 	bic.w	r8, r8, #768	; 0x300
 8005f60:	4313      	orrs	r3, r2
 8005f62:	ea43 0808 	orr.w	r8, r3, r8
 8005f66:	687b      	ldr	r3, [r7, #4]
 8005f68:	f8c4 8004 	str.w	r8, [r4, #4]
 8005f6c:	61a6      	str	r6, [r4, #24]
 8005f6e:	6363      	str	r3, [r4, #52]	; 0x34
 8005f70:	6225      	str	r5, [r4, #32]
 8005f72:	e8bd 81f0 	ldmia.w	sp!, {r4, r5, r6, r7, r8, pc}
 8005f76:	bf00      	nop
 8005f78:	40010000 	.word	0x40010000
 8005f7c:	0800989a 	.word	0x0800989a

08005f80 <TIM_OC3_SetConfig>:
 8005f80:	6a03      	ldr	r3, [r0, #32]
 8005f82:	f423 7380 	bic.w	r3, r3, #256	; 0x100
 8005f86:	e92d 41f0 	stmdb	sp!, {r4, r5, r6, r7, r8, lr}
 8005f8a:	6203      	str	r3, [r0, #32]
 8005f8c:	6a05      	ldr	r5, [r0, #32]
 8005f8e:	f8d0 8004 	ldr.w	r8, [r0, #4]
 8005f92:	69c6      	ldr	r6, [r0, #28]
 8005f94:	680b      	ldr	r3, [r1, #0]
 8005f96:	f026 0673 	bic.w	r6, r6, #115	; 0x73
 8005f9a:	431e      	orrs	r6, r3
 8005f9c:	688b      	ldr	r3, [r1, #8]
 8005f9e:	f425 7500 	bic.w	r5, r5, #512	; 0x200
 8005fa2:	ea45 2503 	orr.w	r5, r5, r3, lsl #8
 8005fa6:	4b1b      	ldr	r3, [pc, #108]	; (8006014 <TIM_OC3_SetConfig+0x94>)
 8005fa8:	4298      	cmp	r0, r3
 8005faa:	4604      	mov	r4, r0
 8005fac:	460f      	mov	r7, r1
 8005fae:	d128      	bne.n	8006002 <TIM_OC3_SetConfig+0x82>
 8005fb0:	68cb      	ldr	r3, [r1, #12]
 8005fb2:	f033 0308 	bics.w	r3, r3, #8
 8005fb6:	d004      	beq.n	8005fc2 <TIM_OC3_SetConfig+0x42>
 8005fb8:	4817      	ldr	r0, [pc, #92]	; (8006018 <TIM_OC3_SetConfig+0x98>)
 8005fba:	f641 3161 	movw	r1, #7009	; 0x1b61
 8005fbe:	f7fc fb7d 	bl	80026bc <assert_failed>
 8005fc2:	68fb      	ldr	r3, [r7, #12]
 8005fc4:	f425 6500 	bic.w	r5, r5, #2048	; 0x800
 8005fc8:	ea45 2503 	orr.w	r5, r5, r3, lsl #8
 8005fcc:	69bb      	ldr	r3, [r7, #24]
 8005fce:	f433 7300 	bics.w	r3, r3, #512	; 0x200
 8005fd2:	f425 6580 	bic.w	r5, r5, #1024	; 0x400
 8005fd6:	d004      	beq.n	8005fe2 <TIM_OC3_SetConfig+0x62>
 8005fd8:	480f      	ldr	r0, [pc, #60]	; (8006018 <TIM_OC3_SetConfig+0x98>)
 8005fda:	f641 316e 	movw	r1, #7022	; 0x1b6e
 8005fde:	f7fc fb6d 	bl	80026bc <assert_failed>
 8005fe2:	697b      	ldr	r3, [r7, #20]
 8005fe4:	f433 7380 	bics.w	r3, r3, #256	; 0x100
 8005fe8:	d004      	beq.n	8005ff4 <TIM_OC3_SetConfig+0x74>
 8005fea:	480b      	ldr	r0, [pc, #44]	; (8006018 <TIM_OC3_SetConfig+0x98>)
 8005fec:	f641 316f 	movw	r1, #7023	; 0x1b6f
 8005ff0:	f7fc fb64 	bl	80026bc <assert_failed>
 8005ff4:	e9d7 3205 	ldrd	r3, r2, [r7, #20]
 8005ff8:	f428 5840 	bic.w	r8, r8, #12288	; 0x3000
 8005ffc:	4313      	orrs	r3, r2
 8005ffe:	ea48 1803 	orr.w	r8, r8, r3, lsl #4
 8006002:	687b      	ldr	r3, [r7, #4]
 8006004:	f8c4 8004 	str.w	r8, [r4, #4]
 8006008:	61e6      	str	r6, [r4, #28]
 800600a:	63e3      	str	r3, [r4, #60]	; 0x3c
 800600c:	6225      	str	r5, [r4, #32]
 800600e:	e8bd 81f0 	ldmia.w	sp!, {r4, r5, r6, r7, r8, pc}
 8006012:	bf00      	nop
 8006014:	40010000 	.word	0x40010000
 8006018:	0800989a 	.word	0x0800989a

0800601c <TIM_OC4_SetConfig>:
 800601c:	6a03      	ldr	r3, [r0, #32]
 800601e:	f423 5380 	bic.w	r3, r3, #4096	; 0x1000
 8006022:	e92d 41f0 	stmdb	sp!, {r4, r5, r6, r7, r8, lr}
 8006026:	6203      	str	r3, [r0, #32]
 8006028:	6a06      	ldr	r6, [r0, #32]
 800602a:	f8d0 8004 	ldr.w	r8, [r0, #4]
 800602e:	69c7      	ldr	r7, [r0, #28]
 8006030:	680b      	ldr	r3, [r1, #0]
 8006032:	f427 47e6 	bic.w	r7, r7, #29440	; 0x7300
 8006036:	ea47 2703 	orr.w	r7, r7, r3, lsl #8
 800603a:	688b      	ldr	r3, [r1, #8]
 800603c:	f426 5600 	bic.w	r6, r6, #8192	; 0x2000
 8006040:	ea46 3603 	orr.w	r6, r6, r3, lsl #12
 8006044:	4b0d      	ldr	r3, [pc, #52]	; (800607c <TIM_OC4_SetConfig+0x60>)
 8006046:	4298      	cmp	r0, r3
 8006048:	4604      	mov	r4, r0
 800604a:	460d      	mov	r5, r1
 800604c:	d10d      	bne.n	800606a <TIM_OC4_SetConfig+0x4e>
 800604e:	694b      	ldr	r3, [r1, #20]
 8006050:	f433 7380 	bics.w	r3, r3, #256	; 0x100
 8006054:	d004      	beq.n	8006060 <TIM_OC4_SetConfig+0x44>
 8006056:	480a      	ldr	r0, [pc, #40]	; (8006080 <TIM_OC4_SetConfig+0x64>)
 8006058:	f641 31ad 	movw	r1, #7085	; 0x1bad
 800605c:	f7fc fb2e 	bl	80026bc <assert_failed>
 8006060:	696b      	ldr	r3, [r5, #20]
 8006062:	f428 4880 	bic.w	r8, r8, #16384	; 0x4000
 8006066:	ea48 1883 	orr.w	r8, r8, r3, lsl #6
 800606a:	686b      	ldr	r3, [r5, #4]
 800606c:	f8c4 8004 	str.w	r8, [r4, #4]
 8006070:	61e7      	str	r7, [r4, #28]
 8006072:	6423      	str	r3, [r4, #64]	; 0x40
 8006074:	6226      	str	r6, [r4, #32]
 8006076:	e8bd 81f0 	ldmia.w	sp!, {r4, r5, r6, r7, r8, pc}
 800607a:	bf00      	nop
 800607c:	40010000 	.word	0x40010000
 8006080:	0800989a 	.word	0x0800989a

08006084 <HAL_TIM_Base_Stop>:
 8006084:	6803      	ldr	r3, [r0, #0]
 8006086:	4a1c      	ldr	r2, [pc, #112]	; (80060f8 <HAL_TIM_Base_Stop+0x74>)
 8006088:	4293      	cmp	r3, r2
 800608a:	b510      	push	{r4, lr}
 800608c:	4604      	mov	r4, r0
 800608e:	d01f      	beq.n	80060d0 <HAL_TIM_Base_Stop+0x4c>
 8006090:	f1b3 4f80 	cmp.w	r3, #1073741824	; 0x40000000
 8006094:	d01c      	beq.n	80060d0 <HAL_TIM_Base_Stop+0x4c>
 8006096:	f5a2 427c 	sub.w	r2, r2, #64512	; 0xfc00
 800609a:	4293      	cmp	r3, r2
 800609c:	d018      	beq.n	80060d0 <HAL_TIM_Base_Stop+0x4c>
 800609e:	f502 6280 	add.w	r2, r2, #1024	; 0x400
 80060a2:	4293      	cmp	r3, r2
 80060a4:	d014      	beq.n	80060d0 <HAL_TIM_Base_Stop+0x4c>
 80060a6:	f502 6280 	add.w	r2, r2, #1024	; 0x400
 80060aa:	4293      	cmp	r3, r2
 80060ac:	d010      	beq.n	80060d0 <HAL_TIM_Base_Stop+0x4c>
 80060ae:	f502 329a 	add.w	r2, r2, #78848	; 0x13400
 80060b2:	4293      	cmp	r3, r2
 80060b4:	d00c      	beq.n	80060d0 <HAL_TIM_Base_Stop+0x4c>
 80060b6:	f502 6280 	add.w	r2, r2, #1024	; 0x400
 80060ba:	4293      	cmp	r3, r2
 80060bc:	d008      	beq.n	80060d0 <HAL_TIM_Base_Stop+0x4c>
 80060be:	f502 6280 	add.w	r2, r2, #1024	; 0x400
 80060c2:	4293      	cmp	r3, r2
 80060c4:	d004      	beq.n	80060d0 <HAL_TIM_Base_Stop+0x4c>
 80060c6:	480d      	ldr	r0, [pc, #52]	; (80060fc <HAL_TIM_Base_Stop+0x78>)
 80060c8:	f240 11b9 	movw	r1, #441	; 0x1b9
 80060cc:	f7fc faf6 	bl	80026bc <assert_failed>
 80060d0:	6823      	ldr	r3, [r4, #0]
 80060d2:	6a19      	ldr	r1, [r3, #32]
 80060d4:	f241 1211 	movw	r2, #4369	; 0x1111
 80060d8:	4211      	tst	r1, r2
 80060da:	d108      	bne.n	80060ee <HAL_TIM_Base_Stop+0x6a>
 80060dc:	6a19      	ldr	r1, [r3, #32]
 80060de:	f240 4244 	movw	r2, #1092	; 0x444
 80060e2:	4211      	tst	r1, r2
 80060e4:	bf02      	ittt	eq
 80060e6:	681a      	ldreq	r2, [r3, #0]
 80060e8:	f022 0201 	biceq.w	r2, r2, #1
 80060ec:	601a      	streq	r2, [r3, #0]
 80060ee:	2301      	movs	r3, #1
 80060f0:	f884 303d 	strb.w	r3, [r4, #61]	; 0x3d
 80060f4:	2000      	movs	r0, #0
 80060f6:	bd10      	pop	{r4, pc}
 80060f8:	40010000 	.word	0x40010000
 80060fc:	0800989a 	.word	0x0800989a

08006100 <HAL_TIM_Base_Start_IT>:
 8006100:	6803      	ldr	r3, [r0, #0]
 8006102:	4a2a      	ldr	r2, [pc, #168]	; (80061ac <HAL_TIM_Base_Start_IT+0xac>)
 8006104:	4293      	cmp	r3, r2
 8006106:	b510      	push	{r4, lr}
 8006108:	4604      	mov	r4, r0
 800610a:	d01f      	beq.n	800614c <HAL_TIM_Base_Start_IT+0x4c>
 800610c:	f1b3 4f80 	cmp.w	r3, #1073741824	; 0x40000000
 8006110:	d01c      	beq.n	800614c <HAL_TIM_Base_Start_IT+0x4c>
 8006112:	f5a2 427c 	sub.w	r2, r2, #64512	; 0xfc00
 8006116:	4293      	cmp	r3, r2
 8006118:	d018      	beq.n	800614c <HAL_TIM_Base_Start_IT+0x4c>
 800611a:	f502 6280 	add.w	r2, r2, #1024	; 0x400
 800611e:	4293      	cmp	r3, r2
 8006120:	d014      	beq.n	800614c <HAL_TIM_Base_Start_IT+0x4c>
 8006122:	f502 6280 	add.w	r2, r2, #1024	; 0x400
 8006126:	4293      	cmp	r3, r2
 8006128:	d010      	beq.n	800614c <HAL_TIM_Base_Start_IT+0x4c>
 800612a:	f502 329a 	add.w	r2, r2, #78848	; 0x13400
 800612e:	4293      	cmp	r3, r2
 8006130:	d00c      	beq.n	800614c <HAL_TIM_Base_Start_IT+0x4c>
 8006132:	f502 6280 	add.w	r2, r2, #1024	; 0x400
 8006136:	4293      	cmp	r3, r2
 8006138:	d008      	beq.n	800614c <HAL_TIM_Base_Start_IT+0x4c>
 800613a:	f502 6280 	add.w	r2, r2, #1024	; 0x400
 800613e:	4293      	cmp	r3, r2
 8006140:	d004      	beq.n	800614c <HAL_TIM_Base_Start_IT+0x4c>
 8006142:	481b      	ldr	r0, [pc, #108]	; (80061b0 <HAL_TIM_Base_Start_IT+0xb0>)
 8006144:	f240 11cf 	movw	r1, #463	; 0x1cf
 8006148:	f7fc fab8 	bl	80026bc <assert_failed>
 800614c:	f894 303d 	ldrb.w	r3, [r4, #61]	; 0x3d
 8006150:	2b01      	cmp	r3, #1
 8006152:	d128      	bne.n	80061a6 <HAL_TIM_Base_Start_IT+0xa6>
 8006154:	2302      	movs	r3, #2
 8006156:	f884 303d 	strb.w	r3, [r4, #61]	; 0x3d
 800615a:	6823      	ldr	r3, [r4, #0]
 800615c:	68da      	ldr	r2, [r3, #12]
 800615e:	f042 0201 	orr.w	r2, r2, #1
 8006162:	60da      	str	r2, [r3, #12]
 8006164:	4a11      	ldr	r2, [pc, #68]	; (80061ac <HAL_TIM_Base_Start_IT+0xac>)
 8006166:	4293      	cmp	r3, r2
 8006168:	d012      	beq.n	8006190 <HAL_TIM_Base_Start_IT+0x90>
 800616a:	f1b3 4f80 	cmp.w	r3, #1073741824	; 0x40000000
 800616e:	d00f      	beq.n	8006190 <HAL_TIM_Base_Start_IT+0x90>
 8006170:	f5a2 427c 	sub.w	r2, r2, #64512	; 0xfc00
 8006174:	4293      	cmp	r3, r2
 8006176:	d00b      	beq.n	8006190 <HAL_TIM_Base_Start_IT+0x90>
 8006178:	f502 6280 	add.w	r2, r2, #1024	; 0x400
 800617c:	4293      	cmp	r3, r2
 800617e:	d007      	beq.n	8006190 <HAL_TIM_Base_Start_IT+0x90>
 8006180:	f502 6280 	add.w	r2, r2, #1024	; 0x400
 8006184:	4293      	cmp	r3, r2
 8006186:	d003      	beq.n	8006190 <HAL_TIM_Base_Start_IT+0x90>
 8006188:	f502 329a 	add.w	r2, r2, #78848	; 0x13400
 800618c:	4293      	cmp	r3, r2
 800618e:	d104      	bne.n	800619a <HAL_TIM_Base_Start_IT+0x9a>
 8006190:	689a      	ldr	r2, [r3, #8]
 8006192:	f002 0207 	and.w	r2, r2, #7
 8006196:	2a06      	cmp	r2, #6
 8006198:	d003      	beq.n	80061a2 <HAL_TIM_Base_Start_IT+0xa2>
 800619a:	681a      	ldr	r2, [r3, #0]
 800619c:	f042 0201 	orr.w	r2, r2, #1
 80061a0:	601a      	str	r2, [r3, #0]
 80061a2:	2000      	movs	r0, #0
 80061a4:	e000      	b.n	80061a8 <HAL_TIM_Base_Start_IT+0xa8>
 80061a6:	2001      	movs	r0, #1
 80061a8:	bd10      	pop	{r4, pc}
 80061aa:	bf00      	nop
 80061ac:	40010000 	.word	0x40010000
 80061b0:	0800989a 	.word	0x0800989a

080061b4 <HAL_TIM_PWM_MspInit>:
 80061b4:	4770      	bx	lr

080061b6 <HAL_TIM_IC_MspInit>:
 80061b6:	4770      	bx	lr

080061b8 <HAL_TIM_OC_DelayElapsedCallback>:
 80061b8:	4770      	bx	lr

080061ba <HAL_TIM_IC_CaptureCallback>:
 80061ba:	4770      	bx	lr

080061bc <TIM_DMADelayPulseCplt>:
 80061bc:	b510      	push	{r4, lr}
 80061be:	6b84      	ldr	r4, [r0, #56]	; 0x38
 80061c0:	6a62      	ldr	r2, [r4, #36]	; 0x24
 80061c2:	4282      	cmp	r2, r0
 80061c4:	d10b      	bne.n	80061de <TIM_DMADelayPulseCplt+0x22>
 80061c6:	2301      	movs	r3, #1
 80061c8:	7723      	strb	r3, [r4, #28]
 80061ca:	69d2      	ldr	r2, [r2, #28]
 80061cc:	b90a      	cbnz	r2, 80061d2 <TIM_DMADelayPulseCplt+0x16>
 80061ce:	f884 303e 	strb.w	r3, [r4, #62]	; 0x3e
 80061d2:	4620      	mov	r0, r4
 80061d4:	f7fb feb8 	bl	8001f48 <HAL_TIM_PWM_PulseFinishedCallback>
 80061d8:	2300      	movs	r3, #0
 80061da:	7723      	strb	r3, [r4, #28]
 80061dc:	bd10      	pop	{r4, pc}
 80061de:	6aa3      	ldr	r3, [r4, #40]	; 0x28
 80061e0:	4283      	cmp	r3, r0
 80061e2:	d108      	bne.n	80061f6 <TIM_DMADelayPulseCplt+0x3a>
 80061e4:	2202      	movs	r2, #2
 80061e6:	7722      	strb	r2, [r4, #28]
 80061e8:	69db      	ldr	r3, [r3, #28]
 80061ea:	2b00      	cmp	r3, #0
 80061ec:	d1f1      	bne.n	80061d2 <TIM_DMADelayPulseCplt+0x16>
 80061ee:	2301      	movs	r3, #1
 80061f0:	f884 303f 	strb.w	r3, [r4, #63]	; 0x3f
 80061f4:	e7ed      	b.n	80061d2 <TIM_DMADelayPulseCplt+0x16>
 80061f6:	6ae3      	ldr	r3, [r4, #44]	; 0x2c
 80061f8:	4283      	cmp	r3, r0
 80061fa:	d108      	bne.n	800620e <TIM_DMADelayPulseCplt+0x52>
 80061fc:	2204      	movs	r2, #4
 80061fe:	7722      	strb	r2, [r4, #28]
 8006200:	69db      	ldr	r3, [r3, #28]
 8006202:	2b00      	cmp	r3, #0
 8006204:	d1e5      	bne.n	80061d2 <TIM_DMADelayPulseCplt+0x16>
 8006206:	2301      	movs	r3, #1
 8006208:	f884 3040 	strb.w	r3, [r4, #64]	; 0x40
 800620c:	e7e1      	b.n	80061d2 <TIM_DMADelayPulseCplt+0x16>
 800620e:	6b23      	ldr	r3, [r4, #48]	; 0x30
 8006210:	4283      	cmp	r3, r0
 8006212:	d1de      	bne.n	80061d2 <TIM_DMADelayPulseCplt+0x16>
 8006214:	2208      	movs	r2, #8
 8006216:	7722      	strb	r2, [r4, #28]
 8006218:	69db      	ldr	r3, [r3, #28]
 800621a:	2b00      	cmp	r3, #0
 800621c:	d1d9      	bne.n	80061d2 <TIM_DMADelayPulseCplt+0x16>
 800621e:	2301      	movs	r3, #1
 8006220:	f884 3041 	strb.w	r3, [r4, #65]	; 0x41
 8006224:	e7d5      	b.n	80061d2 <TIM_DMADelayPulseCplt+0x16>

08006226 <HAL_TIM_PWM_PulseFinishedHalfCpltCallback>:
 8006226:	4770      	bx	lr

08006228 <TIM_DMADelayPulseHalfCplt>:
 8006228:	b510      	push	{r4, lr}
 800622a:	6b84      	ldr	r4, [r0, #56]	; 0x38
 800622c:	6a63      	ldr	r3, [r4, #36]	; 0x24
 800622e:	4283      	cmp	r3, r0
 8006230:	d107      	bne.n	8006242 <TIM_DMADelayPulseHalfCplt+0x1a>
 8006232:	2301      	movs	r3, #1
 8006234:	7723      	strb	r3, [r4, #28]
 8006236:	4620      	mov	r0, r4
 8006238:	f7ff fff5 	bl	8006226 <HAL_TIM_PWM_PulseFinishedHalfCpltCallback>
 800623c:	2300      	movs	r3, #0
 800623e:	7723      	strb	r3, [r4, #28]
 8006240:	bd10      	pop	{r4, pc}
 8006242:	6aa3      	ldr	r3, [r4, #40]	; 0x28
 8006244:	4283      	cmp	r3, r0
 8006246:	d101      	bne.n	800624c <TIM_DMADelayPulseHalfCplt+0x24>
 8006248:	2302      	movs	r3, #2
 800624a:	e7f3      	b.n	8006234 <TIM_DMADelayPulseHalfCplt+0xc>
 800624c:	6ae3      	ldr	r3, [r4, #44]	; 0x2c
 800624e:	4283      	cmp	r3, r0
 8006250:	d101      	bne.n	8006256 <TIM_DMADelayPulseHalfCplt+0x2e>
 8006252:	2304      	movs	r3, #4
 8006254:	e7ee      	b.n	8006234 <TIM_DMADelayPulseHalfCplt+0xc>
 8006256:	6b23      	ldr	r3, [r4, #48]	; 0x30
 8006258:	4283      	cmp	r3, r0
 800625a:	d1ec      	bne.n	8006236 <TIM_DMADelayPulseHalfCplt+0xe>
 800625c:	2308      	movs	r3, #8
 800625e:	e7e9      	b.n	8006234 <TIM_DMADelayPulseHalfCplt+0xc>

08006260 <HAL_TIM_TriggerCallback>:
 8006260:	4770      	bx	lr

08006262 <HAL_TIM_IRQHandler>:
 8006262:	6803      	ldr	r3, [r0, #0]
 8006264:	691a      	ldr	r2, [r3, #16]
 8006266:	0791      	lsls	r1, r2, #30
 8006268:	b510      	push	{r4, lr}
 800626a:	4604      	mov	r4, r0
 800626c:	d50e      	bpl.n	800628c <HAL_TIM_IRQHandler+0x2a>
 800626e:	68da      	ldr	r2, [r3, #12]
 8006270:	0792      	lsls	r2, r2, #30
 8006272:	d50b      	bpl.n	800628c <HAL_TIM_IRQHandler+0x2a>
 8006274:	f06f 0202 	mvn.w	r2, #2
 8006278:	611a      	str	r2, [r3, #16]
 800627a:	2201      	movs	r2, #1
 800627c:	7702      	strb	r2, [r0, #28]
 800627e:	699b      	ldr	r3, [r3, #24]
 8006280:	079b      	lsls	r3, r3, #30
 8006282:	d077      	beq.n	8006374 <HAL_TIM_IRQHandler+0x112>
 8006284:	f7ff ff99 	bl	80061ba <HAL_TIM_IC_CaptureCallback>
 8006288:	2300      	movs	r3, #0
 800628a:	7723      	strb	r3, [r4, #28]
 800628c:	6823      	ldr	r3, [r4, #0]
 800628e:	691a      	ldr	r2, [r3, #16]
 8006290:	0750      	lsls	r0, r2, #29
 8006292:	d510      	bpl.n	80062b6 <HAL_TIM_IRQHandler+0x54>
 8006294:	68da      	ldr	r2, [r3, #12]
 8006296:	0751      	lsls	r1, r2, #29
 8006298:	d50d      	bpl.n	80062b6 <HAL_TIM_IRQHandler+0x54>
 800629a:	f06f 0204 	mvn.w	r2, #4
 800629e:	611a      	str	r2, [r3, #16]
 80062a0:	2202      	movs	r2, #2
 80062a2:	7722      	strb	r2, [r4, #28]
 80062a4:	699b      	ldr	r3, [r3, #24]
 80062a6:	f413 7f40 	tst.w	r3, #768	; 0x300
 80062aa:	4620      	mov	r0, r4
 80062ac:	d068      	beq.n	8006380 <HAL_TIM_IRQHandler+0x11e>
 80062ae:	f7ff ff84 	bl	80061ba <HAL_TIM_IC_CaptureCallback>
 80062b2:	2300      	movs	r3, #0
 80062b4:	7723      	strb	r3, [r4, #28]
 80062b6:	6823      	ldr	r3, [r4, #0]
 80062b8:	691a      	ldr	r2, [r3, #16]
 80062ba:	0712      	lsls	r2, r2, #28
 80062bc:	d50f      	bpl.n	80062de <HAL_TIM_IRQHandler+0x7c>
 80062be:	68da      	ldr	r2, [r3, #12]
 80062c0:	0710      	lsls	r0, r2, #28
 80062c2:	d50c      	bpl.n	80062de <HAL_TIM_IRQHandler+0x7c>
 80062c4:	f06f 0208 	mvn.w	r2, #8
 80062c8:	611a      	str	r2, [r3, #16]
 80062ca:	2204      	movs	r2, #4
 80062cc:	7722      	strb	r2, [r4, #28]
 80062ce:	69db      	ldr	r3, [r3, #28]
 80062d0:	0799      	lsls	r1, r3, #30
 80062d2:	4620      	mov	r0, r4
 80062d4:	d05a      	beq.n	800638c <HAL_TIM_IRQHandler+0x12a>
 80062d6:	f7ff ff70 	bl	80061ba <HAL_TIM_IC_CaptureCallback>
 80062da:	2300      	movs	r3, #0
 80062dc:	7723      	strb	r3, [r4, #28]
 80062de:	6823      	ldr	r3, [r4, #0]
 80062e0:	691a      	ldr	r2, [r3, #16]
 80062e2:	06d2      	lsls	r2, r2, #27
 80062e4:	d510      	bpl.n	8006308 <HAL_TIM_IRQHandler+0xa6>
 80062e6:	68da      	ldr	r2, [r3, #12]
 80062e8:	06d0      	lsls	r0, r2, #27
 80062ea:	d50d      	bpl.n	8006308 <HAL_TIM_IRQHandler+0xa6>
 80062ec:	f06f 0210 	mvn.w	r2, #16
 80062f0:	611a      	str	r2, [r3, #16]
 80062f2:	2208      	movs	r2, #8
 80062f4:	7722      	strb	r2, [r4, #28]
 80062f6:	69db      	ldr	r3, [r3, #28]
 80062f8:	f413 7f40 	tst.w	r3, #768	; 0x300
 80062fc:	4620      	mov	r0, r4
 80062fe:	d04b      	beq.n	8006398 <HAL_TIM_IRQHandler+0x136>
 8006300:	f7ff ff5b 	bl	80061ba <HAL_TIM_IC_CaptureCallback>
 8006304:	2300      	movs	r3, #0
 8006306:	7723      	strb	r3, [r4, #28]
 8006308:	6823      	ldr	r3, [r4, #0]
 800630a:	691a      	ldr	r2, [r3, #16]
 800630c:	07d1      	lsls	r1, r2, #31
 800630e:	d508      	bpl.n	8006322 <HAL_TIM_IRQHandler+0xc0>
 8006310:	68da      	ldr	r2, [r3, #12]
 8006312:	07d2      	lsls	r2, r2, #31
 8006314:	d505      	bpl.n	8006322 <HAL_TIM_IRQHandler+0xc0>
 8006316:	f06f 0201 	mvn.w	r2, #1
 800631a:	611a      	str	r2, [r3, #16]
 800631c:	4620      	mov	r0, r4
 800631e:	f7fb ffcf 	bl	80022c0 <HAL_TIM_PeriodElapsedCallback>
 8006322:	6823      	ldr	r3, [r4, #0]
 8006324:	691a      	ldr	r2, [r3, #16]
 8006326:	0610      	lsls	r0, r2, #24
 8006328:	d508      	bpl.n	800633c <HAL_TIM_IRQHandler+0xda>
 800632a:	68da      	ldr	r2, [r3, #12]
 800632c:	0611      	lsls	r1, r2, #24
 800632e:	d505      	bpl.n	800633c <HAL_TIM_IRQHandler+0xda>
 8006330:	f06f 0280 	mvn.w	r2, #128	; 0x80
 8006334:	611a      	str	r2, [r3, #16]
 8006336:	4620      	mov	r0, r4
 8006338:	f001 f999 	bl	800766e <HAL_TIMEx_BreakCallback>
 800633c:	6823      	ldr	r3, [r4, #0]
 800633e:	691a      	ldr	r2, [r3, #16]
 8006340:	0652      	lsls	r2, r2, #25
 8006342:	d508      	bpl.n	8006356 <HAL_TIM_IRQHandler+0xf4>
 8006344:	68da      	ldr	r2, [r3, #12]
 8006346:	0650      	lsls	r0, r2, #25
 8006348:	d505      	bpl.n	8006356 <HAL_TIM_IRQHandler+0xf4>
 800634a:	f06f 0240 	mvn.w	r2, #64	; 0x40
 800634e:	611a      	str	r2, [r3, #16]
 8006350:	4620      	mov	r0, r4
 8006352:	f7ff ff85 	bl	8006260 <HAL_TIM_TriggerCallback>
 8006356:	6823      	ldr	r3, [r4, #0]
 8006358:	691a      	ldr	r2, [r3, #16]
 800635a:	0691      	lsls	r1, r2, #26
 800635c:	d522      	bpl.n	80063a4 <HAL_TIM_IRQHandler+0x142>
 800635e:	68da      	ldr	r2, [r3, #12]
 8006360:	0692      	lsls	r2, r2, #26
 8006362:	d51f      	bpl.n	80063a4 <HAL_TIM_IRQHandler+0x142>
 8006364:	f06f 0220 	mvn.w	r2, #32
 8006368:	4620      	mov	r0, r4
 800636a:	611a      	str	r2, [r3, #16]
 800636c:	e8bd 4010 	ldmia.w	sp!, {r4, lr}
 8006370:	f001 b97c 	b.w	800766c <HAL_TIMEx_CommutCallback>
 8006374:	f7ff ff20 	bl	80061b8 <HAL_TIM_OC_DelayElapsedCallback>
 8006378:	4620      	mov	r0, r4
 800637a:	f7fb fde5 	bl	8001f48 <HAL_TIM_PWM_PulseFinishedCallback>
 800637e:	e783      	b.n	8006288 <HAL_TIM_IRQHandler+0x26>
 8006380:	f7ff ff1a 	bl	80061b8 <HAL_TIM_OC_DelayElapsedCallback>
 8006384:	4620      	mov	r0, r4
 8006386:	f7fb fddf 	bl	8001f48 <HAL_TIM_PWM_PulseFinishedCallback>
 800638a:	e792      	b.n	80062b2 <HAL_TIM_IRQHandler+0x50>
 800638c:	f7ff ff14 	bl	80061b8 <HAL_TIM_OC_DelayElapsedCallback>
 8006390:	4620      	mov	r0, r4
 8006392:	f7fb fdd9 	bl	8001f48 <HAL_TIM_PWM_PulseFinishedCallback>
 8006396:	e7a0      	b.n	80062da <HAL_TIM_IRQHandler+0x78>
 8006398:	f7ff ff0e 	bl	80061b8 <HAL_TIM_OC_DelayElapsedCallback>
 800639c:	4620      	mov	r0, r4
 800639e:	f7fb fdd3 	bl	8001f48 <HAL_TIM_PWM_PulseFinishedCallback>
 80063a2:	e7af      	b.n	8006304 <HAL_TIM_IRQHandler+0xa2>
 80063a4:	bd10      	pop	{r4, pc}

080063a6 <HAL_TIM_ErrorCallback>:
 80063a6:	4770      	bx	lr

080063a8 <TIM_DMAError>:
 80063a8:	b510      	push	{r4, lr}
 80063aa:	6b84      	ldr	r4, [r0, #56]	; 0x38
 80063ac:	6a63      	ldr	r3, [r4, #36]	; 0x24
 80063ae:	4283      	cmp	r3, r0
 80063b0:	d109      	bne.n	80063c6 <TIM_DMAError+0x1e>
 80063b2:	2301      	movs	r3, #1
 80063b4:	7723      	strb	r3, [r4, #28]
 80063b6:	f884 303e 	strb.w	r3, [r4, #62]	; 0x3e
 80063ba:	4620      	mov	r0, r4
 80063bc:	f7ff fff3 	bl	80063a6 <HAL_TIM_ErrorCallback>
 80063c0:	2300      	movs	r3, #0
 80063c2:	7723      	strb	r3, [r4, #28]
 80063c4:	bd10      	pop	{r4, pc}
 80063c6:	6aa3      	ldr	r3, [r4, #40]	; 0x28
 80063c8:	4283      	cmp	r3, r0
 80063ca:	d105      	bne.n	80063d8 <TIM_DMAError+0x30>
 80063cc:	2302      	movs	r3, #2
 80063ce:	7723      	strb	r3, [r4, #28]
 80063d0:	2301      	movs	r3, #1
 80063d2:	f884 303f 	strb.w	r3, [r4, #63]	; 0x3f
 80063d6:	e7f0      	b.n	80063ba <TIM_DMAError+0x12>
 80063d8:	6ae3      	ldr	r3, [r4, #44]	; 0x2c
 80063da:	4283      	cmp	r3, r0
 80063dc:	f04f 0301 	mov.w	r3, #1
 80063e0:	d104      	bne.n	80063ec <TIM_DMAError+0x44>
 80063e2:	2204      	movs	r2, #4
 80063e4:	7722      	strb	r2, [r4, #28]
 80063e6:	f884 3040 	strb.w	r3, [r4, #64]	; 0x40
 80063ea:	e7e6      	b.n	80063ba <TIM_DMAError+0x12>
 80063ec:	6b22      	ldr	r2, [r4, #48]	; 0x30
 80063ee:	4282      	cmp	r2, r0
 80063f0:	bf03      	ittte	eq
 80063f2:	2208      	moveq	r2, #8
 80063f4:	7722      	strbeq	r2, [r4, #28]
 80063f6:	f884 3041 	strbeq.w	r3, [r4, #65]	; 0x41
 80063fa:	f884 303d 	strbne.w	r3, [r4, #61]	; 0x3d
 80063fe:	e7dc      	b.n	80063ba <TIM_DMAError+0x12>

08006400 <TIM_Base_SetConfig>:
 8006400:	4a24      	ldr	r2, [pc, #144]	; (8006494 <TIM_Base_SetConfig+0x94>)
 8006402:	6803      	ldr	r3, [r0, #0]
 8006404:	4290      	cmp	r0, r2
 8006406:	d00e      	beq.n	8006426 <TIM_Base_SetConfig+0x26>
 8006408:	f1b0 4f80 	cmp.w	r0, #1073741824	; 0x40000000
 800640c:	d00b      	beq.n	8006426 <TIM_Base_SetConfig+0x26>
 800640e:	f5a2 427c 	sub.w	r2, r2, #64512	; 0xfc00
 8006412:	4290      	cmp	r0, r2
 8006414:	d007      	beq.n	8006426 <TIM_Base_SetConfig+0x26>
 8006416:	f502 6280 	add.w	r2, r2, #1024	; 0x400
 800641a:	4290      	cmp	r0, r2
 800641c:	d003      	beq.n	8006426 <TIM_Base_SetConfig+0x26>
 800641e:	f502 6280 	add.w	r2, r2, #1024	; 0x400
 8006422:	4290      	cmp	r0, r2
 8006424:	d115      	bne.n	8006452 <TIM_Base_SetConfig+0x52>
 8006426:	684a      	ldr	r2, [r1, #4]
 8006428:	f023 0370 	bic.w	r3, r3, #112	; 0x70
 800642c:	4313      	orrs	r3, r2
 800642e:	4a19      	ldr	r2, [pc, #100]	; (8006494 <TIM_Base_SetConfig+0x94>)
 8006430:	4290      	cmp	r0, r2
 8006432:	d019      	beq.n	8006468 <TIM_Base_SetConfig+0x68>
 8006434:	f1b0 4f80 	cmp.w	r0, #1073741824	; 0x40000000
 8006438:	d016      	beq.n	8006468 <TIM_Base_SetConfig+0x68>
 800643a:	f5a2 427c 	sub.w	r2, r2, #64512	; 0xfc00
 800643e:	4290      	cmp	r0, r2
 8006440:	d012      	beq.n	8006468 <TIM_Base_SetConfig+0x68>
 8006442:	f502 6280 	add.w	r2, r2, #1024	; 0x400
 8006446:	4290      	cmp	r0, r2
 8006448:	d00e      	beq.n	8006468 <TIM_Base_SetConfig+0x68>
 800644a:	f502 6280 	add.w	r2, r2, #1024	; 0x400
 800644e:	4290      	cmp	r0, r2
 8006450:	d00a      	beq.n	8006468 <TIM_Base_SetConfig+0x68>
 8006452:	4a11      	ldr	r2, [pc, #68]	; (8006498 <TIM_Base_SetConfig+0x98>)
 8006454:	4290      	cmp	r0, r2
 8006456:	d007      	beq.n	8006468 <TIM_Base_SetConfig+0x68>
 8006458:	f502 6280 	add.w	r2, r2, #1024	; 0x400
 800645c:	4290      	cmp	r0, r2
 800645e:	d003      	beq.n	8006468 <TIM_Base_SetConfig+0x68>
 8006460:	f502 6280 	add.w	r2, r2, #1024	; 0x400
 8006464:	4290      	cmp	r0, r2
 8006466:	d103      	bne.n	8006470 <TIM_Base_SetConfig+0x70>
 8006468:	68ca      	ldr	r2, [r1, #12]
 800646a:	f423 7340 	bic.w	r3, r3, #768	; 0x300
 800646e:	4313      	orrs	r3, r2
 8006470:	694a      	ldr	r2, [r1, #20]
 8006472:	f023 0380 	bic.w	r3, r3, #128	; 0x80
 8006476:	4313      	orrs	r3, r2
 8006478:	6003      	str	r3, [r0, #0]
 800647a:	688b      	ldr	r3, [r1, #8]
 800647c:	62c3      	str	r3, [r0, #44]	; 0x2c
 800647e:	680b      	ldr	r3, [r1, #0]
 8006480:	6283      	str	r3, [r0, #40]	; 0x28
 8006482:	4b04      	ldr	r3, [pc, #16]	; (8006494 <TIM_Base_SetConfig+0x94>)
 8006484:	4298      	cmp	r0, r3
 8006486:	bf04      	itt	eq
 8006488:	690b      	ldreq	r3, [r1, #16]
 800648a:	6303      	streq	r3, [r0, #48]	; 0x30
 800648c:	2301      	movs	r3, #1
 800648e:	6143      	str	r3, [r0, #20]
 8006490:	4770      	bx	lr
 8006492:	bf00      	nop
 8006494:	40010000 	.word	0x40010000
 8006498:	40014000 	.word	0x40014000

0800649c <HAL_TIM_Base_Init>:
 800649c:	b510      	push	{r4, lr}
 800649e:	4604      	mov	r4, r0
 80064a0:	2800      	cmp	r0, #0
 80064a2:	d06f      	beq.n	8006584 <HAL_TIM_Base_Init+0xe8>
 80064a4:	6803      	ldr	r3, [r0, #0]
 80064a6:	4a38      	ldr	r2, [pc, #224]	; (8006588 <HAL_TIM_Base_Init+0xec>)
 80064a8:	4293      	cmp	r3, r2
 80064aa:	d01f      	beq.n	80064ec <HAL_TIM_Base_Init+0x50>
 80064ac:	f1b3 4f80 	cmp.w	r3, #1073741824	; 0x40000000
 80064b0:	d01c      	beq.n	80064ec <HAL_TIM_Base_Init+0x50>
 80064b2:	f5a2 427c 	sub.w	r2, r2, #64512	; 0xfc00
 80064b6:	4293      	cmp	r3, r2
 80064b8:	d018      	beq.n	80064ec <HAL_TIM_Base_Init+0x50>
 80064ba:	f502 6280 	add.w	r2, r2, #1024	; 0x400
 80064be:	4293      	cmp	r3, r2
 80064c0:	d014      	beq.n	80064ec <HAL_TIM_Base_Init+0x50>
 80064c2:	f502 6280 	add.w	r2, r2, #1024	; 0x400
 80064c6:	4293      	cmp	r3, r2
 80064c8:	d010      	beq.n	80064ec <HAL_TIM_Base_Init+0x50>
 80064ca:	f502 329a 	add.w	r2, r2, #78848	; 0x13400
 80064ce:	4293      	cmp	r3, r2
 80064d0:	d00c      	beq.n	80064ec <HAL_TIM_Base_Init+0x50>
 80064d2:	f502 6280 	add.w	r2, r2, #1024	; 0x400
 80064d6:	4293      	cmp	r3, r2
 80064d8:	d008      	beq.n	80064ec <HAL_TIM_Base_Init+0x50>
 80064da:	f502 6280 	add.w	r2, r2, #1024	; 0x400
 80064de:	4293      	cmp	r3, r2
 80064e0:	d004      	beq.n	80064ec <HAL_TIM_Base_Init+0x50>
 80064e2:	482a      	ldr	r0, [pc, #168]	; (800658c <HAL_TIM_Base_Init+0xf0>)
 80064e4:	f240 1113 	movw	r1, #275	; 0x113
 80064e8:	f7fc f8e8 	bl	80026bc <assert_failed>
 80064ec:	68a3      	ldr	r3, [r4, #8]
 80064ee:	f033 0210 	bics.w	r2, r3, #16
 80064f2:	d00a      	beq.n	800650a <HAL_TIM_Base_Init+0x6e>
 80064f4:	f023 0240 	bic.w	r2, r3, #64	; 0x40
 80064f8:	2a20      	cmp	r2, #32
 80064fa:	d006      	beq.n	800650a <HAL_TIM_Base_Init+0x6e>
 80064fc:	2b40      	cmp	r3, #64	; 0x40
 80064fe:	d004      	beq.n	800650a <HAL_TIM_Base_Init+0x6e>
 8006500:	4822      	ldr	r0, [pc, #136]	; (800658c <HAL_TIM_Base_Init+0xf0>)
 8006502:	f44f 718a 	mov.w	r1, #276	; 0x114
 8006506:	f7fc f8d9 	bl	80026bc <assert_failed>
 800650a:	6923      	ldr	r3, [r4, #16]
 800650c:	f433 7280 	bics.w	r2, r3, #256	; 0x100
 8006510:	d007      	beq.n	8006522 <HAL_TIM_Base_Init+0x86>
 8006512:	f5b3 7f00 	cmp.w	r3, #512	; 0x200
 8006516:	d004      	beq.n	8006522 <HAL_TIM_Base_Init+0x86>
 8006518:	481c      	ldr	r0, [pc, #112]	; (800658c <HAL_TIM_Base_Init+0xf0>)
 800651a:	f240 1115 	movw	r1, #277	; 0x115
 800651e:	f7fc f8cd 	bl	80026bc <assert_failed>
 8006522:	69a3      	ldr	r3, [r4, #24]
 8006524:	f033 0380 	bics.w	r3, r3, #128	; 0x80
 8006528:	d004      	beq.n	8006534 <HAL_TIM_Base_Init+0x98>
 800652a:	4818      	ldr	r0, [pc, #96]	; (800658c <HAL_TIM_Base_Init+0xf0>)
 800652c:	f44f 718b 	mov.w	r1, #278	; 0x116
 8006530:	f7fc f8c4 	bl	80026bc <assert_failed>
 8006534:	f894 303d 	ldrb.w	r3, [r4, #61]	; 0x3d
 8006538:	f003 02ff 	and.w	r2, r3, #255	; 0xff
 800653c:	b923      	cbnz	r3, 8006548 <HAL_TIM_Base_Init+0xac>
 800653e:	f884 203c 	strb.w	r2, [r4, #60]	; 0x3c
 8006542:	4620      	mov	r0, r4
 8006544:	f7fc fc66 	bl	8002e14 <HAL_TIM_Base_MspInit>
 8006548:	2302      	movs	r3, #2
 800654a:	6820      	ldr	r0, [r4, #0]
 800654c:	f884 303d 	strb.w	r3, [r4, #61]	; 0x3d
 8006550:	1d21      	adds	r1, r4, #4
 8006552:	f7ff ff55 	bl	8006400 <TIM_Base_SetConfig>
 8006556:	2301      	movs	r3, #1
 8006558:	f884 3046 	strb.w	r3, [r4, #70]	; 0x46
 800655c:	2000      	movs	r0, #0
 800655e:	f884 303e 	strb.w	r3, [r4, #62]	; 0x3e
 8006562:	f884 303f 	strb.w	r3, [r4, #63]	; 0x3f
 8006566:	f884 3040 	strb.w	r3, [r4, #64]	; 0x40
 800656a:	f884 3041 	strb.w	r3, [r4, #65]	; 0x41
 800656e:	f884 3042 	strb.w	r3, [r4, #66]	; 0x42
 8006572:	f884 3043 	strb.w	r3, [r4, #67]	; 0x43
 8006576:	f884 3044 	strb.w	r3, [r4, #68]	; 0x44
 800657a:	f884 3045 	strb.w	r3, [r4, #69]	; 0x45
 800657e:	f884 303d 	strb.w	r3, [r4, #61]	; 0x3d
 8006582:	bd10      	pop	{r4, pc}
 8006584:	2001      	movs	r0, #1
 8006586:	e7fc      	b.n	8006582 <HAL_TIM_Base_Init+0xe6>
 8006588:	40010000 	.word	0x40010000
 800658c:	0800989a 	.word	0x0800989a

08006590 <HAL_TIM_PWM_Init>:
 8006590:	b510      	push	{r4, lr}
 8006592:	4604      	mov	r4, r0
 8006594:	2800      	cmp	r0, #0
 8006596:	d06f      	beq.n	8006678 <HAL_TIM_PWM_Init+0xe8>
 8006598:	6803      	ldr	r3, [r0, #0]
 800659a:	4a38      	ldr	r2, [pc, #224]	; (800667c <HAL_TIM_PWM_Init+0xec>)
 800659c:	4293      	cmp	r3, r2
 800659e:	d01f      	beq.n	80065e0 <HAL_TIM_PWM_Init+0x50>
 80065a0:	f1b3 4f80 	cmp.w	r3, #1073741824	; 0x40000000
 80065a4:	d01c      	beq.n	80065e0 <HAL_TIM_PWM_Init+0x50>
 80065a6:	f5a2 427c 	sub.w	r2, r2, #64512	; 0xfc00
 80065aa:	4293      	cmp	r3, r2
 80065ac:	d018      	beq.n	80065e0 <HAL_TIM_PWM_Init+0x50>
 80065ae:	f502 6280 	add.w	r2, r2, #1024	; 0x400
 80065b2:	4293      	cmp	r3, r2
 80065b4:	d014      	beq.n	80065e0 <HAL_TIM_PWM_Init+0x50>
 80065b6:	f502 6280 	add.w	r2, r2, #1024	; 0x400
 80065ba:	4293      	cmp	r3, r2
 80065bc:	d010      	beq.n	80065e0 <HAL_TIM_PWM_Init+0x50>
 80065be:	f502 329a 	add.w	r2, r2, #78848	; 0x13400
 80065c2:	4293      	cmp	r3, r2
 80065c4:	d00c      	beq.n	80065e0 <HAL_TIM_PWM_Init+0x50>
 80065c6:	f502 6280 	add.w	r2, r2, #1024	; 0x400
 80065ca:	4293      	cmp	r3, r2
 80065cc:	d008      	beq.n	80065e0 <HAL_TIM_PWM_Init+0x50>
 80065ce:	f502 6280 	add.w	r2, r2, #1024	; 0x400
 80065d2:	4293      	cmp	r3, r2
 80065d4:	d004      	beq.n	80065e0 <HAL_TIM_PWM_Init+0x50>
 80065d6:	482a      	ldr	r0, [pc, #168]	; (8006680 <HAL_TIM_PWM_Init+0xf0>)
 80065d8:	f240 5129 	movw	r1, #1321	; 0x529
 80065dc:	f7fc f86e 	bl	80026bc <assert_failed>
 80065e0:	68a3      	ldr	r3, [r4, #8]
 80065e2:	f033 0210 	bics.w	r2, r3, #16
 80065e6:	d00a      	beq.n	80065fe <HAL_TIM_PWM_Init+0x6e>
 80065e8:	f023 0240 	bic.w	r2, r3, #64	; 0x40
 80065ec:	2a20      	cmp	r2, #32
 80065ee:	d006      	beq.n	80065fe <HAL_TIM_PWM_Init+0x6e>
 80065f0:	2b40      	cmp	r3, #64	; 0x40
 80065f2:	d004      	beq.n	80065fe <HAL_TIM_PWM_Init+0x6e>
 80065f4:	4822      	ldr	r0, [pc, #136]	; (8006680 <HAL_TIM_PWM_Init+0xf0>)
 80065f6:	f240 512a 	movw	r1, #1322	; 0x52a
 80065fa:	f7fc f85f 	bl	80026bc <assert_failed>
 80065fe:	6923      	ldr	r3, [r4, #16]
 8006600:	f433 7280 	bics.w	r2, r3, #256	; 0x100
 8006604:	d007      	beq.n	8006616 <HAL_TIM_PWM_Init+0x86>
 8006606:	f5b3 7f00 	cmp.w	r3, #512	; 0x200
 800660a:	d004      	beq.n	8006616 <HAL_TIM_PWM_Init+0x86>
 800660c:	481c      	ldr	r0, [pc, #112]	; (8006680 <HAL_TIM_PWM_Init+0xf0>)
 800660e:	f240 512b 	movw	r1, #1323	; 0x52b
 8006612:	f7fc f853 	bl	80026bc <assert_failed>
 8006616:	69a3      	ldr	r3, [r4, #24]
 8006618:	f033 0380 	bics.w	r3, r3, #128	; 0x80
 800661c:	d004      	beq.n	8006628 <HAL_TIM_PWM_Init+0x98>
 800661e:	4818      	ldr	r0, [pc, #96]	; (8006680 <HAL_TIM_PWM_Init+0xf0>)
 8006620:	f240 512c 	movw	r1, #1324	; 0x52c
 8006624:	f7fc f84a 	bl	80026bc <assert_failed>
 8006628:	f894 303d 	ldrb.w	r3, [r4, #61]	; 0x3d
 800662c:	f003 02ff 	and.w	r2, r3, #255	; 0xff
 8006630:	b923      	cbnz	r3, 800663c <HAL_TIM_PWM_Init+0xac>
 8006632:	f884 203c 	strb.w	r2, [r4, #60]	; 0x3c
 8006636:	4620      	mov	r0, r4
 8006638:	f7ff fdbc 	bl	80061b4 <HAL_TIM_PWM_MspInit>
 800663c:	2302      	movs	r3, #2
 800663e:	6820      	ldr	r0, [r4, #0]
 8006640:	f884 303d 	strb.w	r3, [r4, #61]	; 0x3d
 8006644:	1d21      	adds	r1, r4, #4
 8006646:	f7ff fedb 	bl	8006400 <TIM_Base_SetConfig>
 800664a:	2301      	movs	r3, #1
 800664c:	f884 3046 	strb.w	r3, [r4, #70]	; 0x46
 8006650:	2000      	movs	r0, #0
 8006652:	f884 303e 	strb.w	r3, [r4, #62]	; 0x3e
 8006656:	f884 303f 	strb.w	r3, [r4, #63]	; 0x3f
 800665a:	f884 3040 	strb.w	r3, [r4, #64]	; 0x40
 800665e:	f884 3041 	strb.w	r3, [r4, #65]	; 0x41
 8006662:	f884 3042 	strb.w	r3, [r4, #66]	; 0x42
 8006666:	f884 3043 	strb.w	r3, [r4, #67]	; 0x43
 800666a:	f884 3044 	strb.w	r3, [r4, #68]	; 0x44
 800666e:	f884 3045 	strb.w	r3, [r4, #69]	; 0x45
 8006672:	f884 303d 	strb.w	r3, [r4, #61]	; 0x3d
 8006676:	bd10      	pop	{r4, pc}
 8006678:	2001      	movs	r0, #1
 800667a:	e7fc      	b.n	8006676 <HAL_TIM_PWM_Init+0xe6>
 800667c:	40010000 	.word	0x40010000
 8006680:	0800989a 	.word	0x0800989a

08006684 <HAL_TIM_IC_Init>:
 8006684:	b510      	push	{r4, lr}
 8006686:	4604      	mov	r4, r0
 8006688:	2800      	cmp	r0, #0
 800668a:	d06f      	beq.n	800676c <HAL_TIM_IC_Init+0xe8>
 800668c:	6803      	ldr	r3, [r0, #0]
 800668e:	4a38      	ldr	r2, [pc, #224]	; (8006770 <HAL_TIM_IC_Init+0xec>)
 8006690:	4293      	cmp	r3, r2
 8006692:	d01f      	beq.n	80066d4 <HAL_TIM_IC_Init+0x50>
 8006694:	f1b3 4f80 	cmp.w	r3, #1073741824	; 0x40000000
 8006698:	d01c      	beq.n	80066d4 <HAL_TIM_IC_Init+0x50>
 800669a:	f5a2 427c 	sub.w	r2, r2, #64512	; 0xfc00
 800669e:	4293      	cmp	r3, r2
 80066a0:	d018      	beq.n	80066d4 <HAL_TIM_IC_Init+0x50>
 80066a2:	f502 6280 	add.w	r2, r2, #1024	; 0x400
 80066a6:	4293      	cmp	r3, r2
 80066a8:	d014      	beq.n	80066d4 <HAL_TIM_IC_Init+0x50>
 80066aa:	f502 6280 	add.w	r2, r2, #1024	; 0x400
 80066ae:	4293      	cmp	r3, r2
 80066b0:	d010      	beq.n	80066d4 <HAL_TIM_IC_Init+0x50>
 80066b2:	f502 329a 	add.w	r2, r2, #78848	; 0x13400
 80066b6:	4293      	cmp	r3, r2
 80066b8:	d00c      	beq.n	80066d4 <HAL_TIM_IC_Init+0x50>
 80066ba:	f502 6280 	add.w	r2, r2, #1024	; 0x400
 80066be:	4293      	cmp	r3, r2
 80066c0:	d008      	beq.n	80066d4 <HAL_TIM_IC_Init+0x50>
 80066c2:	f502 6280 	add.w	r2, r2, #1024	; 0x400
 80066c6:	4293      	cmp	r3, r2
 80066c8:	d004      	beq.n	80066d4 <HAL_TIM_IC_Init+0x50>
 80066ca:	482a      	ldr	r0, [pc, #168]	; (8006774 <HAL_TIM_IC_Init+0xf0>)
 80066cc:	f240 71bf 	movw	r1, #1983	; 0x7bf
 80066d0:	f7fb fff4 	bl	80026bc <assert_failed>
 80066d4:	68a3      	ldr	r3, [r4, #8]
 80066d6:	f033 0210 	bics.w	r2, r3, #16
 80066da:	d00a      	beq.n	80066f2 <HAL_TIM_IC_Init+0x6e>
 80066dc:	f023 0240 	bic.w	r2, r3, #64	; 0x40
 80066e0:	2a20      	cmp	r2, #32
 80066e2:	d006      	beq.n	80066f2 <HAL_TIM_IC_Init+0x6e>
 80066e4:	2b40      	cmp	r3, #64	; 0x40
 80066e6:	d004      	beq.n	80066f2 <HAL_TIM_IC_Init+0x6e>
 80066e8:	4822      	ldr	r0, [pc, #136]	; (8006774 <HAL_TIM_IC_Init+0xf0>)
 80066ea:	f44f 61f8 	mov.w	r1, #1984	; 0x7c0
 80066ee:	f7fb ffe5 	bl	80026bc <assert_failed>
 80066f2:	6923      	ldr	r3, [r4, #16]
 80066f4:	f433 7280 	bics.w	r2, r3, #256	; 0x100
 80066f8:	d007      	beq.n	800670a <HAL_TIM_IC_Init+0x86>
 80066fa:	f5b3 7f00 	cmp.w	r3, #512	; 0x200
 80066fe:	d004      	beq.n	800670a <HAL_TIM_IC_Init+0x86>
 8006700:	481c      	ldr	r0, [pc, #112]	; (8006774 <HAL_TIM_IC_Init+0xf0>)
 8006702:	f240 71c1 	movw	r1, #1985	; 0x7c1
 8006706:	f7fb ffd9 	bl	80026bc <assert_failed>
 800670a:	69a3      	ldr	r3, [r4, #24]
 800670c:	f033 0380 	bics.w	r3, r3, #128	; 0x80
 8006710:	d004      	beq.n	800671c <HAL_TIM_IC_Init+0x98>
 8006712:	4818      	ldr	r0, [pc, #96]	; (8006774 <HAL_TIM_IC_Init+0xf0>)
 8006714:	f240 71c2 	movw	r1, #1986	; 0x7c2
 8006718:	f7fb ffd0 	bl	80026bc <assert_failed>
 800671c:	f894 303d 	ldrb.w	r3, [r4, #61]	; 0x3d
 8006720:	f003 02ff 	and.w	r2, r3, #255	; 0xff
 8006724:	b923      	cbnz	r3, 8006730 <HAL_TIM_IC_Init+0xac>
 8006726:	f884 203c 	strb.w	r2, [r4, #60]	; 0x3c
 800672a:	4620      	mov	r0, r4
 800672c:	f7ff fd43 	bl	80061b6 <HAL_TIM_IC_MspInit>
 8006730:	2302      	movs	r3, #2
 8006732:	6820      	ldr	r0, [r4, #0]
 8006734:	f884 303d 	strb.w	r3, [r4, #61]	; 0x3d
 8006738:	1d21      	adds	r1, r4, #4
 800673a:	f7ff fe61 	bl	8006400 <TIM_Base_SetConfig>
 800673e:	2301      	movs	r3, #1
 8006740:	f884 3046 	strb.w	r3, [r4, #70]	; 0x46
 8006744:	2000      	movs	r0, #0
 8006746:	f884 303e 	strb.w	r3, [r4, #62]	; 0x3e
 800674a:	f884 303f 	strb.w	r3, [r4, #63]	; 0x3f
 800674e:	f884 3040 	strb.w	r3, [r4, #64]	; 0x40
 8006752:	f884 3041 	strb.w	r3, [r4, #65]	; 0x41
 8006756:	f884 3042 	strb.w	r3, [r4, #66]	; 0x42
 800675a:	f884 3043 	strb.w	r3, [r4, #67]	; 0x43
 800675e:	f884 3044 	strb.w	r3, [r4, #68]	; 0x44
 8006762:	f884 3045 	strb.w	r3, [r4, #69]	; 0x45
 8006766:	f884 303d 	strb.w	r3, [r4, #61]	; 0x3d
 800676a:	bd10      	pop	{r4, pc}
 800676c:	2001      	movs	r0, #1
 800676e:	e7fc      	b.n	800676a <HAL_TIM_IC_Init+0xe6>
 8006770:	40010000 	.word	0x40010000
 8006774:	0800989a 	.word	0x0800989a

08006778 <TIM_OC2_SetConfig>:
 8006778:	6a03      	ldr	r3, [r0, #32]
 800677a:	f023 0310 	bic.w	r3, r3, #16
 800677e:	e92d 41f0 	stmdb	sp!, {r4, r5, r6, r7, r8, lr}
 8006782:	6203      	str	r3, [r0, #32]
 8006784:	6a05      	ldr	r5, [r0, #32]
 8006786:	f8d0 8004 	ldr.w	r8, [r0, #4]
 800678a:	6986      	ldr	r6, [r0, #24]
 800678c:	680b      	ldr	r3, [r1, #0]
 800678e:	f426 46e6 	bic.w	r6, r6, #29440	; 0x7300
 8006792:	ea46 2603 	orr.w	r6, r6, r3, lsl #8
 8006796:	688b      	ldr	r3, [r1, #8]
 8006798:	f025 0520 	bic.w	r5, r5, #32
 800679c:	ea45 1503 	orr.w	r5, r5, r3, lsl #4
 80067a0:	4b1a      	ldr	r3, [pc, #104]	; (800680c <TIM_OC2_SetConfig+0x94>)
 80067a2:	4298      	cmp	r0, r3
 80067a4:	4604      	mov	r4, r0
 80067a6:	460f      	mov	r7, r1
 80067a8:	d128      	bne.n	80067fc <TIM_OC2_SetConfig+0x84>
 80067aa:	68cb      	ldr	r3, [r1, #12]
 80067ac:	f033 0308 	bics.w	r3, r3, #8
 80067b0:	d004      	beq.n	80067bc <TIM_OC2_SetConfig+0x44>
 80067b2:	4817      	ldr	r0, [pc, #92]	; (8006810 <TIM_OC2_SetConfig+0x98>)
 80067b4:	f641 3116 	movw	r1, #6934	; 0x1b16
 80067b8:	f7fb ff80 	bl	80026bc <assert_failed>
 80067bc:	68fb      	ldr	r3, [r7, #12]
 80067be:	f025 0580 	bic.w	r5, r5, #128	; 0x80
 80067c2:	ea45 1503 	orr.w	r5, r5, r3, lsl #4
 80067c6:	69bb      	ldr	r3, [r7, #24]
 80067c8:	f433 7300 	bics.w	r3, r3, #512	; 0x200
 80067cc:	f025 0540 	bic.w	r5, r5, #64	; 0x40
 80067d0:	d004      	beq.n	80067dc <TIM_OC2_SetConfig+0x64>
 80067d2:	480f      	ldr	r0, [pc, #60]	; (8006810 <TIM_OC2_SetConfig+0x98>)
 80067d4:	f641 3124 	movw	r1, #6948	; 0x1b24
 80067d8:	f7fb ff70 	bl	80026bc <assert_failed>
 80067dc:	697b      	ldr	r3, [r7, #20]
 80067de:	f433 7380 	bics.w	r3, r3, #256	; 0x100
 80067e2:	d004      	beq.n	80067ee <TIM_OC2_SetConfig+0x76>
 80067e4:	480a      	ldr	r0, [pc, #40]	; (8006810 <TIM_OC2_SetConfig+0x98>)
 80067e6:	f641 3125 	movw	r1, #6949	; 0x1b25
 80067ea:	f7fb ff67 	bl	80026bc <assert_failed>
 80067ee:	e9d7 3205 	ldrd	r3, r2, [r7, #20]
 80067f2:	f428 6840 	bic.w	r8, r8, #3072	; 0xc00
 80067f6:	4313      	orrs	r3, r2
 80067f8:	ea48 0883 	orr.w	r8, r8, r3, lsl #2
 80067fc:	687b      	ldr	r3, [r7, #4]
 80067fe:	f8c4 8004 	str.w	r8, [r4, #4]
 8006802:	61a6      	str	r6, [r4, #24]
 8006804:	63a3      	str	r3, [r4, #56]	; 0x38
 8006806:	6225      	str	r5, [r4, #32]
 8006808:	e8bd 81f0 	ldmia.w	sp!, {r4, r5, r6, r7, r8, pc}
 800680c:	40010000 	.word	0x40010000
 8006810:	0800989a 	.word	0x0800989a

08006814 <HAL_TIM_PWM_ConfigChannel>:
 8006814:	f032 030c 	bics.w	r3, r2, #12
 8006818:	b570      	push	{r4, r5, r6, lr}
 800681a:	4604      	mov	r4, r0
 800681c:	460d      	mov	r5, r1
 800681e:	4616      	mov	r6, r2
 8006820:	d006      	beq.n	8006830 <HAL_TIM_PWM_ConfigChannel+0x1c>
 8006822:	2a3c      	cmp	r2, #60	; 0x3c
 8006824:	d004      	beq.n	8006830 <HAL_TIM_PWM_ConfigChannel+0x1c>
 8006826:	4878      	ldr	r0, [pc, #480]	; (8006a08 <HAL_TIM_PWM_ConfigChannel+0x1f4>)
 8006828:	f241 0177 	movw	r1, #4215	; 0x1077
 800682c:	f7fb ff46 	bl	80026bc <assert_failed>
 8006830:	682b      	ldr	r3, [r5, #0]
 8006832:	f023 0310 	bic.w	r3, r3, #16
 8006836:	2b60      	cmp	r3, #96	; 0x60
 8006838:	d004      	beq.n	8006844 <HAL_TIM_PWM_ConfigChannel+0x30>
 800683a:	4873      	ldr	r0, [pc, #460]	; (8006a08 <HAL_TIM_PWM_ConfigChannel+0x1f4>)
 800683c:	f241 0178 	movw	r1, #4216	; 0x1078
 8006840:	f7fb ff3c 	bl	80026bc <assert_failed>
 8006844:	68ab      	ldr	r3, [r5, #8]
 8006846:	f033 0302 	bics.w	r3, r3, #2
 800684a:	d004      	beq.n	8006856 <HAL_TIM_PWM_ConfigChannel+0x42>
 800684c:	486e      	ldr	r0, [pc, #440]	; (8006a08 <HAL_TIM_PWM_ConfigChannel+0x1f4>)
 800684e:	f241 0179 	movw	r1, #4217	; 0x1079
 8006852:	f7fb ff33 	bl	80026bc <assert_failed>
 8006856:	692b      	ldr	r3, [r5, #16]
 8006858:	f033 0304 	bics.w	r3, r3, #4
 800685c:	d004      	beq.n	8006868 <HAL_TIM_PWM_ConfigChannel+0x54>
 800685e:	486a      	ldr	r0, [pc, #424]	; (8006a08 <HAL_TIM_PWM_ConfigChannel+0x1f4>)
 8006860:	f241 017a 	movw	r1, #4218	; 0x107a
 8006864:	f7fb ff2a 	bl	80026bc <assert_failed>
 8006868:	f894 303c 	ldrb.w	r3, [r4, #60]	; 0x3c
 800686c:	2b01      	cmp	r3, #1
 800686e:	f000 80c9 	beq.w	8006a04 <HAL_TIM_PWM_ConfigChannel+0x1f0>
 8006872:	2001      	movs	r0, #1
 8006874:	2e08      	cmp	r6, #8
 8006876:	f884 003c 	strb.w	r0, [r4, #60]	; 0x3c
 800687a:	f000 8099 	beq.w	80069b0 <HAL_TIM_PWM_ConfigChannel+0x19c>
 800687e:	d806      	bhi.n	800688e <HAL_TIM_PWM_ConfigChannel+0x7a>
 8006880:	b38e      	cbz	r6, 80068e6 <HAL_TIM_PWM_ConfigChannel+0xd2>
 8006882:	2e04      	cmp	r6, #4
 8006884:	d066      	beq.n	8006954 <HAL_TIM_PWM_ConfigChannel+0x140>
 8006886:	2300      	movs	r3, #0
 8006888:	f884 303c 	strb.w	r3, [r4, #60]	; 0x3c
 800688c:	bd70      	pop	{r4, r5, r6, pc}
 800688e:	2e0c      	cmp	r6, #12
 8006890:	d1f9      	bne.n	8006886 <HAL_TIM_PWM_ConfigChannel+0x72>
 8006892:	6823      	ldr	r3, [r4, #0]
 8006894:	4a5d      	ldr	r2, [pc, #372]	; (8006a0c <HAL_TIM_PWM_ConfigChannel+0x1f8>)
 8006896:	4293      	cmp	r3, r2
 8006898:	d013      	beq.n	80068c2 <HAL_TIM_PWM_ConfigChannel+0xae>
 800689a:	f1b3 4f80 	cmp.w	r3, #1073741824	; 0x40000000
 800689e:	d010      	beq.n	80068c2 <HAL_TIM_PWM_ConfigChannel+0xae>
 80068a0:	f5a2 427c 	sub.w	r2, r2, #64512	; 0xfc00
 80068a4:	4293      	cmp	r3, r2
 80068a6:	d00c      	beq.n	80068c2 <HAL_TIM_PWM_ConfigChannel+0xae>
 80068a8:	f502 6280 	add.w	r2, r2, #1024	; 0x400
 80068ac:	4293      	cmp	r3, r2
 80068ae:	d008      	beq.n	80068c2 <HAL_TIM_PWM_ConfigChannel+0xae>
 80068b0:	f502 6280 	add.w	r2, r2, #1024	; 0x400
 80068b4:	4293      	cmp	r3, r2
 80068b6:	d004      	beq.n	80068c2 <HAL_TIM_PWM_ConfigChannel+0xae>
 80068b8:	4853      	ldr	r0, [pc, #332]	; (8006a08 <HAL_TIM_PWM_ConfigChannel+0x1f4>)
 80068ba:	f241 01b7 	movw	r1, #4279	; 0x10b7
 80068be:	f7fb fefd 	bl	80026bc <assert_failed>
 80068c2:	4629      	mov	r1, r5
 80068c4:	6820      	ldr	r0, [r4, #0]
 80068c6:	f7ff fba9 	bl	800601c <TIM_OC4_SetConfig>
 80068ca:	6823      	ldr	r3, [r4, #0]
 80068cc:	6929      	ldr	r1, [r5, #16]
 80068ce:	69da      	ldr	r2, [r3, #28]
 80068d0:	f442 6200 	orr.w	r2, r2, #2048	; 0x800
 80068d4:	61da      	str	r2, [r3, #28]
 80068d6:	69da      	ldr	r2, [r3, #28]
 80068d8:	f422 6280 	bic.w	r2, r2, #1024	; 0x400
 80068dc:	61da      	str	r2, [r3, #28]
 80068de:	69da      	ldr	r2, [r3, #28]
 80068e0:	ea42 2201 	orr.w	r2, r2, r1, lsl #8
 80068e4:	e08c      	b.n	8006a00 <HAL_TIM_PWM_ConfigChannel+0x1ec>
 80068e6:	6823      	ldr	r3, [r4, #0]
 80068e8:	4a48      	ldr	r2, [pc, #288]	; (8006a0c <HAL_TIM_PWM_ConfigChannel+0x1f8>)
 80068ea:	4293      	cmp	r3, r2
 80068ec:	d01f      	beq.n	800692e <HAL_TIM_PWM_ConfigChannel+0x11a>
 80068ee:	f1b3 4f80 	cmp.w	r3, #1073741824	; 0x40000000
 80068f2:	d01c      	beq.n	800692e <HAL_TIM_PWM_ConfigChannel+0x11a>
 80068f4:	f5a2 427c 	sub.w	r2, r2, #64512	; 0xfc00
 80068f8:	4293      	cmp	r3, r2
 80068fa:	d018      	beq.n	800692e <HAL_TIM_PWM_ConfigChannel+0x11a>
 80068fc:	f502 6280 	add.w	r2, r2, #1024	; 0x400
 8006900:	4293      	cmp	r3, r2
 8006902:	d014      	beq.n	800692e <HAL_TIM_PWM_ConfigChannel+0x11a>
 8006904:	f502 6280 	add.w	r2, r2, #1024	; 0x400
 8006908:	4293      	cmp	r3, r2
 800690a:	d010      	beq.n	800692e <HAL_TIM_PWM_ConfigChannel+0x11a>
 800690c:	f502 329a 	add.w	r2, r2, #78848	; 0x13400
 8006910:	4293      	cmp	r3, r2
 8006912:	d00c      	beq.n	800692e <HAL_TIM_PWM_ConfigChannel+0x11a>
 8006914:	f502 6280 	add.w	r2, r2, #1024	; 0x400
 8006918:	4293      	cmp	r3, r2
 800691a:	d008      	beq.n	800692e <HAL_TIM_PWM_ConfigChannel+0x11a>
 800691c:	f502 6280 	add.w	r2, r2, #1024	; 0x400
 8006920:	4293      	cmp	r3, r2
 8006922:	d004      	beq.n	800692e <HAL_TIM_PWM_ConfigChannel+0x11a>
 8006924:	4838      	ldr	r0, [pc, #224]	; (8006a08 <HAL_TIM_PWM_ConfigChannel+0x1f4>)
 8006926:	f241 0184 	movw	r1, #4228	; 0x1084
 800692a:	f7fb fec7 	bl	80026bc <assert_failed>
 800692e:	4629      	mov	r1, r5
 8006930:	6820      	ldr	r0, [r4, #0]
 8006932:	f7ff fad9 	bl	8005ee8 <TIM_OC1_SetConfig>
 8006936:	6823      	ldr	r3, [r4, #0]
 8006938:	6929      	ldr	r1, [r5, #16]
 800693a:	699a      	ldr	r2, [r3, #24]
 800693c:	f042 0208 	orr.w	r2, r2, #8
 8006940:	619a      	str	r2, [r3, #24]
 8006942:	699a      	ldr	r2, [r3, #24]
 8006944:	f022 0204 	bic.w	r2, r2, #4
 8006948:	619a      	str	r2, [r3, #24]
 800694a:	699a      	ldr	r2, [r3, #24]
 800694c:	430a      	orrs	r2, r1
 800694e:	619a      	str	r2, [r3, #24]
 8006950:	2000      	movs	r0, #0
 8006952:	e798      	b.n	8006886 <HAL_TIM_PWM_ConfigChannel+0x72>
 8006954:	6823      	ldr	r3, [r4, #0]
 8006956:	4a2d      	ldr	r2, [pc, #180]	; (8006a0c <HAL_TIM_PWM_ConfigChannel+0x1f8>)
 8006958:	4293      	cmp	r3, r2
 800695a:	d017      	beq.n	800698c <HAL_TIM_PWM_ConfigChannel+0x178>
 800695c:	f1b3 4f80 	cmp.w	r3, #1073741824	; 0x40000000
 8006960:	d014      	beq.n	800698c <HAL_TIM_PWM_ConfigChannel+0x178>
 8006962:	f5a2 427c 	sub.w	r2, r2, #64512	; 0xfc00
 8006966:	4293      	cmp	r3, r2
 8006968:	d010      	beq.n	800698c <HAL_TIM_PWM_ConfigChannel+0x178>
 800696a:	f502 6280 	add.w	r2, r2, #1024	; 0x400
 800696e:	4293      	cmp	r3, r2
 8006970:	d00c      	beq.n	800698c <HAL_TIM_PWM_ConfigChannel+0x178>
 8006972:	f502 6280 	add.w	r2, r2, #1024	; 0x400
 8006976:	4293      	cmp	r3, r2
 8006978:	d008      	beq.n	800698c <HAL_TIM_PWM_ConfigChannel+0x178>
 800697a:	f502 329a 	add.w	r2, r2, #78848	; 0x13400
 800697e:	4293      	cmp	r3, r2
 8006980:	d004      	beq.n	800698c <HAL_TIM_PWM_ConfigChannel+0x178>
 8006982:	4821      	ldr	r0, [pc, #132]	; (8006a08 <HAL_TIM_PWM_ConfigChannel+0x1f4>)
 8006984:	f241 0195 	movw	r1, #4245	; 0x1095
 8006988:	f7fb fe98 	bl	80026bc <assert_failed>
 800698c:	4629      	mov	r1, r5
 800698e:	6820      	ldr	r0, [r4, #0]
 8006990:	f7ff fef2 	bl	8006778 <TIM_OC2_SetConfig>
 8006994:	6823      	ldr	r3, [r4, #0]
 8006996:	6929      	ldr	r1, [r5, #16]
 8006998:	699a      	ldr	r2, [r3, #24]
 800699a:	f442 6200 	orr.w	r2, r2, #2048	; 0x800
 800699e:	619a      	str	r2, [r3, #24]
 80069a0:	699a      	ldr	r2, [r3, #24]
 80069a2:	f422 6280 	bic.w	r2, r2, #1024	; 0x400
 80069a6:	619a      	str	r2, [r3, #24]
 80069a8:	699a      	ldr	r2, [r3, #24]
 80069aa:	ea42 2201 	orr.w	r2, r2, r1, lsl #8
 80069ae:	e7ce      	b.n	800694e <HAL_TIM_PWM_ConfigChannel+0x13a>
 80069b0:	6823      	ldr	r3, [r4, #0]
 80069b2:	4a16      	ldr	r2, [pc, #88]	; (8006a0c <HAL_TIM_PWM_ConfigChannel+0x1f8>)
 80069b4:	4293      	cmp	r3, r2
 80069b6:	d013      	beq.n	80069e0 <HAL_TIM_PWM_ConfigChannel+0x1cc>
 80069b8:	f1b3 4f80 	cmp.w	r3, #1073741824	; 0x40000000
 80069bc:	d010      	beq.n	80069e0 <HAL_TIM_PWM_ConfigChannel+0x1cc>
 80069be:	f5a2 427c 	sub.w	r2, r2, #64512	; 0xfc00
 80069c2:	4293      	cmp	r3, r2
 80069c4:	d00c      	beq.n	80069e0 <HAL_TIM_PWM_ConfigChannel+0x1cc>
 80069c6:	f502 6280 	add.w	r2, r2, #1024	; 0x400
 80069ca:	4293      	cmp	r3, r2
 80069cc:	d008      	beq.n	80069e0 <HAL_TIM_PWM_ConfigChannel+0x1cc>
 80069ce:	f502 6280 	add.w	r2, r2, #1024	; 0x400
 80069d2:	4293      	cmp	r3, r2
 80069d4:	d004      	beq.n	80069e0 <HAL_TIM_PWM_ConfigChannel+0x1cc>
 80069d6:	480c      	ldr	r0, [pc, #48]	; (8006a08 <HAL_TIM_PWM_ConfigChannel+0x1f4>)
 80069d8:	f241 01a6 	movw	r1, #4262	; 0x10a6
 80069dc:	f7fb fe6e 	bl	80026bc <assert_failed>
 80069e0:	4629      	mov	r1, r5
 80069e2:	6820      	ldr	r0, [r4, #0]
 80069e4:	f7ff facc 	bl	8005f80 <TIM_OC3_SetConfig>
 80069e8:	6823      	ldr	r3, [r4, #0]
 80069ea:	6929      	ldr	r1, [r5, #16]
 80069ec:	69da      	ldr	r2, [r3, #28]
 80069ee:	f042 0208 	orr.w	r2, r2, #8
 80069f2:	61da      	str	r2, [r3, #28]
 80069f4:	69da      	ldr	r2, [r3, #28]
 80069f6:	f022 0204 	bic.w	r2, r2, #4
 80069fa:	61da      	str	r2, [r3, #28]
 80069fc:	69da      	ldr	r2, [r3, #28]
 80069fe:	430a      	orrs	r2, r1
 8006a00:	61da      	str	r2, [r3, #28]
 8006a02:	e7a5      	b.n	8006950 <HAL_TIM_PWM_ConfigChannel+0x13c>
 8006a04:	2002      	movs	r0, #2
 8006a06:	e741      	b.n	800688c <HAL_TIM_PWM_ConfigChannel+0x78>
 8006a08:	0800989a 	.word	0x0800989a
 8006a0c:	40010000 	.word	0x40010000

08006a10 <TIM_TI1_SetConfig>:
 8006a10:	b570      	push	{r4, r5, r6, lr}
 8006a12:	6a04      	ldr	r4, [r0, #32]
 8006a14:	4e16      	ldr	r6, [pc, #88]	; (8006a70 <TIM_TI1_SetConfig+0x60>)
 8006a16:	f024 0401 	bic.w	r4, r4, #1
 8006a1a:	6204      	str	r4, [r0, #32]
 8006a1c:	42b0      	cmp	r0, r6
 8006a1e:	6984      	ldr	r4, [r0, #24]
 8006a20:	6a05      	ldr	r5, [r0, #32]
 8006a22:	d021      	beq.n	8006a68 <TIM_TI1_SetConfig+0x58>
 8006a24:	f1b0 4f80 	cmp.w	r0, #1073741824	; 0x40000000
 8006a28:	d01e      	beq.n	8006a68 <TIM_TI1_SetConfig+0x58>
 8006a2a:	f5a6 467c 	sub.w	r6, r6, #64512	; 0xfc00
 8006a2e:	42b0      	cmp	r0, r6
 8006a30:	d01a      	beq.n	8006a68 <TIM_TI1_SetConfig+0x58>
 8006a32:	f506 6680 	add.w	r6, r6, #1024	; 0x400
 8006a36:	42b0      	cmp	r0, r6
 8006a38:	d016      	beq.n	8006a68 <TIM_TI1_SetConfig+0x58>
 8006a3a:	f506 6680 	add.w	r6, r6, #1024	; 0x400
 8006a3e:	42b0      	cmp	r0, r6
 8006a40:	d012      	beq.n	8006a68 <TIM_TI1_SetConfig+0x58>
 8006a42:	f506 369a 	add.w	r6, r6, #78848	; 0x13400
 8006a46:	42b0      	cmp	r0, r6
 8006a48:	d00e      	beq.n	8006a68 <TIM_TI1_SetConfig+0x58>
 8006a4a:	f044 0201 	orr.w	r2, r4, #1
 8006a4e:	011b      	lsls	r3, r3, #4
 8006a50:	b2db      	uxtb	r3, r3
 8006a52:	f022 02f0 	bic.w	r2, r2, #240	; 0xf0
 8006a56:	431a      	orrs	r2, r3
 8006a58:	f001 010a 	and.w	r1, r1, #10
 8006a5c:	f025 030a 	bic.w	r3, r5, #10
 8006a60:	4319      	orrs	r1, r3
 8006a62:	6182      	str	r2, [r0, #24]
 8006a64:	6201      	str	r1, [r0, #32]
 8006a66:	bd70      	pop	{r4, r5, r6, pc}
 8006a68:	f024 0403 	bic.w	r4, r4, #3
 8006a6c:	4322      	orrs	r2, r4
 8006a6e:	e7ee      	b.n	8006a4e <TIM_TI1_SetConfig+0x3e>
 8006a70:	40010000 	.word	0x40010000

08006a74 <HAL_TIM_IC_ConfigChannel>:
 8006a74:	b5f8      	push	{r3, r4, r5, r6, r7, lr}
 8006a76:	6803      	ldr	r3, [r0, #0]
 8006a78:	4616      	mov	r6, r2
 8006a7a:	4a93      	ldr	r2, [pc, #588]	; (8006cc8 <HAL_TIM_IC_ConfigChannel+0x254>)
 8006a7c:	4293      	cmp	r3, r2
 8006a7e:	4605      	mov	r5, r0
 8006a80:	460c      	mov	r4, r1
 8006a82:	d01f      	beq.n	8006ac4 <HAL_TIM_IC_ConfigChannel+0x50>
 8006a84:	f1b3 4f80 	cmp.w	r3, #1073741824	; 0x40000000
 8006a88:	d01c      	beq.n	8006ac4 <HAL_TIM_IC_ConfigChannel+0x50>
 8006a8a:	f5a2 427c 	sub.w	r2, r2, #64512	; 0xfc00
 8006a8e:	4293      	cmp	r3, r2
 8006a90:	d018      	beq.n	8006ac4 <HAL_TIM_IC_ConfigChannel+0x50>
 8006a92:	f502 6280 	add.w	r2, r2, #1024	; 0x400
 8006a96:	4293      	cmp	r3, r2
 8006a98:	d014      	beq.n	8006ac4 <HAL_TIM_IC_ConfigChannel+0x50>
 8006a9a:	f502 6280 	add.w	r2, r2, #1024	; 0x400
 8006a9e:	4293      	cmp	r3, r2
 8006aa0:	d010      	beq.n	8006ac4 <HAL_TIM_IC_ConfigChannel+0x50>
 8006aa2:	f502 329a 	add.w	r2, r2, #78848	; 0x13400
 8006aa6:	4293      	cmp	r3, r2
 8006aa8:	d00c      	beq.n	8006ac4 <HAL_TIM_IC_ConfigChannel+0x50>
 8006aaa:	f502 6280 	add.w	r2, r2, #1024	; 0x400
 8006aae:	4293      	cmp	r3, r2
 8006ab0:	d008      	beq.n	8006ac4 <HAL_TIM_IC_ConfigChannel+0x50>
 8006ab2:	f502 6280 	add.w	r2, r2, #1024	; 0x400
 8006ab6:	4293      	cmp	r3, r2
 8006ab8:	d004      	beq.n	8006ac4 <HAL_TIM_IC_ConfigChannel+0x50>
 8006aba:	4884      	ldr	r0, [pc, #528]	; (8006ccc <HAL_TIM_IC_ConfigChannel+0x258>)
 8006abc:	f241 0112 	movw	r1, #4114	; 0x1012
 8006ac0:	f7fb fdfc 	bl	80026bc <assert_failed>
 8006ac4:	6823      	ldr	r3, [r4, #0]
 8006ac6:	f033 0202 	bics.w	r2, r3, #2
 8006aca:	d006      	beq.n	8006ada <HAL_TIM_IC_ConfigChannel+0x66>
 8006acc:	2b0a      	cmp	r3, #10
 8006ace:	d004      	beq.n	8006ada <HAL_TIM_IC_ConfigChannel+0x66>
 8006ad0:	487e      	ldr	r0, [pc, #504]	; (8006ccc <HAL_TIM_IC_ConfigChannel+0x258>)
 8006ad2:	f241 0113 	movw	r1, #4115	; 0x1013
 8006ad6:	f7fb fdf1 	bl	80026bc <assert_failed>
 8006ada:	6863      	ldr	r3, [r4, #4]
 8006adc:	3b01      	subs	r3, #1
 8006ade:	2b02      	cmp	r3, #2
 8006ae0:	d904      	bls.n	8006aec <HAL_TIM_IC_ConfigChannel+0x78>
 8006ae2:	487a      	ldr	r0, [pc, #488]	; (8006ccc <HAL_TIM_IC_ConfigChannel+0x258>)
 8006ae4:	f241 0114 	movw	r1, #4116	; 0x1014
 8006ae8:	f7fb fde8 	bl	80026bc <assert_failed>
 8006aec:	68a3      	ldr	r3, [r4, #8]
 8006aee:	f033 030c 	bics.w	r3, r3, #12
 8006af2:	d004      	beq.n	8006afe <HAL_TIM_IC_ConfigChannel+0x8a>
 8006af4:	4875      	ldr	r0, [pc, #468]	; (8006ccc <HAL_TIM_IC_ConfigChannel+0x258>)
 8006af6:	f241 0115 	movw	r1, #4117	; 0x1015
 8006afa:	f7fb fddf 	bl	80026bc <assert_failed>
 8006afe:	68e3      	ldr	r3, [r4, #12]
 8006b00:	2b0f      	cmp	r3, #15
 8006b02:	d904      	bls.n	8006b0e <HAL_TIM_IC_ConfigChannel+0x9a>
 8006b04:	4871      	ldr	r0, [pc, #452]	; (8006ccc <HAL_TIM_IC_ConfigChannel+0x258>)
 8006b06:	f241 0116 	movw	r1, #4118	; 0x1016
 8006b0a:	f7fb fdd7 	bl	80026bc <assert_failed>
 8006b0e:	f895 303c 	ldrb.w	r3, [r5, #60]	; 0x3c
 8006b12:	2b01      	cmp	r3, #1
 8006b14:	f000 80d6 	beq.w	8006cc4 <HAL_TIM_IC_ConfigChannel+0x250>
 8006b18:	2001      	movs	r0, #1
 8006b1a:	f885 003c 	strb.w	r0, [r5, #60]	; 0x3c
 8006b1e:	b99e      	cbnz	r6, 8006b48 <HAL_TIM_IC_ConfigChannel+0xd4>
 8006b20:	e9d4 1200 	ldrd	r1, r2, [r4]
 8006b24:	68e3      	ldr	r3, [r4, #12]
 8006b26:	6828      	ldr	r0, [r5, #0]
 8006b28:	f7ff ff72 	bl	8006a10 <TIM_TI1_SetConfig>
 8006b2c:	682b      	ldr	r3, [r5, #0]
 8006b2e:	68a1      	ldr	r1, [r4, #8]
 8006b30:	699a      	ldr	r2, [r3, #24]
 8006b32:	f022 020c 	bic.w	r2, r2, #12
 8006b36:	619a      	str	r2, [r3, #24]
 8006b38:	699a      	ldr	r2, [r3, #24]
 8006b3a:	430a      	orrs	r2, r1
 8006b3c:	619a      	str	r2, [r3, #24]
 8006b3e:	2000      	movs	r0, #0
 8006b40:	2300      	movs	r3, #0
 8006b42:	f885 303c 	strb.w	r3, [r5, #60]	; 0x3c
 8006b46:	bdf8      	pop	{r3, r4, r5, r6, r7, pc}
 8006b48:	2e04      	cmp	r6, #4
 8006b4a:	d13f      	bne.n	8006bcc <HAL_TIM_IC_ConfigChannel+0x158>
 8006b4c:	682b      	ldr	r3, [r5, #0]
 8006b4e:	4a5e      	ldr	r2, [pc, #376]	; (8006cc8 <HAL_TIM_IC_ConfigChannel+0x254>)
 8006b50:	4293      	cmp	r3, r2
 8006b52:	d017      	beq.n	8006b84 <HAL_TIM_IC_ConfigChannel+0x110>
 8006b54:	f1b3 4f80 	cmp.w	r3, #1073741824	; 0x40000000
 8006b58:	d014      	beq.n	8006b84 <HAL_TIM_IC_ConfigChannel+0x110>
 8006b5a:	f5a2 427c 	sub.w	r2, r2, #64512	; 0xfc00
 8006b5e:	4293      	cmp	r3, r2
 8006b60:	d010      	beq.n	8006b84 <HAL_TIM_IC_ConfigChannel+0x110>
 8006b62:	f502 6280 	add.w	r2, r2, #1024	; 0x400
 8006b66:	4293      	cmp	r3, r2
 8006b68:	d00c      	beq.n	8006b84 <HAL_TIM_IC_ConfigChannel+0x110>
 8006b6a:	f502 6280 	add.w	r2, r2, #1024	; 0x400
 8006b6e:	4293      	cmp	r3, r2
 8006b70:	d008      	beq.n	8006b84 <HAL_TIM_IC_ConfigChannel+0x110>
 8006b72:	f502 329a 	add.w	r2, r2, #78848	; 0x13400
 8006b76:	4293      	cmp	r3, r2
 8006b78:	d004      	beq.n	8006b84 <HAL_TIM_IC_ConfigChannel+0x110>
 8006b7a:	4854      	ldr	r0, [pc, #336]	; (8006ccc <HAL_TIM_IC_ConfigChannel+0x258>)
 8006b7c:	f241 012c 	movw	r1, #4140	; 0x102c
 8006b80:	f7fb fd9c 	bl	80026bc <assert_failed>
 8006b84:	682b      	ldr	r3, [r5, #0]
 8006b86:	68e1      	ldr	r1, [r4, #12]
 8006b88:	6a1e      	ldr	r6, [r3, #32]
 8006b8a:	f026 0610 	bic.w	r6, r6, #16
 8006b8e:	e9d4 2700 	ldrd	r2, r7, [r4]
 8006b92:	621e      	str	r6, [r3, #32]
 8006b94:	6998      	ldr	r0, [r3, #24]
 8006b96:	6a1e      	ldr	r6, [r3, #32]
 8006b98:	f420 7040 	bic.w	r0, r0, #768	; 0x300
 8006b9c:	ea40 2007 	orr.w	r0, r0, r7, lsl #8
 8006ba0:	0309      	lsls	r1, r1, #12
 8006ba2:	f420 4070 	bic.w	r0, r0, #61440	; 0xf000
 8006ba6:	b289      	uxth	r1, r1
 8006ba8:	0112      	lsls	r2, r2, #4
 8006baa:	4301      	orrs	r1, r0
 8006bac:	f002 02a0 	and.w	r2, r2, #160	; 0xa0
 8006bb0:	f026 00a0 	bic.w	r0, r6, #160	; 0xa0
 8006bb4:	4302      	orrs	r2, r0
 8006bb6:	6199      	str	r1, [r3, #24]
 8006bb8:	621a      	str	r2, [r3, #32]
 8006bba:	699a      	ldr	r2, [r3, #24]
 8006bbc:	68a1      	ldr	r1, [r4, #8]
 8006bbe:	f422 6240 	bic.w	r2, r2, #3072	; 0xc00
 8006bc2:	619a      	str	r2, [r3, #24]
 8006bc4:	699a      	ldr	r2, [r3, #24]
 8006bc6:	ea42 2201 	orr.w	r2, r2, r1, lsl #8
 8006bca:	e7b7      	b.n	8006b3c <HAL_TIM_IC_ConfigChannel+0xc8>
 8006bcc:	2e08      	cmp	r6, #8
 8006bce:	d13a      	bne.n	8006c46 <HAL_TIM_IC_ConfigChannel+0x1d2>
 8006bd0:	682b      	ldr	r3, [r5, #0]
 8006bd2:	4a3d      	ldr	r2, [pc, #244]	; (8006cc8 <HAL_TIM_IC_ConfigChannel+0x254>)
 8006bd4:	4293      	cmp	r3, r2
 8006bd6:	d013      	beq.n	8006c00 <HAL_TIM_IC_ConfigChannel+0x18c>
 8006bd8:	f1b3 4f80 	cmp.w	r3, #1073741824	; 0x40000000
 8006bdc:	d010      	beq.n	8006c00 <HAL_TIM_IC_ConfigChannel+0x18c>
 8006bde:	f5a2 427c 	sub.w	r2, r2, #64512	; 0xfc00
 8006be2:	4293      	cmp	r3, r2
 8006be4:	d00c      	beq.n	8006c00 <HAL_TIM_IC_ConfigChannel+0x18c>
 8006be6:	f502 6280 	add.w	r2, r2, #1024	; 0x400
 8006bea:	4293      	cmp	r3, r2
 8006bec:	d008      	beq.n	8006c00 <HAL_TIM_IC_ConfigChannel+0x18c>
 8006bee:	f502 6280 	add.w	r2, r2, #1024	; 0x400
 8006bf2:	4293      	cmp	r3, r2
 8006bf4:	d004      	beq.n	8006c00 <HAL_TIM_IC_ConfigChannel+0x18c>
 8006bf6:	4835      	ldr	r0, [pc, #212]	; (8006ccc <HAL_TIM_IC_ConfigChannel+0x258>)
 8006bf8:	f241 013c 	movw	r1, #4156	; 0x103c
 8006bfc:	f7fb fd5e 	bl	80026bc <assert_failed>
 8006c00:	682b      	ldr	r3, [r5, #0]
 8006c02:	68e1      	ldr	r1, [r4, #12]
 8006c04:	6a1e      	ldr	r6, [r3, #32]
 8006c06:	f426 7680 	bic.w	r6, r6, #256	; 0x100
 8006c0a:	e9d4 2000 	ldrd	r2, r0, [r4]
 8006c0e:	621e      	str	r6, [r3, #32]
 8006c10:	69df      	ldr	r7, [r3, #28]
 8006c12:	6a1e      	ldr	r6, [r3, #32]
 8006c14:	f027 0703 	bic.w	r7, r7, #3
 8006c18:	4338      	orrs	r0, r7
 8006c1a:	0109      	lsls	r1, r1, #4
 8006c1c:	f020 00f0 	bic.w	r0, r0, #240	; 0xf0
 8006c20:	b2c9      	uxtb	r1, r1
 8006c22:	0212      	lsls	r2, r2, #8
 8006c24:	4301      	orrs	r1, r0
 8006c26:	f402 6220 	and.w	r2, r2, #2560	; 0xa00
 8006c2a:	f426 6020 	bic.w	r0, r6, #2560	; 0xa00
 8006c2e:	4302      	orrs	r2, r0
 8006c30:	61d9      	str	r1, [r3, #28]
 8006c32:	621a      	str	r2, [r3, #32]
 8006c34:	69da      	ldr	r2, [r3, #28]
 8006c36:	68a1      	ldr	r1, [r4, #8]
 8006c38:	f022 020c 	bic.w	r2, r2, #12
 8006c3c:	61da      	str	r2, [r3, #28]
 8006c3e:	69da      	ldr	r2, [r3, #28]
 8006c40:	430a      	orrs	r2, r1
 8006c42:	61da      	str	r2, [r3, #28]
 8006c44:	e77b      	b.n	8006b3e <HAL_TIM_IC_ConfigChannel+0xca>
 8006c46:	2e0c      	cmp	r6, #12
 8006c48:	f47f af7a 	bne.w	8006b40 <HAL_TIM_IC_ConfigChannel+0xcc>
 8006c4c:	682b      	ldr	r3, [r5, #0]
 8006c4e:	4a1e      	ldr	r2, [pc, #120]	; (8006cc8 <HAL_TIM_IC_ConfigChannel+0x254>)
 8006c50:	4293      	cmp	r3, r2
 8006c52:	d013      	beq.n	8006c7c <HAL_TIM_IC_ConfigChannel+0x208>
 8006c54:	f1b3 4f80 	cmp.w	r3, #1073741824	; 0x40000000
 8006c58:	d010      	beq.n	8006c7c <HAL_TIM_IC_ConfigChannel+0x208>
 8006c5a:	f5a2 427c 	sub.w	r2, r2, #64512	; 0xfc00
 8006c5e:	4293      	cmp	r3, r2
 8006c60:	d00c      	beq.n	8006c7c <HAL_TIM_IC_ConfigChannel+0x208>
 8006c62:	f502 6280 	add.w	r2, r2, #1024	; 0x400
 8006c66:	4293      	cmp	r3, r2
 8006c68:	d008      	beq.n	8006c7c <HAL_TIM_IC_ConfigChannel+0x208>
 8006c6a:	f502 6280 	add.w	r2, r2, #1024	; 0x400
 8006c6e:	4293      	cmp	r3, r2
 8006c70:	d004      	beq.n	8006c7c <HAL_TIM_IC_ConfigChannel+0x208>
 8006c72:	4816      	ldr	r0, [pc, #88]	; (8006ccc <HAL_TIM_IC_ConfigChannel+0x258>)
 8006c74:	f241 014c 	movw	r1, #4172	; 0x104c
 8006c78:	f7fb fd20 	bl	80026bc <assert_failed>
 8006c7c:	682b      	ldr	r3, [r5, #0]
 8006c7e:	68e1      	ldr	r1, [r4, #12]
 8006c80:	6a1e      	ldr	r6, [r3, #32]
 8006c82:	f426 5680 	bic.w	r6, r6, #4096	; 0x1000
 8006c86:	e9d4 2700 	ldrd	r2, r7, [r4]
 8006c8a:	621e      	str	r6, [r3, #32]
 8006c8c:	69d8      	ldr	r0, [r3, #28]
 8006c8e:	6a1e      	ldr	r6, [r3, #32]
 8006c90:	f420 7040 	bic.w	r0, r0, #768	; 0x300
 8006c94:	ea40 2007 	orr.w	r0, r0, r7, lsl #8
 8006c98:	0309      	lsls	r1, r1, #12
 8006c9a:	f420 4070 	bic.w	r0, r0, #61440	; 0xf000
 8006c9e:	b289      	uxth	r1, r1
 8006ca0:	0312      	lsls	r2, r2, #12
 8006ca2:	4301      	orrs	r1, r0
 8006ca4:	f402 4220 	and.w	r2, r2, #40960	; 0xa000
 8006ca8:	f426 4020 	bic.w	r0, r6, #40960	; 0xa000
 8006cac:	4302      	orrs	r2, r0
 8006cae:	61d9      	str	r1, [r3, #28]
 8006cb0:	621a      	str	r2, [r3, #32]
 8006cb2:	69da      	ldr	r2, [r3, #28]
 8006cb4:	68a1      	ldr	r1, [r4, #8]
 8006cb6:	f422 6240 	bic.w	r2, r2, #3072	; 0xc00
 8006cba:	61da      	str	r2, [r3, #28]
 8006cbc:	69da      	ldr	r2, [r3, #28]
 8006cbe:	ea42 2201 	orr.w	r2, r2, r1, lsl #8
 8006cc2:	e7be      	b.n	8006c42 <HAL_TIM_IC_ConfigChannel+0x1ce>
 8006cc4:	2002      	movs	r0, #2
 8006cc6:	e73e      	b.n	8006b46 <HAL_TIM_IC_ConfigChannel+0xd2>
 8006cc8:	40010000 	.word	0x40010000
 8006ccc:	0800989a 	.word	0x0800989a

08006cd0 <TIM_ETR_SetConfig>:
 8006cd0:	b510      	push	{r4, lr}
 8006cd2:	6884      	ldr	r4, [r0, #8]
 8006cd4:	4311      	orrs	r1, r2
 8006cd6:	f424 447f 	bic.w	r4, r4, #65280	; 0xff00
 8006cda:	ea41 2303 	orr.w	r3, r1, r3, lsl #8
 8006cde:	4323      	orrs	r3, r4
 8006ce0:	6083      	str	r3, [r0, #8]
 8006ce2:	bd10      	pop	{r4, pc}

08006ce4 <HAL_TIM_ConfigClockSource>:
 8006ce4:	b570      	push	{r4, r5, r6, lr}
 8006ce6:	f890 303c 	ldrb.w	r3, [r0, #60]	; 0x3c
 8006cea:	2b01      	cmp	r3, #1
 8006cec:	4605      	mov	r5, r0
 8006cee:	460c      	mov	r4, r1
 8006cf0:	f04f 0302 	mov.w	r3, #2
 8006cf4:	f000 81f3 	beq.w	80070de <HAL_TIM_ConfigClockSource+0x3fa>
 8006cf8:	2201      	movs	r2, #1
 8006cfa:	f880 203c 	strb.w	r2, [r0, #60]	; 0x3c
 8006cfe:	f880 303d 	strb.w	r3, [r0, #61]	; 0x3d
 8006d02:	680b      	ldr	r3, [r1, #0]
 8006d04:	f5b3 5f80 	cmp.w	r3, #4096	; 0x1000
 8006d08:	d00c      	beq.n	8006d24 <HAL_TIM_ConfigClockSource+0x40>
 8006d0a:	f5b3 5f00 	cmp.w	r3, #8192	; 0x2000
 8006d0e:	d009      	beq.n	8006d24 <HAL_TIM_ConfigClockSource+0x40>
 8006d10:	f033 0330 	bics.w	r3, r3, #48	; 0x30
 8006d14:	d006      	beq.n	8006d24 <HAL_TIM_ConfigClockSource+0x40>
 8006d16:	2b40      	cmp	r3, #64	; 0x40
 8006d18:	d004      	beq.n	8006d24 <HAL_TIM_ConfigClockSource+0x40>
 8006d1a:	48a5      	ldr	r0, [pc, #660]	; (8006fb0 <HAL_TIM_ConfigClockSource+0x2cc>)
 8006d1c:	f241 41bb 	movw	r1, #5307	; 0x14bb
 8006d20:	f7fb fccc 	bl	80026bc <assert_failed>
 8006d24:	682b      	ldr	r3, [r5, #0]
 8006d26:	689a      	ldr	r2, [r3, #8]
 8006d28:	f422 427f 	bic.w	r2, r2, #65280	; 0xff00
 8006d2c:	f022 0277 	bic.w	r2, r2, #119	; 0x77
 8006d30:	609a      	str	r2, [r3, #8]
 8006d32:	6822      	ldr	r2, [r4, #0]
 8006d34:	2a60      	cmp	r2, #96	; 0x60
 8006d36:	f000 813f 	beq.w	8006fb8 <HAL_TIM_ConfigClockSource+0x2d4>
 8006d3a:	f200 8084 	bhi.w	8006e46 <HAL_TIM_ConfigClockSource+0x162>
 8006d3e:	2a40      	cmp	r2, #64	; 0x40
 8006d40:	f000 8184 	beq.w	800704c <HAL_TIM_ConfigClockSource+0x368>
 8006d44:	d833      	bhi.n	8006dae <HAL_TIM_ConfigClockSource+0xca>
 8006d46:	2a20      	cmp	r2, #32
 8006d48:	d00d      	beq.n	8006d66 <HAL_TIM_ConfigClockSource+0x82>
 8006d4a:	d80a      	bhi.n	8006d62 <HAL_TIM_ConfigClockSource+0x7e>
 8006d4c:	f032 0210 	bics.w	r2, r2, #16
 8006d50:	d009      	beq.n	8006d66 <HAL_TIM_ConfigClockSource+0x82>
 8006d52:	2001      	movs	r0, #1
 8006d54:	2301      	movs	r3, #1
 8006d56:	f885 303d 	strb.w	r3, [r5, #61]	; 0x3d
 8006d5a:	2300      	movs	r3, #0
 8006d5c:	f885 303c 	strb.w	r3, [r5, #60]	; 0x3c
 8006d60:	bd70      	pop	{r4, r5, r6, pc}
 8006d62:	2a30      	cmp	r2, #48	; 0x30
 8006d64:	d1f5      	bne.n	8006d52 <HAL_TIM_ConfigClockSource+0x6e>
 8006d66:	4a93      	ldr	r2, [pc, #588]	; (8006fb4 <HAL_TIM_ConfigClockSource+0x2d0>)
 8006d68:	4293      	cmp	r3, r2
 8006d6a:	d017      	beq.n	8006d9c <HAL_TIM_ConfigClockSource+0xb8>
 8006d6c:	f1b3 4f80 	cmp.w	r3, #1073741824	; 0x40000000
 8006d70:	d014      	beq.n	8006d9c <HAL_TIM_ConfigClockSource+0xb8>
 8006d72:	f5a2 427c 	sub.w	r2, r2, #64512	; 0xfc00
 8006d76:	4293      	cmp	r3, r2
 8006d78:	d010      	beq.n	8006d9c <HAL_TIM_ConfigClockSource+0xb8>
 8006d7a:	f502 6280 	add.w	r2, r2, #1024	; 0x400
 8006d7e:	4293      	cmp	r3, r2
 8006d80:	d00c      	beq.n	8006d9c <HAL_TIM_ConfigClockSource+0xb8>
 8006d82:	f502 6280 	add.w	r2, r2, #1024	; 0x400
 8006d86:	4293      	cmp	r3, r2
 8006d88:	d008      	beq.n	8006d9c <HAL_TIM_ConfigClockSource+0xb8>
 8006d8a:	f502 329a 	add.w	r2, r2, #78848	; 0x13400
 8006d8e:	4293      	cmp	r3, r2
 8006d90:	d004      	beq.n	8006d9c <HAL_TIM_ConfigClockSource+0xb8>
 8006d92:	4887      	ldr	r0, [pc, #540]	; (8006fb0 <HAL_TIM_ConfigClockSource+0x2cc>)
 8006d94:	f241 512d 	movw	r1, #5421	; 0x152d
 8006d98:	f7fb fc90 	bl	80026bc <assert_failed>
 8006d9c:	682a      	ldr	r2, [r5, #0]
 8006d9e:	6821      	ldr	r1, [r4, #0]
 8006da0:	6893      	ldr	r3, [r2, #8]
 8006da2:	f023 0370 	bic.w	r3, r3, #112	; 0x70
 8006da6:	430b      	orrs	r3, r1
 8006da8:	f043 0307 	orr.w	r3, r3, #7
 8006dac:	e098      	b.n	8006ee0 <HAL_TIM_ConfigClockSource+0x1fc>
 8006dae:	2a50      	cmp	r2, #80	; 0x50
 8006db0:	d1cf      	bne.n	8006d52 <HAL_TIM_ConfigClockSource+0x6e>
 8006db2:	4a80      	ldr	r2, [pc, #512]	; (8006fb4 <HAL_TIM_ConfigClockSource+0x2d0>)
 8006db4:	4293      	cmp	r3, r2
 8006db6:	d017      	beq.n	8006de8 <HAL_TIM_ConfigClockSource+0x104>
 8006db8:	f1b3 4f80 	cmp.w	r3, #1073741824	; 0x40000000
 8006dbc:	d014      	beq.n	8006de8 <HAL_TIM_ConfigClockSource+0x104>
 8006dbe:	f5a2 427c 	sub.w	r2, r2, #64512	; 0xfc00
 8006dc2:	4293      	cmp	r3, r2
 8006dc4:	d010      	beq.n	8006de8 <HAL_TIM_ConfigClockSource+0x104>
 8006dc6:	f502 6280 	add.w	r2, r2, #1024	; 0x400
 8006dca:	4293      	cmp	r3, r2
 8006dcc:	d00c      	beq.n	8006de8 <HAL_TIM_ConfigClockSource+0x104>
 8006dce:	f502 6280 	add.w	r2, r2, #1024	; 0x400
 8006dd2:	4293      	cmp	r3, r2
 8006dd4:	d008      	beq.n	8006de8 <HAL_TIM_ConfigClockSource+0x104>
 8006dd6:	f502 329a 	add.w	r2, r2, #78848	; 0x13400
 8006dda:	4293      	cmp	r3, r2
 8006ddc:	d004      	beq.n	8006de8 <HAL_TIM_ConfigClockSource+0x104>
 8006dde:	4874      	ldr	r0, [pc, #464]	; (8006fb0 <HAL_TIM_ConfigClockSource+0x2cc>)
 8006de0:	f241 41fa 	movw	r1, #5370	; 0x14fa
 8006de4:	f7fb fc6a 	bl	80026bc <assert_failed>
 8006de8:	6863      	ldr	r3, [r4, #4]
 8006dea:	f5b3 4f00 	cmp.w	r3, #32768	; 0x8000
 8006dee:	d009      	beq.n	8006e04 <HAL_TIM_ConfigClockSource+0x120>
 8006df0:	f033 0202 	bics.w	r2, r3, #2
 8006df4:	d006      	beq.n	8006e04 <HAL_TIM_ConfigClockSource+0x120>
 8006df6:	2b0a      	cmp	r3, #10
 8006df8:	d004      	beq.n	8006e04 <HAL_TIM_ConfigClockSource+0x120>
 8006dfa:	486d      	ldr	r0, [pc, #436]	; (8006fb0 <HAL_TIM_ConfigClockSource+0x2cc>)
 8006dfc:	f241 41fd 	movw	r1, #5373	; 0x14fd
 8006e00:	f7fb fc5c 	bl	80026bc <assert_failed>
 8006e04:	68e3      	ldr	r3, [r4, #12]
 8006e06:	2b0f      	cmp	r3, #15
 8006e08:	d904      	bls.n	8006e14 <HAL_TIM_ConfigClockSource+0x130>
 8006e0a:	4869      	ldr	r0, [pc, #420]	; (8006fb0 <HAL_TIM_ConfigClockSource+0x2cc>)
 8006e0c:	f241 41fe 	movw	r1, #5374	; 0x14fe
 8006e10:	f7fb fc54 	bl	80026bc <assert_failed>
 8006e14:	682b      	ldr	r3, [r5, #0]
 8006e16:	6861      	ldr	r1, [r4, #4]
 8006e18:	6a18      	ldr	r0, [r3, #32]
 8006e1a:	68e6      	ldr	r6, [r4, #12]
 8006e1c:	6a1c      	ldr	r4, [r3, #32]
 8006e1e:	f024 0401 	bic.w	r4, r4, #1
 8006e22:	621c      	str	r4, [r3, #32]
 8006e24:	699a      	ldr	r2, [r3, #24]
 8006e26:	f020 000a 	bic.w	r0, r0, #10
 8006e2a:	f022 02f0 	bic.w	r2, r2, #240	; 0xf0
 8006e2e:	ea42 1206 	orr.w	r2, r2, r6, lsl #4
 8006e32:	4301      	orrs	r1, r0
 8006e34:	619a      	str	r2, [r3, #24]
 8006e36:	6219      	str	r1, [r3, #32]
 8006e38:	689a      	ldr	r2, [r3, #8]
 8006e3a:	f022 0270 	bic.w	r2, r2, #112	; 0x70
 8006e3e:	f042 0257 	orr.w	r2, r2, #87	; 0x57
 8006e42:	609a      	str	r2, [r3, #8]
 8006e44:	e071      	b.n	8006f2a <HAL_TIM_ConfigClockSource+0x246>
 8006e46:	f5b2 5f80 	cmp.w	r2, #4096	; 0x1000
 8006e4a:	d04b      	beq.n	8006ee4 <HAL_TIM_ConfigClockSource+0x200>
 8006e4c:	f5b2 5f00 	cmp.w	r2, #8192	; 0x2000
 8006e50:	d06d      	beq.n	8006f2e <HAL_TIM_ConfigClockSource+0x24a>
 8006e52:	2a70      	cmp	r2, #112	; 0x70
 8006e54:	f47f af7d 	bne.w	8006d52 <HAL_TIM_ConfigClockSource+0x6e>
 8006e58:	4a56      	ldr	r2, [pc, #344]	; (8006fb4 <HAL_TIM_ConfigClockSource+0x2d0>)
 8006e5a:	4293      	cmp	r3, r2
 8006e5c:	d017      	beq.n	8006e8e <HAL_TIM_ConfigClockSource+0x1aa>
 8006e5e:	f1b3 4f80 	cmp.w	r3, #1073741824	; 0x40000000
 8006e62:	d014      	beq.n	8006e8e <HAL_TIM_ConfigClockSource+0x1aa>
 8006e64:	f5a2 427c 	sub.w	r2, r2, #64512	; 0xfc00
 8006e68:	4293      	cmp	r3, r2
 8006e6a:	d010      	beq.n	8006e8e <HAL_TIM_ConfigClockSource+0x1aa>
 8006e6c:	f502 6280 	add.w	r2, r2, #1024	; 0x400
 8006e70:	4293      	cmp	r3, r2
 8006e72:	d00c      	beq.n	8006e8e <HAL_TIM_ConfigClockSource+0x1aa>
 8006e74:	f502 6280 	add.w	r2, r2, #1024	; 0x400
 8006e78:	4293      	cmp	r3, r2
 8006e7a:	d008      	beq.n	8006e8e <HAL_TIM_ConfigClockSource+0x1aa>
 8006e7c:	f502 329a 	add.w	r2, r2, #78848	; 0x13400
 8006e80:	4293      	cmp	r3, r2
 8006e82:	d004      	beq.n	8006e8e <HAL_TIM_ConfigClockSource+0x1aa>
 8006e84:	484a      	ldr	r0, [pc, #296]	; (8006fb0 <HAL_TIM_ConfigClockSource+0x2cc>)
 8006e86:	f241 41ce 	movw	r1, #5326	; 0x14ce
 8006e8a:	f7fb fc17 	bl	80026bc <assert_failed>
 8006e8e:	68a3      	ldr	r3, [r4, #8]
 8006e90:	f433 5340 	bics.w	r3, r3, #12288	; 0x3000
 8006e94:	d004      	beq.n	8006ea0 <HAL_TIM_ConfigClockSource+0x1bc>
 8006e96:	4846      	ldr	r0, [pc, #280]	; (8006fb0 <HAL_TIM_ConfigClockSource+0x2cc>)
 8006e98:	f241 41d1 	movw	r1, #5329	; 0x14d1
 8006e9c:	f7fb fc0e 	bl	80026bc <assert_failed>
 8006ea0:	6863      	ldr	r3, [r4, #4]
 8006ea2:	f5b3 4f00 	cmp.w	r3, #32768	; 0x8000
 8006ea6:	d009      	beq.n	8006ebc <HAL_TIM_ConfigClockSource+0x1d8>
 8006ea8:	f033 0202 	bics.w	r2, r3, #2
 8006eac:	d006      	beq.n	8006ebc <HAL_TIM_ConfigClockSource+0x1d8>
 8006eae:	2b0a      	cmp	r3, #10
 8006eb0:	d004      	beq.n	8006ebc <HAL_TIM_ConfigClockSource+0x1d8>
 8006eb2:	483f      	ldr	r0, [pc, #252]	; (8006fb0 <HAL_TIM_ConfigClockSource+0x2cc>)
 8006eb4:	f241 41d2 	movw	r1, #5330	; 0x14d2
 8006eb8:	f7fb fc00 	bl	80026bc <assert_failed>
 8006ebc:	68e3      	ldr	r3, [r4, #12]
 8006ebe:	2b0f      	cmp	r3, #15
 8006ec0:	d904      	bls.n	8006ecc <HAL_TIM_ConfigClockSource+0x1e8>
 8006ec2:	483b      	ldr	r0, [pc, #236]	; (8006fb0 <HAL_TIM_ConfigClockSource+0x2cc>)
 8006ec4:	f241 41d3 	movw	r1, #5331	; 0x14d3
 8006ec8:	f7fb fbf8 	bl	80026bc <assert_failed>
 8006ecc:	e9d4 2101 	ldrd	r2, r1, [r4, #4]
 8006ed0:	68e3      	ldr	r3, [r4, #12]
 8006ed2:	6828      	ldr	r0, [r5, #0]
 8006ed4:	f7ff fefc 	bl	8006cd0 <TIM_ETR_SetConfig>
 8006ed8:	682a      	ldr	r2, [r5, #0]
 8006eda:	6893      	ldr	r3, [r2, #8]
 8006edc:	f043 0377 	orr.w	r3, r3, #119	; 0x77
 8006ee0:	6093      	str	r3, [r2, #8]
 8006ee2:	e022      	b.n	8006f2a <HAL_TIM_ConfigClockSource+0x246>
 8006ee4:	4a33      	ldr	r2, [pc, #204]	; (8006fb4 <HAL_TIM_ConfigClockSource+0x2d0>)
 8006ee6:	4293      	cmp	r3, r2
 8006ee8:	d01f      	beq.n	8006f2a <HAL_TIM_ConfigClockSource+0x246>
 8006eea:	f1b3 4f80 	cmp.w	r3, #1073741824	; 0x40000000
 8006eee:	d01c      	beq.n	8006f2a <HAL_TIM_ConfigClockSource+0x246>
 8006ef0:	f5a2 427c 	sub.w	r2, r2, #64512	; 0xfc00
 8006ef4:	4293      	cmp	r3, r2
 8006ef6:	d018      	beq.n	8006f2a <HAL_TIM_ConfigClockSource+0x246>
 8006ef8:	f502 6280 	add.w	r2, r2, #1024	; 0x400
 8006efc:	4293      	cmp	r3, r2
 8006efe:	d014      	beq.n	8006f2a <HAL_TIM_ConfigClockSource+0x246>
 8006f00:	f502 6280 	add.w	r2, r2, #1024	; 0x400
 8006f04:	4293      	cmp	r3, r2
 8006f06:	d010      	beq.n	8006f2a <HAL_TIM_ConfigClockSource+0x246>
 8006f08:	f502 329a 	add.w	r2, r2, #78848	; 0x13400
 8006f0c:	4293      	cmp	r3, r2
 8006f0e:	d00c      	beq.n	8006f2a <HAL_TIM_ConfigClockSource+0x246>
 8006f10:	f502 6280 	add.w	r2, r2, #1024	; 0x400
 8006f14:	4293      	cmp	r3, r2
 8006f16:	d008      	beq.n	8006f2a <HAL_TIM_ConfigClockSource+0x246>
 8006f18:	f502 6280 	add.w	r2, r2, #1024	; 0x400
 8006f1c:	4293      	cmp	r3, r2
 8006f1e:	d004      	beq.n	8006f2a <HAL_TIM_ConfigClockSource+0x246>
 8006f20:	4823      	ldr	r0, [pc, #140]	; (8006fb0 <HAL_TIM_ConfigClockSource+0x2cc>)
 8006f22:	f241 41c7 	movw	r1, #5319	; 0x14c7
 8006f26:	f7fb fbc9 	bl	80026bc <assert_failed>
 8006f2a:	2000      	movs	r0, #0
 8006f2c:	e712      	b.n	8006d54 <HAL_TIM_ConfigClockSource+0x70>
 8006f2e:	4a21      	ldr	r2, [pc, #132]	; (8006fb4 <HAL_TIM_ConfigClockSource+0x2d0>)
 8006f30:	4293      	cmp	r3, r2
 8006f32:	d013      	beq.n	8006f5c <HAL_TIM_ConfigClockSource+0x278>
 8006f34:	f1b3 4f80 	cmp.w	r3, #1073741824	; 0x40000000
 8006f38:	d010      	beq.n	8006f5c <HAL_TIM_ConfigClockSource+0x278>
 8006f3a:	f5a2 427c 	sub.w	r2, r2, #64512	; 0xfc00
 8006f3e:	4293      	cmp	r3, r2
 8006f40:	d00c      	beq.n	8006f5c <HAL_TIM_ConfigClockSource+0x278>
 8006f42:	f502 6280 	add.w	r2, r2, #1024	; 0x400
 8006f46:	4293      	cmp	r3, r2
 8006f48:	d008      	beq.n	8006f5c <HAL_TIM_ConfigClockSource+0x278>
 8006f4a:	f502 6280 	add.w	r2, r2, #1024	; 0x400
 8006f4e:	4293      	cmp	r3, r2
 8006f50:	d004      	beq.n	8006f5c <HAL_TIM_ConfigClockSource+0x278>
 8006f52:	4817      	ldr	r0, [pc, #92]	; (8006fb0 <HAL_TIM_ConfigClockSource+0x2cc>)
 8006f54:	f241 41e6 	movw	r1, #5350	; 0x14e6
 8006f58:	f7fb fbb0 	bl	80026bc <assert_failed>
 8006f5c:	68a3      	ldr	r3, [r4, #8]
 8006f5e:	f433 5340 	bics.w	r3, r3, #12288	; 0x3000
 8006f62:	d004      	beq.n	8006f6e <HAL_TIM_ConfigClockSource+0x28a>
 8006f64:	4812      	ldr	r0, [pc, #72]	; (8006fb0 <HAL_TIM_ConfigClockSource+0x2cc>)
 8006f66:	f241 41e9 	movw	r1, #5353	; 0x14e9
 8006f6a:	f7fb fba7 	bl	80026bc <assert_failed>
 8006f6e:	6863      	ldr	r3, [r4, #4]
 8006f70:	f5b3 4f00 	cmp.w	r3, #32768	; 0x8000
 8006f74:	d009      	beq.n	8006f8a <HAL_TIM_ConfigClockSource+0x2a6>
 8006f76:	f033 0202 	bics.w	r2, r3, #2
 8006f7a:	d006      	beq.n	8006f8a <HAL_TIM_ConfigClockSource+0x2a6>
 8006f7c:	2b0a      	cmp	r3, #10
 8006f7e:	d004      	beq.n	8006f8a <HAL_TIM_ConfigClockSource+0x2a6>
 8006f80:	480b      	ldr	r0, [pc, #44]	; (8006fb0 <HAL_TIM_ConfigClockSource+0x2cc>)
 8006f82:	f241 41ea 	movw	r1, #5354	; 0x14ea
 8006f86:	f7fb fb99 	bl	80026bc <assert_failed>
 8006f8a:	68e3      	ldr	r3, [r4, #12]
 8006f8c:	2b0f      	cmp	r3, #15
 8006f8e:	d904      	bls.n	8006f9a <HAL_TIM_ConfigClockSource+0x2b6>
 8006f90:	4807      	ldr	r0, [pc, #28]	; (8006fb0 <HAL_TIM_ConfigClockSource+0x2cc>)
 8006f92:	f241 41eb 	movw	r1, #5355	; 0x14eb
 8006f96:	f7fb fb91 	bl	80026bc <assert_failed>
 8006f9a:	e9d4 2101 	ldrd	r2, r1, [r4, #4]
 8006f9e:	68e3      	ldr	r3, [r4, #12]
 8006fa0:	6828      	ldr	r0, [r5, #0]
 8006fa2:	f7ff fe95 	bl	8006cd0 <TIM_ETR_SetConfig>
 8006fa6:	682a      	ldr	r2, [r5, #0]
 8006fa8:	6893      	ldr	r3, [r2, #8]
 8006faa:	f443 4380 	orr.w	r3, r3, #16384	; 0x4000
 8006fae:	e797      	b.n	8006ee0 <HAL_TIM_ConfigClockSource+0x1fc>
 8006fb0:	0800989a 	.word	0x0800989a
 8006fb4:	40010000 	.word	0x40010000
 8006fb8:	4a4a      	ldr	r2, [pc, #296]	; (80070e4 <HAL_TIM_ConfigClockSource+0x400>)
 8006fba:	4293      	cmp	r3, r2
 8006fbc:	d017      	beq.n	8006fee <HAL_TIM_ConfigClockSource+0x30a>
 8006fbe:	f1b3 4f80 	cmp.w	r3, #1073741824	; 0x40000000
 8006fc2:	d014      	beq.n	8006fee <HAL_TIM_ConfigClockSource+0x30a>
 8006fc4:	f5a2 427c 	sub.w	r2, r2, #64512	; 0xfc00
 8006fc8:	4293      	cmp	r3, r2
 8006fca:	d010      	beq.n	8006fee <HAL_TIM_ConfigClockSource+0x30a>
 8006fcc:	f502 6280 	add.w	r2, r2, #1024	; 0x400
 8006fd0:	4293      	cmp	r3, r2
 8006fd2:	d00c      	beq.n	8006fee <HAL_TIM_ConfigClockSource+0x30a>
 8006fd4:	f502 6280 	add.w	r2, r2, #1024	; 0x400
 8006fd8:	4293      	cmp	r3, r2
 8006fda:	d008      	beq.n	8006fee <HAL_TIM_ConfigClockSource+0x30a>
 8006fdc:	f502 329a 	add.w	r2, r2, #78848	; 0x13400
 8006fe0:	4293      	cmp	r3, r2
 8006fe2:	d004      	beq.n	8006fee <HAL_TIM_ConfigClockSource+0x30a>
 8006fe4:	4840      	ldr	r0, [pc, #256]	; (80070e8 <HAL_TIM_ConfigClockSource+0x404>)
 8006fe6:	f241 510a 	movw	r1, #5386	; 0x150a
 8006fea:	f7fb fb67 	bl	80026bc <assert_failed>
 8006fee:	6863      	ldr	r3, [r4, #4]
 8006ff0:	f5b3 4f00 	cmp.w	r3, #32768	; 0x8000
 8006ff4:	d009      	beq.n	800700a <HAL_TIM_ConfigClockSource+0x326>
 8006ff6:	f033 0202 	bics.w	r2, r3, #2
 8006ffa:	d006      	beq.n	800700a <HAL_TIM_ConfigClockSource+0x326>
 8006ffc:	2b0a      	cmp	r3, #10
 8006ffe:	d004      	beq.n	800700a <HAL_TIM_ConfigClockSource+0x326>
 8007000:	4839      	ldr	r0, [pc, #228]	; (80070e8 <HAL_TIM_ConfigClockSource+0x404>)
 8007002:	f241 510d 	movw	r1, #5389	; 0x150d
 8007006:	f7fb fb59 	bl	80026bc <assert_failed>
 800700a:	68e3      	ldr	r3, [r4, #12]
 800700c:	2b0f      	cmp	r3, #15
 800700e:	d904      	bls.n	800701a <HAL_TIM_ConfigClockSource+0x336>
 8007010:	4835      	ldr	r0, [pc, #212]	; (80070e8 <HAL_TIM_ConfigClockSource+0x404>)
 8007012:	f241 510e 	movw	r1, #5390	; 0x150e
 8007016:	f7fb fb51 	bl	80026bc <assert_failed>
 800701a:	682b      	ldr	r3, [r5, #0]
 800701c:	6866      	ldr	r6, [r4, #4]
 800701e:	6a18      	ldr	r0, [r3, #32]
 8007020:	68e4      	ldr	r4, [r4, #12]
 8007022:	f020 0010 	bic.w	r0, r0, #16
 8007026:	6218      	str	r0, [r3, #32]
 8007028:	6999      	ldr	r1, [r3, #24]
 800702a:	6a1a      	ldr	r2, [r3, #32]
 800702c:	f421 4170 	bic.w	r1, r1, #61440	; 0xf000
 8007030:	f022 02a0 	bic.w	r2, r2, #160	; 0xa0
 8007034:	ea42 1206 	orr.w	r2, r2, r6, lsl #4
 8007038:	ea41 3104 	orr.w	r1, r1, r4, lsl #12
 800703c:	6199      	str	r1, [r3, #24]
 800703e:	621a      	str	r2, [r3, #32]
 8007040:	689a      	ldr	r2, [r3, #8]
 8007042:	f022 0270 	bic.w	r2, r2, #112	; 0x70
 8007046:	f042 0267 	orr.w	r2, r2, #103	; 0x67
 800704a:	e6fa      	b.n	8006e42 <HAL_TIM_ConfigClockSource+0x15e>
 800704c:	4a25      	ldr	r2, [pc, #148]	; (80070e4 <HAL_TIM_ConfigClockSource+0x400>)
 800704e:	4293      	cmp	r3, r2
 8007050:	d017      	beq.n	8007082 <HAL_TIM_ConfigClockSource+0x39e>
 8007052:	f1b3 4f80 	cmp.w	r3, #1073741824	; 0x40000000
 8007056:	d014      	beq.n	8007082 <HAL_TIM_ConfigClockSource+0x39e>
 8007058:	f5a2 427c 	sub.w	r2, r2, #64512	; 0xfc00
 800705c:	4293      	cmp	r3, r2
 800705e:	d010      	beq.n	8007082 <HAL_TIM_ConfigClockSource+0x39e>
 8007060:	f502 6280 	add.w	r2, r2, #1024	; 0x400
 8007064:	4293      	cmp	r3, r2
 8007066:	d00c      	beq.n	8007082 <HAL_TIM_ConfigClockSource+0x39e>
 8007068:	f502 6280 	add.w	r2, r2, #1024	; 0x400
 800706c:	4293      	cmp	r3, r2
 800706e:	d008      	beq.n	8007082 <HAL_TIM_ConfigClockSource+0x39e>
 8007070:	f502 329a 	add.w	r2, r2, #78848	; 0x13400
 8007074:	4293      	cmp	r3, r2
 8007076:	d004      	beq.n	8007082 <HAL_TIM_ConfigClockSource+0x39e>
 8007078:	481b      	ldr	r0, [pc, #108]	; (80070e8 <HAL_TIM_ConfigClockSource+0x404>)
 800707a:	f241 511a 	movw	r1, #5402	; 0x151a
 800707e:	f7fb fb1d 	bl	80026bc <assert_failed>
 8007082:	6863      	ldr	r3, [r4, #4]
 8007084:	f5b3 4f00 	cmp.w	r3, #32768	; 0x8000
 8007088:	d009      	beq.n	800709e <HAL_TIM_ConfigClockSource+0x3ba>
 800708a:	f033 0202 	bics.w	r2, r3, #2
 800708e:	d006      	beq.n	800709e <HAL_TIM_ConfigClockSource+0x3ba>
 8007090:	2b0a      	cmp	r3, #10
 8007092:	d004      	beq.n	800709e <HAL_TIM_ConfigClockSource+0x3ba>
 8007094:	4814      	ldr	r0, [pc, #80]	; (80070e8 <HAL_TIM_ConfigClockSource+0x404>)
 8007096:	f241 511d 	movw	r1, #5405	; 0x151d
 800709a:	f7fb fb0f 	bl	80026bc <assert_failed>
 800709e:	68e3      	ldr	r3, [r4, #12]
 80070a0:	2b0f      	cmp	r3, #15
 80070a2:	d904      	bls.n	80070ae <HAL_TIM_ConfigClockSource+0x3ca>
 80070a4:	4810      	ldr	r0, [pc, #64]	; (80070e8 <HAL_TIM_ConfigClockSource+0x404>)
 80070a6:	f241 511e 	movw	r1, #5406	; 0x151e
 80070aa:	f7fb fb07 	bl	80026bc <assert_failed>
 80070ae:	682b      	ldr	r3, [r5, #0]
 80070b0:	6861      	ldr	r1, [r4, #4]
 80070b2:	6a18      	ldr	r0, [r3, #32]
 80070b4:	68e6      	ldr	r6, [r4, #12]
 80070b6:	6a1c      	ldr	r4, [r3, #32]
 80070b8:	f024 0401 	bic.w	r4, r4, #1
 80070bc:	621c      	str	r4, [r3, #32]
 80070be:	699a      	ldr	r2, [r3, #24]
 80070c0:	f020 000a 	bic.w	r0, r0, #10
 80070c4:	f022 02f0 	bic.w	r2, r2, #240	; 0xf0
 80070c8:	ea42 1206 	orr.w	r2, r2, r6, lsl #4
 80070cc:	4301      	orrs	r1, r0
 80070ce:	619a      	str	r2, [r3, #24]
 80070d0:	6219      	str	r1, [r3, #32]
 80070d2:	689a      	ldr	r2, [r3, #8]
 80070d4:	f022 0270 	bic.w	r2, r2, #112	; 0x70
 80070d8:	f042 0247 	orr.w	r2, r2, #71	; 0x47
 80070dc:	e6b1      	b.n	8006e42 <HAL_TIM_ConfigClockSource+0x15e>
 80070de:	4618      	mov	r0, r3
 80070e0:	e63e      	b.n	8006d60 <HAL_TIM_ConfigClockSource+0x7c>
 80070e2:	bf00      	nop
 80070e4:	40010000 	.word	0x40010000
 80070e8:	0800989a 	.word	0x0800989a

080070ec <TIM_CCxChannelCmd>:
 80070ec:	4b1f      	ldr	r3, [pc, #124]	; (800716c <TIM_CCxChannelCmd+0x80>)
 80070ee:	4298      	cmp	r0, r3
 80070f0:	b570      	push	{r4, r5, r6, lr}
 80070f2:	4604      	mov	r4, r0
 80070f4:	460d      	mov	r5, r1
 80070f6:	4616      	mov	r6, r2
 80070f8:	d01f      	beq.n	800713a <TIM_CCxChannelCmd+0x4e>
 80070fa:	f1b0 4f80 	cmp.w	r0, #1073741824	; 0x40000000
 80070fe:	d01c      	beq.n	800713a <TIM_CCxChannelCmd+0x4e>
 8007100:	f5a3 437c 	sub.w	r3, r3, #64512	; 0xfc00
 8007104:	4298      	cmp	r0, r3
 8007106:	d018      	beq.n	800713a <TIM_CCxChannelCmd+0x4e>
 8007108:	f503 6380 	add.w	r3, r3, #1024	; 0x400
 800710c:	4298      	cmp	r0, r3
 800710e:	d014      	beq.n	800713a <TIM_CCxChannelCmd+0x4e>
 8007110:	f503 6380 	add.w	r3, r3, #1024	; 0x400
 8007114:	4298      	cmp	r0, r3
 8007116:	d010      	beq.n	800713a <TIM_CCxChannelCmd+0x4e>
 8007118:	f503 339a 	add.w	r3, r3, #78848	; 0x13400
 800711c:	4298      	cmp	r0, r3
 800711e:	d00c      	beq.n	800713a <TIM_CCxChannelCmd+0x4e>
 8007120:	f503 6380 	add.w	r3, r3, #1024	; 0x400
 8007124:	4298      	cmp	r0, r3
 8007126:	d008      	beq.n	800713a <TIM_CCxChannelCmd+0x4e>
 8007128:	f503 6380 	add.w	r3, r3, #1024	; 0x400
 800712c:	4298      	cmp	r0, r3
 800712e:	d004      	beq.n	800713a <TIM_CCxChannelCmd+0x4e>
 8007130:	480f      	ldr	r0, [pc, #60]	; (8007170 <TIM_CCxChannelCmd+0x84>)
 8007132:	f641 5198 	movw	r1, #7576	; 0x1d98
 8007136:	f7fb fac1 	bl	80026bc <assert_failed>
 800713a:	f035 030c 	bics.w	r3, r5, #12
 800713e:	d006      	beq.n	800714e <TIM_CCxChannelCmd+0x62>
 8007140:	2d3c      	cmp	r5, #60	; 0x3c
 8007142:	d004      	beq.n	800714e <TIM_CCxChannelCmd+0x62>
 8007144:	480a      	ldr	r0, [pc, #40]	; (8007170 <TIM_CCxChannelCmd+0x84>)
 8007146:	f641 5199 	movw	r1, #7577	; 0x1d99
 800714a:	f7fb fab7 	bl	80026bc <assert_failed>
 800714e:	6a23      	ldr	r3, [r4, #32]
 8007150:	f005 051f 	and.w	r5, r5, #31
 8007154:	2201      	movs	r2, #1
 8007156:	40aa      	lsls	r2, r5
 8007158:	ea23 0302 	bic.w	r3, r3, r2
 800715c:	6223      	str	r3, [r4, #32]
 800715e:	6a22      	ldr	r2, [r4, #32]
 8007160:	fa06 f505 	lsl.w	r5, r6, r5
 8007164:	4315      	orrs	r5, r2
 8007166:	6225      	str	r5, [r4, #32]
 8007168:	bd70      	pop	{r4, r5, r6, pc}
 800716a:	bf00      	nop
 800716c:	40010000 	.word	0x40010000
 8007170:	0800989a 	.word	0x0800989a

08007174 <HAL_TIM_PWM_Start_DMA>:
 8007174:	b573      	push	{r0, r1, r4, r5, r6, lr}
 8007176:	460d      	mov	r5, r1
 8007178:	4616      	mov	r6, r2
 800717a:	4979      	ldr	r1, [pc, #484]	; (8007360 <HAL_TIM_PWM_Start_DMA+0x1ec>)
 800717c:	6802      	ldr	r2, [r0, #0]
 800717e:	428a      	cmp	r2, r1
 8007180:	4604      	mov	r4, r0
 8007182:	d00e      	beq.n	80071a2 <HAL_TIM_PWM_Start_DMA+0x2e>
 8007184:	f1b2 4f80 	cmp.w	r2, #1073741824	; 0x40000000
 8007188:	d00b      	beq.n	80071a2 <HAL_TIM_PWM_Start_DMA+0x2e>
 800718a:	f5a1 417c 	sub.w	r1, r1, #64512	; 0xfc00
 800718e:	428a      	cmp	r2, r1
 8007190:	d007      	beq.n	80071a2 <HAL_TIM_PWM_Start_DMA+0x2e>
 8007192:	f501 6180 	add.w	r1, r1, #1024	; 0x400
 8007196:	428a      	cmp	r2, r1
 8007198:	d003      	beq.n	80071a2 <HAL_TIM_PWM_Start_DMA+0x2e>
 800719a:	f501 6180 	add.w	r1, r1, #1024	; 0x400
 800719e:	428a      	cmp	r2, r1
 80071a0:	d123      	bne.n	80071ea <HAL_TIM_PWM_Start_DMA+0x76>
 80071a2:	b935      	cbnz	r5, 80071b2 <HAL_TIM_PWM_Start_DMA+0x3e>
 80071a4:	f894 203e 	ldrb.w	r2, [r4, #62]	; 0x3e
 80071a8:	2a02      	cmp	r2, #2
 80071aa:	d13a      	bne.n	8007222 <HAL_TIM_PWM_Start_DMA+0xae>
 80071ac:	2002      	movs	r0, #2
 80071ae:	b002      	add	sp, #8
 80071b0:	bd70      	pop	{r4, r5, r6, pc}
 80071b2:	2d04      	cmp	r5, #4
 80071b4:	d106      	bne.n	80071c4 <HAL_TIM_PWM_Start_DMA+0x50>
 80071b6:	f894 203f 	ldrb.w	r2, [r4, #63]	; 0x3f
 80071ba:	2a02      	cmp	r2, #2
 80071bc:	d0f6      	beq.n	80071ac <HAL_TIM_PWM_Start_DMA+0x38>
 80071be:	f894 103f 	ldrb.w	r1, [r4, #63]	; 0x3f
 80071c2:	e030      	b.n	8007226 <HAL_TIM_PWM_Start_DMA+0xb2>
 80071c4:	2d08      	cmp	r5, #8
 80071c6:	d106      	bne.n	80071d6 <HAL_TIM_PWM_Start_DMA+0x62>
 80071c8:	f894 2040 	ldrb.w	r2, [r4, #64]	; 0x40
 80071cc:	2a02      	cmp	r2, #2
 80071ce:	d0ed      	beq.n	80071ac <HAL_TIM_PWM_Start_DMA+0x38>
 80071d0:	f894 1040 	ldrb.w	r1, [r4, #64]	; 0x40
 80071d4:	e027      	b.n	8007226 <HAL_TIM_PWM_Start_DMA+0xb2>
 80071d6:	2d0c      	cmp	r5, #12
 80071d8:	f040 80b5 	bne.w	8007346 <HAL_TIM_PWM_Start_DMA+0x1d2>
 80071dc:	f894 2041 	ldrb.w	r2, [r4, #65]	; 0x41
 80071e0:	2a02      	cmp	r2, #2
 80071e2:	d0e3      	beq.n	80071ac <HAL_TIM_PWM_Start_DMA+0x38>
 80071e4:	f894 1041 	ldrb.w	r1, [r4, #65]	; 0x41
 80071e8:	e01d      	b.n	8007226 <HAL_TIM_PWM_Start_DMA+0xb2>
 80071ea:	495e      	ldr	r1, [pc, #376]	; (8007364 <HAL_TIM_PWM_Start_DMA+0x1f0>)
 80071ec:	428a      	cmp	r2, r1
 80071ee:	d104      	bne.n	80071fa <HAL_TIM_PWM_Start_DMA+0x86>
 80071f0:	2d00      	cmp	r5, #0
 80071f2:	d0d7      	beq.n	80071a4 <HAL_TIM_PWM_Start_DMA+0x30>
 80071f4:	2d04      	cmp	r5, #4
 80071f6:	d0de      	beq.n	80071b6 <HAL_TIM_PWM_Start_DMA+0x42>
 80071f8:	e005      	b.n	8007206 <HAL_TIM_PWM_Start_DMA+0x92>
 80071fa:	495b      	ldr	r1, [pc, #364]	; (8007368 <HAL_TIM_PWM_Start_DMA+0x1f4>)
 80071fc:	428a      	cmp	r2, r1
 80071fe:	f040 80aa 	bne.w	8007356 <HAL_TIM_PWM_Start_DMA+0x1e2>
 8007202:	2d00      	cmp	r5, #0
 8007204:	d0ce      	beq.n	80071a4 <HAL_TIM_PWM_Start_DMA+0x30>
 8007206:	4859      	ldr	r0, [pc, #356]	; (800736c <HAL_TIM_PWM_Start_DMA+0x1f8>)
 8007208:	9301      	str	r3, [sp, #4]
 800720a:	f240 61b3 	movw	r1, #1715	; 0x6b3
 800720e:	f7fb fa55 	bl	80026bc <assert_failed>
 8007212:	9b01      	ldr	r3, [sp, #4]
 8007214:	2d00      	cmp	r5, #0
 8007216:	d0c5      	beq.n	80071a4 <HAL_TIM_PWM_Start_DMA+0x30>
 8007218:	2d04      	cmp	r5, #4
 800721a:	d0cc      	beq.n	80071b6 <HAL_TIM_PWM_Start_DMA+0x42>
 800721c:	2d08      	cmp	r5, #8
 800721e:	d1dd      	bne.n	80071dc <HAL_TIM_PWM_Start_DMA+0x68>
 8007220:	e7d2      	b.n	80071c8 <HAL_TIM_PWM_Start_DMA+0x54>
 8007222:	f894 103e 	ldrb.w	r1, [r4, #62]	; 0x3e
 8007226:	1e4a      	subs	r2, r1, #1
 8007228:	4251      	negs	r1, r2
 800722a:	4151      	adcs	r1, r2
 800722c:	b909      	cbnz	r1, 8007232 <HAL_TIM_PWM_Start_DMA+0xbe>
 800722e:	2001      	movs	r0, #1
 8007230:	e7bd      	b.n	80071ae <HAL_TIM_PWM_Start_DMA+0x3a>
 8007232:	b90e      	cbnz	r6, 8007238 <HAL_TIM_PWM_Start_DMA+0xc4>
 8007234:	2b00      	cmp	r3, #0
 8007236:	d1fa      	bne.n	800722e <HAL_TIM_PWM_Start_DMA+0xba>
 8007238:	2202      	movs	r2, #2
 800723a:	bb45      	cbnz	r5, 800728e <HAL_TIM_PWM_Start_DMA+0x11a>
 800723c:	6a60      	ldr	r0, [r4, #36]	; 0x24
 800723e:	f884 203e 	strb.w	r2, [r4, #62]	; 0x3e
 8007242:	4a4b      	ldr	r2, [pc, #300]	; (8007370 <HAL_TIM_PWM_Start_DMA+0x1fc>)
 8007244:	63c2      	str	r2, [r0, #60]	; 0x3c
 8007246:	4a4b      	ldr	r2, [pc, #300]	; (8007374 <HAL_TIM_PWM_Start_DMA+0x200>)
 8007248:	6402      	str	r2, [r0, #64]	; 0x40
 800724a:	4a4b      	ldr	r2, [pc, #300]	; (8007378 <HAL_TIM_PWM_Start_DMA+0x204>)
 800724c:	64c2      	str	r2, [r0, #76]	; 0x4c
 800724e:	6822      	ldr	r2, [r4, #0]
 8007250:	4631      	mov	r1, r6
 8007252:	3234      	adds	r2, #52	; 0x34
 8007254:	f7fc fb34 	bl	80038c0 <HAL_DMA_Start_IT>
 8007258:	2800      	cmp	r0, #0
 800725a:	d1e8      	bne.n	800722e <HAL_TIM_PWM_Start_DMA+0xba>
 800725c:	6822      	ldr	r2, [r4, #0]
 800725e:	68d3      	ldr	r3, [r2, #12]
 8007260:	f443 7300 	orr.w	r3, r3, #512	; 0x200
 8007264:	60d3      	str	r3, [r2, #12]
 8007266:	6820      	ldr	r0, [r4, #0]
 8007268:	2201      	movs	r2, #1
 800726a:	4629      	mov	r1, r5
 800726c:	f7ff ff3e 	bl	80070ec <TIM_CCxChannelCmd>
 8007270:	6823      	ldr	r3, [r4, #0]
 8007272:	4a3b      	ldr	r2, [pc, #236]	; (8007360 <HAL_TIM_PWM_Start_DMA+0x1ec>)
 8007274:	4293      	cmp	r3, r2
 8007276:	d14f      	bne.n	8007318 <HAL_TIM_PWM_Start_DMA+0x1a4>
 8007278:	6c5a      	ldr	r2, [r3, #68]	; 0x44
 800727a:	f442 4200 	orr.w	r2, r2, #32768	; 0x8000
 800727e:	645a      	str	r2, [r3, #68]	; 0x44
 8007280:	689a      	ldr	r2, [r3, #8]
 8007282:	f002 0207 	and.w	r2, r2, #7
 8007286:	2a06      	cmp	r2, #6
 8007288:	d158      	bne.n	800733c <HAL_TIM_PWM_Start_DMA+0x1c8>
 800728a:	2000      	movs	r0, #0
 800728c:	e78f      	b.n	80071ae <HAL_TIM_PWM_Start_DMA+0x3a>
 800728e:	2d04      	cmp	r5, #4
 8007290:	d114      	bne.n	80072bc <HAL_TIM_PWM_Start_DMA+0x148>
 8007292:	6aa0      	ldr	r0, [r4, #40]	; 0x28
 8007294:	f884 203f 	strb.w	r2, [r4, #63]	; 0x3f
 8007298:	4a35      	ldr	r2, [pc, #212]	; (8007370 <HAL_TIM_PWM_Start_DMA+0x1fc>)
 800729a:	63c2      	str	r2, [r0, #60]	; 0x3c
 800729c:	4a35      	ldr	r2, [pc, #212]	; (8007374 <HAL_TIM_PWM_Start_DMA+0x200>)
 800729e:	6402      	str	r2, [r0, #64]	; 0x40
 80072a0:	4a35      	ldr	r2, [pc, #212]	; (8007378 <HAL_TIM_PWM_Start_DMA+0x204>)
 80072a2:	64c2      	str	r2, [r0, #76]	; 0x4c
 80072a4:	6822      	ldr	r2, [r4, #0]
 80072a6:	4631      	mov	r1, r6
 80072a8:	3238      	adds	r2, #56	; 0x38
 80072aa:	f7fc fb09 	bl	80038c0 <HAL_DMA_Start_IT>
 80072ae:	2800      	cmp	r0, #0
 80072b0:	d1bd      	bne.n	800722e <HAL_TIM_PWM_Start_DMA+0xba>
 80072b2:	6822      	ldr	r2, [r4, #0]
 80072b4:	68d3      	ldr	r3, [r2, #12]
 80072b6:	f443 6380 	orr.w	r3, r3, #1024	; 0x400
 80072ba:	e7d3      	b.n	8007264 <HAL_TIM_PWM_Start_DMA+0xf0>
 80072bc:	2d08      	cmp	r5, #8
 80072be:	d114      	bne.n	80072ea <HAL_TIM_PWM_Start_DMA+0x176>
 80072c0:	6ae0      	ldr	r0, [r4, #44]	; 0x2c
 80072c2:	f884 2040 	strb.w	r2, [r4, #64]	; 0x40
 80072c6:	4a2a      	ldr	r2, [pc, #168]	; (8007370 <HAL_TIM_PWM_Start_DMA+0x1fc>)
 80072c8:	63c2      	str	r2, [r0, #60]	; 0x3c
 80072ca:	4a2a      	ldr	r2, [pc, #168]	; (8007374 <HAL_TIM_PWM_Start_DMA+0x200>)
 80072cc:	6402      	str	r2, [r0, #64]	; 0x40
 80072ce:	4a2a      	ldr	r2, [pc, #168]	; (8007378 <HAL_TIM_PWM_Start_DMA+0x204>)
 80072d0:	64c2      	str	r2, [r0, #76]	; 0x4c
 80072d2:	6822      	ldr	r2, [r4, #0]
 80072d4:	4631      	mov	r1, r6
 80072d6:	323c      	adds	r2, #60	; 0x3c
 80072d8:	f7fc faf2 	bl	80038c0 <HAL_DMA_Start_IT>
 80072dc:	2800      	cmp	r0, #0
 80072de:	d1a6      	bne.n	800722e <HAL_TIM_PWM_Start_DMA+0xba>
 80072e0:	6822      	ldr	r2, [r4, #0]
 80072e2:	68d3      	ldr	r3, [r2, #12]
 80072e4:	f443 6300 	orr.w	r3, r3, #2048	; 0x800
 80072e8:	e7bc      	b.n	8007264 <HAL_TIM_PWM_Start_DMA+0xf0>
 80072ea:	2d0c      	cmp	r5, #12
 80072ec:	f884 2041 	strb.w	r2, [r4, #65]	; 0x41
 80072f0:	d19d      	bne.n	800722e <HAL_TIM_PWM_Start_DMA+0xba>
 80072f2:	6b20      	ldr	r0, [r4, #48]	; 0x30
 80072f4:	4a1e      	ldr	r2, [pc, #120]	; (8007370 <HAL_TIM_PWM_Start_DMA+0x1fc>)
 80072f6:	63c2      	str	r2, [r0, #60]	; 0x3c
 80072f8:	4a1e      	ldr	r2, [pc, #120]	; (8007374 <HAL_TIM_PWM_Start_DMA+0x200>)
 80072fa:	6402      	str	r2, [r0, #64]	; 0x40
 80072fc:	4a1e      	ldr	r2, [pc, #120]	; (8007378 <HAL_TIM_PWM_Start_DMA+0x204>)
 80072fe:	64c2      	str	r2, [r0, #76]	; 0x4c
 8007300:	6822      	ldr	r2, [r4, #0]
 8007302:	4631      	mov	r1, r6
 8007304:	3240      	adds	r2, #64	; 0x40
 8007306:	f7fc fadb 	bl	80038c0 <HAL_DMA_Start_IT>
 800730a:	2800      	cmp	r0, #0
 800730c:	d18f      	bne.n	800722e <HAL_TIM_PWM_Start_DMA+0xba>
 800730e:	6822      	ldr	r2, [r4, #0]
 8007310:	68d3      	ldr	r3, [r2, #12]
 8007312:	f443 5380 	orr.w	r3, r3, #4096	; 0x1000
 8007316:	e7a5      	b.n	8007264 <HAL_TIM_PWM_Start_DMA+0xf0>
 8007318:	f1b3 4f80 	cmp.w	r3, #1073741824	; 0x40000000
 800731c:	d0b0      	beq.n	8007280 <HAL_TIM_PWM_Start_DMA+0x10c>
 800731e:	4a17      	ldr	r2, [pc, #92]	; (800737c <HAL_TIM_PWM_Start_DMA+0x208>)
 8007320:	4293      	cmp	r3, r2
 8007322:	d0ad      	beq.n	8007280 <HAL_TIM_PWM_Start_DMA+0x10c>
 8007324:	f502 6280 	add.w	r2, r2, #1024	; 0x400
 8007328:	4293      	cmp	r3, r2
 800732a:	d0a9      	beq.n	8007280 <HAL_TIM_PWM_Start_DMA+0x10c>
 800732c:	f502 6280 	add.w	r2, r2, #1024	; 0x400
 8007330:	4293      	cmp	r3, r2
 8007332:	d0a5      	beq.n	8007280 <HAL_TIM_PWM_Start_DMA+0x10c>
 8007334:	f502 329a 	add.w	r2, r2, #78848	; 0x13400
 8007338:	4293      	cmp	r3, r2
 800733a:	d0a1      	beq.n	8007280 <HAL_TIM_PWM_Start_DMA+0x10c>
 800733c:	681a      	ldr	r2, [r3, #0]
 800733e:	f042 0201 	orr.w	r2, r2, #1
 8007342:	601a      	str	r2, [r3, #0]
 8007344:	e7a1      	b.n	800728a <HAL_TIM_PWM_Start_DMA+0x116>
 8007346:	4907      	ldr	r1, [pc, #28]	; (8007364 <HAL_TIM_PWM_Start_DMA+0x1f0>)
 8007348:	428a      	cmp	r2, r1
 800734a:	f43f af5c 	beq.w	8007206 <HAL_TIM_PWM_Start_DMA+0x92>
 800734e:	4906      	ldr	r1, [pc, #24]	; (8007368 <HAL_TIM_PWM_Start_DMA+0x1f4>)
 8007350:	428a      	cmp	r2, r1
 8007352:	f43f af58 	beq.w	8007206 <HAL_TIM_PWM_Start_DMA+0x92>
 8007356:	490a      	ldr	r1, [pc, #40]	; (8007380 <HAL_TIM_PWM_Start_DMA+0x20c>)
 8007358:	428a      	cmp	r2, r1
 800735a:	f43f af52 	beq.w	8007202 <HAL_TIM_PWM_Start_DMA+0x8e>
 800735e:	e752      	b.n	8007206 <HAL_TIM_PWM_Start_DMA+0x92>
 8007360:	40010000 	.word	0x40010000
 8007364:	40014000 	.word	0x40014000
 8007368:	40014400 	.word	0x40014400
 800736c:	0800989a 	.word	0x0800989a
 8007370:	080061bd 	.word	0x080061bd
 8007374:	08006229 	.word	0x08006229
 8007378:	080063a9 	.word	0x080063a9
 800737c:	40000400 	.word	0x40000400
 8007380:	40014800 	.word	0x40014800

08007384 <HAL_TIM_PWM_Stop_DMA>:
 8007384:	b538      	push	{r3, r4, r5, lr}
 8007386:	4a47      	ldr	r2, [pc, #284]	; (80074a4 <HAL_TIM_PWM_Stop_DMA+0x120>)
 8007388:	6803      	ldr	r3, [r0, #0]
 800738a:	4293      	cmp	r3, r2
 800738c:	4605      	mov	r5, r0
 800738e:	460c      	mov	r4, r1
 8007390:	d00e      	beq.n	80073b0 <HAL_TIM_PWM_Stop_DMA+0x2c>
 8007392:	f1b3 4f80 	cmp.w	r3, #1073741824	; 0x40000000
 8007396:	d00b      	beq.n	80073b0 <HAL_TIM_PWM_Stop_DMA+0x2c>
 8007398:	f5a2 427c 	sub.w	r2, r2, #64512	; 0xfc00
 800739c:	4293      	cmp	r3, r2
 800739e:	d007      	beq.n	80073b0 <HAL_TIM_PWM_Stop_DMA+0x2c>
 80073a0:	f502 6280 	add.w	r2, r2, #1024	; 0x400
 80073a4:	4293      	cmp	r3, r2
 80073a6:	d003      	beq.n	80073b0 <HAL_TIM_PWM_Stop_DMA+0x2c>
 80073a8:	f502 6280 	add.w	r2, r2, #1024	; 0x400
 80073ac:	4293      	cmp	r3, r2
 80073ae:	d10d      	bne.n	80073cc <HAL_TIM_PWM_Stop_DMA+0x48>
 80073b0:	b38c      	cbz	r4, 8007416 <HAL_TIM_PWM_Stop_DMA+0x92>
 80073b2:	2c04      	cmp	r4, #4
 80073b4:	d010      	beq.n	80073d8 <HAL_TIM_PWM_Stop_DMA+0x54>
 80073b6:	2c08      	cmp	r4, #8
 80073b8:	d060      	beq.n	800747c <HAL_TIM_PWM_Stop_DMA+0xf8>
 80073ba:	2c0c      	cmp	r4, #12
 80073bc:	d117      	bne.n	80073ee <HAL_TIM_PWM_Stop_DMA+0x6a>
 80073be:	682a      	ldr	r2, [r5, #0]
 80073c0:	6b28      	ldr	r0, [r5, #48]	; 0x30
 80073c2:	68d3      	ldr	r3, [r2, #12]
 80073c4:	f423 5380 	bic.w	r3, r3, #4096	; 0x1000
 80073c8:	60d3      	str	r3, [r2, #12]
 80073ca:	e02a      	b.n	8007422 <HAL_TIM_PWM_Stop_DMA+0x9e>
 80073cc:	4a36      	ldr	r2, [pc, #216]	; (80074a8 <HAL_TIM_PWM_Stop_DMA+0x124>)
 80073ce:	4293      	cmp	r3, r2
 80073d0:	d109      	bne.n	80073e6 <HAL_TIM_PWM_Stop_DMA+0x62>
 80073d2:	b301      	cbz	r1, 8007416 <HAL_TIM_PWM_Stop_DMA+0x92>
 80073d4:	2904      	cmp	r1, #4
 80073d6:	d10a      	bne.n	80073ee <HAL_TIM_PWM_Stop_DMA+0x6a>
 80073d8:	682a      	ldr	r2, [r5, #0]
 80073da:	6aa8      	ldr	r0, [r5, #40]	; 0x28
 80073dc:	68d3      	ldr	r3, [r2, #12]
 80073de:	f423 6380 	bic.w	r3, r3, #1024	; 0x400
 80073e2:	60d3      	str	r3, [r2, #12]
 80073e4:	e01d      	b.n	8007422 <HAL_TIM_PWM_Stop_DMA+0x9e>
 80073e6:	4a31      	ldr	r2, [pc, #196]	; (80074ac <HAL_TIM_PWM_Stop_DMA+0x128>)
 80073e8:	4293      	cmp	r3, r2
 80073ea:	d10d      	bne.n	8007408 <HAL_TIM_PWM_Stop_DMA+0x84>
 80073ec:	b19c      	cbz	r4, 8007416 <HAL_TIM_PWM_Stop_DMA+0x92>
 80073ee:	4830      	ldr	r0, [pc, #192]	; (80074b0 <HAL_TIM_PWM_Stop_DMA+0x12c>)
 80073f0:	f240 7154 	movw	r1, #1876	; 0x754
 80073f4:	f7fb f962 	bl	80026bc <assert_failed>
 80073f8:	2c08      	cmp	r4, #8
 80073fa:	d03f      	beq.n	800747c <HAL_TIM_PWM_Stop_DMA+0xf8>
 80073fc:	d808      	bhi.n	8007410 <HAL_TIM_PWM_Stop_DMA+0x8c>
 80073fe:	b154      	cbz	r4, 8007416 <HAL_TIM_PWM_Stop_DMA+0x92>
 8007400:	2c04      	cmp	r4, #4
 8007402:	d0e9      	beq.n	80073d8 <HAL_TIM_PWM_Stop_DMA+0x54>
 8007404:	2001      	movs	r0, #1
 8007406:	bd38      	pop	{r3, r4, r5, pc}
 8007408:	4a2a      	ldr	r2, [pc, #168]	; (80074b4 <HAL_TIM_PWM_Stop_DMA+0x130>)
 800740a:	4293      	cmp	r3, r2
 800740c:	d0ee      	beq.n	80073ec <HAL_TIM_PWM_Stop_DMA+0x68>
 800740e:	e7ee      	b.n	80073ee <HAL_TIM_PWM_Stop_DMA+0x6a>
 8007410:	2c0c      	cmp	r4, #12
 8007412:	d0d4      	beq.n	80073be <HAL_TIM_PWM_Stop_DMA+0x3a>
 8007414:	e7f6      	b.n	8007404 <HAL_TIM_PWM_Stop_DMA+0x80>
 8007416:	682a      	ldr	r2, [r5, #0]
 8007418:	6a68      	ldr	r0, [r5, #36]	; 0x24
 800741a:	68d3      	ldr	r3, [r2, #12]
 800741c:	f423 7300 	bic.w	r3, r3, #512	; 0x200
 8007420:	60d3      	str	r3, [r2, #12]
 8007422:	f7fc fa9d 	bl	8003960 <HAL_DMA_Abort_IT>
 8007426:	2200      	movs	r2, #0
 8007428:	6828      	ldr	r0, [r5, #0]
 800742a:	4621      	mov	r1, r4
 800742c:	f7ff fe5e 	bl	80070ec <TIM_CCxChannelCmd>
 8007430:	682b      	ldr	r3, [r5, #0]
 8007432:	4a1c      	ldr	r2, [pc, #112]	; (80074a4 <HAL_TIM_PWM_Stop_DMA+0x120>)
 8007434:	4293      	cmp	r3, r2
 8007436:	d10d      	bne.n	8007454 <HAL_TIM_PWM_Stop_DMA+0xd0>
 8007438:	6a19      	ldr	r1, [r3, #32]
 800743a:	f241 1211 	movw	r2, #4369	; 0x1111
 800743e:	4211      	tst	r1, r2
 8007440:	d108      	bne.n	8007454 <HAL_TIM_PWM_Stop_DMA+0xd0>
 8007442:	6a19      	ldr	r1, [r3, #32]
 8007444:	f240 4244 	movw	r2, #1092	; 0x444
 8007448:	4211      	tst	r1, r2
 800744a:	bf02      	ittt	eq
 800744c:	6c5a      	ldreq	r2, [r3, #68]	; 0x44
 800744e:	f422 4200 	biceq.w	r2, r2, #32768	; 0x8000
 8007452:	645a      	streq	r2, [r3, #68]	; 0x44
 8007454:	6a19      	ldr	r1, [r3, #32]
 8007456:	f241 1211 	movw	r2, #4369	; 0x1111
 800745a:	4211      	tst	r1, r2
 800745c:	d108      	bne.n	8007470 <HAL_TIM_PWM_Stop_DMA+0xec>
 800745e:	6a19      	ldr	r1, [r3, #32]
 8007460:	f240 4244 	movw	r2, #1092	; 0x444
 8007464:	4211      	tst	r1, r2
 8007466:	bf02      	ittt	eq
 8007468:	681a      	ldreq	r2, [r3, #0]
 800746a:	f022 0201 	biceq.w	r2, r2, #1
 800746e:	601a      	streq	r2, [r3, #0]
 8007470:	2301      	movs	r3, #1
 8007472:	b954      	cbnz	r4, 800748a <HAL_TIM_PWM_Stop_DMA+0x106>
 8007474:	f885 303e 	strb.w	r3, [r5, #62]	; 0x3e
 8007478:	2000      	movs	r0, #0
 800747a:	e7c4      	b.n	8007406 <HAL_TIM_PWM_Stop_DMA+0x82>
 800747c:	682a      	ldr	r2, [r5, #0]
 800747e:	6ae8      	ldr	r0, [r5, #44]	; 0x2c
 8007480:	68d3      	ldr	r3, [r2, #12]
 8007482:	f423 6300 	bic.w	r3, r3, #2048	; 0x800
 8007486:	60d3      	str	r3, [r2, #12]
 8007488:	e7cb      	b.n	8007422 <HAL_TIM_PWM_Stop_DMA+0x9e>
 800748a:	2c04      	cmp	r4, #4
 800748c:	d102      	bne.n	8007494 <HAL_TIM_PWM_Stop_DMA+0x110>
 800748e:	f885 303f 	strb.w	r3, [r5, #63]	; 0x3f
 8007492:	e7f1      	b.n	8007478 <HAL_TIM_PWM_Stop_DMA+0xf4>
 8007494:	2c08      	cmp	r4, #8
 8007496:	bf0c      	ite	eq
 8007498:	f885 3040 	strbeq.w	r3, [r5, #64]	; 0x40
 800749c:	f885 3041 	strbne.w	r3, [r5, #65]	; 0x41
 80074a0:	e7ea      	b.n	8007478 <HAL_TIM_PWM_Stop_DMA+0xf4>
 80074a2:	bf00      	nop
 80074a4:	40010000 	.word	0x40010000
 80074a8:	40014000 	.word	0x40014000
 80074ac:	40014400 	.word	0x40014400
 80074b0:	0800989a 	.word	0x0800989a
 80074b4:	40014800 	.word	0x40014800

080074b8 <HAL_TIMEx_MasterConfigSynchronization>:
 80074b8:	b538      	push	{r3, r4, r5, lr}
 80074ba:	4a30      	ldr	r2, [pc, #192]	; (800757c <HAL_TIMEx_MasterConfigSynchronization+0xc4>)
 80074bc:	6803      	ldr	r3, [r0, #0]
 80074be:	4293      	cmp	r3, r2
 80074c0:	4604      	mov	r4, r0
 80074c2:	460d      	mov	r5, r1
 80074c4:	d013      	beq.n	80074ee <HAL_TIMEx_MasterConfigSynchronization+0x36>
 80074c6:	f1b3 4f80 	cmp.w	r3, #1073741824	; 0x40000000
 80074ca:	d010      	beq.n	80074ee <HAL_TIMEx_MasterConfigSynchronization+0x36>
 80074cc:	f5a2 427c 	sub.w	r2, r2, #64512	; 0xfc00
 80074d0:	4293      	cmp	r3, r2
 80074d2:	d00c      	beq.n	80074ee <HAL_TIMEx_MasterConfigSynchronization+0x36>
 80074d4:	f502 6280 	add.w	r2, r2, #1024	; 0x400
 80074d8:	4293      	cmp	r3, r2
 80074da:	d008      	beq.n	80074ee <HAL_TIMEx_MasterConfigSynchronization+0x36>
 80074dc:	f502 6280 	add.w	r2, r2, #1024	; 0x400
 80074e0:	4293      	cmp	r3, r2
 80074e2:	d004      	beq.n	80074ee <HAL_TIMEx_MasterConfigSynchronization+0x36>
 80074e4:	4826      	ldr	r0, [pc, #152]	; (8007580 <HAL_TIMEx_MasterConfigSynchronization+0xc8>)
 80074e6:	f240 71b1 	movw	r1, #1969	; 0x7b1
 80074ea:	f7fb f8e7 	bl	80026bc <assert_failed>
 80074ee:	682b      	ldr	r3, [r5, #0]
 80074f0:	f033 0330 	bics.w	r3, r3, #48	; 0x30
 80074f4:	d006      	beq.n	8007504 <HAL_TIMEx_MasterConfigSynchronization+0x4c>
 80074f6:	2b40      	cmp	r3, #64	; 0x40
 80074f8:	d004      	beq.n	8007504 <HAL_TIMEx_MasterConfigSynchronization+0x4c>
 80074fa:	4821      	ldr	r0, [pc, #132]	; (8007580 <HAL_TIMEx_MasterConfigSynchronization+0xc8>)
 80074fc:	f240 71b2 	movw	r1, #1970	; 0x7b2
 8007500:	f7fb f8dc 	bl	80026bc <assert_failed>
 8007504:	686b      	ldr	r3, [r5, #4]
 8007506:	f033 0380 	bics.w	r3, r3, #128	; 0x80
 800750a:	d004      	beq.n	8007516 <HAL_TIMEx_MasterConfigSynchronization+0x5e>
 800750c:	481c      	ldr	r0, [pc, #112]	; (8007580 <HAL_TIMEx_MasterConfigSynchronization+0xc8>)
 800750e:	f240 71b3 	movw	r1, #1971	; 0x7b3
 8007512:	f7fb f8d3 	bl	80026bc <assert_failed>
 8007516:	f894 303c 	ldrb.w	r3, [r4, #60]	; 0x3c
 800751a:	2b01      	cmp	r3, #1
 800751c:	f04f 0302 	mov.w	r3, #2
 8007520:	d02a      	beq.n	8007578 <HAL_TIMEx_MasterConfigSynchronization+0xc0>
 8007522:	f884 303d 	strb.w	r3, [r4, #61]	; 0x3d
 8007526:	6823      	ldr	r3, [r4, #0]
 8007528:	6828      	ldr	r0, [r5, #0]
 800752a:	6859      	ldr	r1, [r3, #4]
 800752c:	689a      	ldr	r2, [r3, #8]
 800752e:	f021 0170 	bic.w	r1, r1, #112	; 0x70
 8007532:	4301      	orrs	r1, r0
 8007534:	6059      	str	r1, [r3, #4]
 8007536:	4911      	ldr	r1, [pc, #68]	; (800757c <HAL_TIMEx_MasterConfigSynchronization+0xc4>)
 8007538:	428b      	cmp	r3, r1
 800753a:	d012      	beq.n	8007562 <HAL_TIMEx_MasterConfigSynchronization+0xaa>
 800753c:	f1b3 4f80 	cmp.w	r3, #1073741824	; 0x40000000
 8007540:	d00f      	beq.n	8007562 <HAL_TIMEx_MasterConfigSynchronization+0xaa>
 8007542:	f5a1 417c 	sub.w	r1, r1, #64512	; 0xfc00
 8007546:	428b      	cmp	r3, r1
 8007548:	d00b      	beq.n	8007562 <HAL_TIMEx_MasterConfigSynchronization+0xaa>
 800754a:	f501 6180 	add.w	r1, r1, #1024	; 0x400
 800754e:	428b      	cmp	r3, r1
 8007550:	d007      	beq.n	8007562 <HAL_TIMEx_MasterConfigSynchronization+0xaa>
 8007552:	f501 6180 	add.w	r1, r1, #1024	; 0x400
 8007556:	428b      	cmp	r3, r1
 8007558:	d003      	beq.n	8007562 <HAL_TIMEx_MasterConfigSynchronization+0xaa>
 800755a:	f501 319a 	add.w	r1, r1, #78848	; 0x13400
 800755e:	428b      	cmp	r3, r1
 8007560:	d104      	bne.n	800756c <HAL_TIMEx_MasterConfigSynchronization+0xb4>
 8007562:	6869      	ldr	r1, [r5, #4]
 8007564:	f022 0280 	bic.w	r2, r2, #128	; 0x80
 8007568:	430a      	orrs	r2, r1
 800756a:	609a      	str	r2, [r3, #8]
 800756c:	2301      	movs	r3, #1
 800756e:	f884 303d 	strb.w	r3, [r4, #61]	; 0x3d
 8007572:	2300      	movs	r3, #0
 8007574:	f884 303c 	strb.w	r3, [r4, #60]	; 0x3c
 8007578:	4618      	mov	r0, r3
 800757a:	bd38      	pop	{r3, r4, r5, pc}
 800757c:	40010000 	.word	0x40010000
 8007580:	080098d2 	.word	0x080098d2

08007584 <HAL_TIMEx_ConfigBreakDeadTime>:
 8007584:	b538      	push	{r3, r4, r5, lr}
 8007586:	6802      	ldr	r2, [r0, #0]
 8007588:	4b36      	ldr	r3, [pc, #216]	; (8007664 <HAL_TIMEx_ConfigBreakDeadTime+0xe0>)
 800758a:	429a      	cmp	r2, r3
 800758c:	4604      	mov	r4, r0
 800758e:	460d      	mov	r5, r1
 8007590:	d004      	beq.n	800759c <HAL_TIMEx_ConfigBreakDeadTime+0x18>
 8007592:	4835      	ldr	r0, [pc, #212]	; (8007668 <HAL_TIMEx_ConfigBreakDeadTime+0xe4>)
 8007594:	f240 71ee 	movw	r1, #2030	; 0x7ee
 8007598:	f7fb f890 	bl	80026bc <assert_failed>
 800759c:	682b      	ldr	r3, [r5, #0]
 800759e:	f433 6300 	bics.w	r3, r3, #2048	; 0x800
 80075a2:	d004      	beq.n	80075ae <HAL_TIMEx_ConfigBreakDeadTime+0x2a>
 80075a4:	4830      	ldr	r0, [pc, #192]	; (8007668 <HAL_TIMEx_ConfigBreakDeadTime+0xe4>)
 80075a6:	f240 71ef 	movw	r1, #2031	; 0x7ef
 80075aa:	f7fb f887 	bl	80026bc <assert_failed>
 80075ae:	686b      	ldr	r3, [r5, #4]
 80075b0:	f433 6380 	bics.w	r3, r3, #1024	; 0x400
 80075b4:	d004      	beq.n	80075c0 <HAL_TIMEx_ConfigBreakDeadTime+0x3c>
 80075b6:	482c      	ldr	r0, [pc, #176]	; (8007668 <HAL_TIMEx_ConfigBreakDeadTime+0xe4>)
 80075b8:	f44f 61fe 	mov.w	r1, #2032	; 0x7f0
 80075bc:	f7fb f87e 	bl	80026bc <assert_failed>
 80075c0:	68ab      	ldr	r3, [r5, #8]
 80075c2:	f433 7340 	bics.w	r3, r3, #768	; 0x300
 80075c6:	d004      	beq.n	80075d2 <HAL_TIMEx_ConfigBreakDeadTime+0x4e>
 80075c8:	4827      	ldr	r0, [pc, #156]	; (8007668 <HAL_TIMEx_ConfigBreakDeadTime+0xe4>)
 80075ca:	f240 71f1 	movw	r1, #2033	; 0x7f1
 80075ce:	f7fb f875 	bl	80026bc <assert_failed>
 80075d2:	68eb      	ldr	r3, [r5, #12]
 80075d4:	2bff      	cmp	r3, #255	; 0xff
 80075d6:	d904      	bls.n	80075e2 <HAL_TIMEx_ConfigBreakDeadTime+0x5e>
 80075d8:	4823      	ldr	r0, [pc, #140]	; (8007668 <HAL_TIMEx_ConfigBreakDeadTime+0xe4>)
 80075da:	f240 71f2 	movw	r1, #2034	; 0x7f2
 80075de:	f7fb f86d 	bl	80026bc <assert_failed>
 80075e2:	692b      	ldr	r3, [r5, #16]
 80075e4:	f433 5380 	bics.w	r3, r3, #4096	; 0x1000
 80075e8:	d004      	beq.n	80075f4 <HAL_TIMEx_ConfigBreakDeadTime+0x70>
 80075ea:	481f      	ldr	r0, [pc, #124]	; (8007668 <HAL_TIMEx_ConfigBreakDeadTime+0xe4>)
 80075ec:	f240 71f3 	movw	r1, #2035	; 0x7f3
 80075f0:	f7fb f864 	bl	80026bc <assert_failed>
 80075f4:	696b      	ldr	r3, [r5, #20]
 80075f6:	f433 5300 	bics.w	r3, r3, #8192	; 0x2000
 80075fa:	d004      	beq.n	8007606 <HAL_TIMEx_ConfigBreakDeadTime+0x82>
 80075fc:	481a      	ldr	r0, [pc, #104]	; (8007668 <HAL_TIMEx_ConfigBreakDeadTime+0xe4>)
 80075fe:	f240 71f4 	movw	r1, #2036	; 0x7f4
 8007602:	f7fb f85b 	bl	80026bc <assert_failed>
 8007606:	69eb      	ldr	r3, [r5, #28]
 8007608:	f433 4380 	bics.w	r3, r3, #16384	; 0x4000
 800760c:	d004      	beq.n	8007618 <HAL_TIMEx_ConfigBreakDeadTime+0x94>
 800760e:	4816      	ldr	r0, [pc, #88]	; (8007668 <HAL_TIMEx_ConfigBreakDeadTime+0xe4>)
 8007610:	f240 71f5 	movw	r1, #2037	; 0x7f5
 8007614:	f7fb f852 	bl	80026bc <assert_failed>
 8007618:	f894 303c 	ldrb.w	r3, [r4, #60]	; 0x3c
 800761c:	2b01      	cmp	r3, #1
 800761e:	d01e      	beq.n	800765e <HAL_TIMEx_ConfigBreakDeadTime+0xda>
 8007620:	68eb      	ldr	r3, [r5, #12]
 8007622:	68aa      	ldr	r2, [r5, #8]
 8007624:	f423 7340 	bic.w	r3, r3, #768	; 0x300
 8007628:	4313      	orrs	r3, r2
 800762a:	686a      	ldr	r2, [r5, #4]
 800762c:	f423 6380 	bic.w	r3, r3, #1024	; 0x400
 8007630:	4313      	orrs	r3, r2
 8007632:	682a      	ldr	r2, [r5, #0]
 8007634:	f423 6300 	bic.w	r3, r3, #2048	; 0x800
 8007638:	4313      	orrs	r3, r2
 800763a:	692a      	ldr	r2, [r5, #16]
 800763c:	f423 5380 	bic.w	r3, r3, #4096	; 0x1000
 8007640:	4313      	orrs	r3, r2
 8007642:	696a      	ldr	r2, [r5, #20]
 8007644:	f423 5300 	bic.w	r3, r3, #8192	; 0x2000
 8007648:	4313      	orrs	r3, r2
 800764a:	69ea      	ldr	r2, [r5, #28]
 800764c:	f423 4380 	bic.w	r3, r3, #16384	; 0x4000
 8007650:	4313      	orrs	r3, r2
 8007652:	6822      	ldr	r2, [r4, #0]
 8007654:	2000      	movs	r0, #0
 8007656:	6453      	str	r3, [r2, #68]	; 0x44
 8007658:	f884 003c 	strb.w	r0, [r4, #60]	; 0x3c
 800765c:	bd38      	pop	{r3, r4, r5, pc}
 800765e:	2002      	movs	r0, #2
 8007660:	e7fc      	b.n	800765c <HAL_TIMEx_ConfigBreakDeadTime+0xd8>
 8007662:	bf00      	nop
 8007664:	40010000 	.word	0x40010000
 8007668:	080098d2 	.word	0x080098d2

0800766c <HAL_TIMEx_CommutCallback>:
 800766c:	4770      	bx	lr

0800766e <HAL_TIMEx_BreakCallback>:
 800766e:	4770      	bx	lr

08007670 <USB_CoreReset>:
 8007670:	b082      	sub	sp, #8
 8007672:	2300      	movs	r3, #0
 8007674:	4a0f      	ldr	r2, [pc, #60]	; (80076b4 <USB_CoreReset+0x44>)
 8007676:	9301      	str	r3, [sp, #4]
 8007678:	9b01      	ldr	r3, [sp, #4]
 800767a:	3301      	adds	r3, #1
 800767c:	4293      	cmp	r3, r2
 800767e:	9301      	str	r3, [sp, #4]
 8007680:	d815      	bhi.n	80076ae <USB_CoreReset+0x3e>
 8007682:	6903      	ldr	r3, [r0, #16]
 8007684:	2b00      	cmp	r3, #0
 8007686:	daf7      	bge.n	8007678 <USB_CoreReset+0x8>
 8007688:	2300      	movs	r3, #0
 800768a:	9301      	str	r3, [sp, #4]
 800768c:	6903      	ldr	r3, [r0, #16]
 800768e:	4a09      	ldr	r2, [pc, #36]	; (80076b4 <USB_CoreReset+0x44>)
 8007690:	f043 0301 	orr.w	r3, r3, #1
 8007694:	6103      	str	r3, [r0, #16]
 8007696:	9b01      	ldr	r3, [sp, #4]
 8007698:	3301      	adds	r3, #1
 800769a:	4293      	cmp	r3, r2
 800769c:	9301      	str	r3, [sp, #4]
 800769e:	d806      	bhi.n	80076ae <USB_CoreReset+0x3e>
 80076a0:	6903      	ldr	r3, [r0, #16]
 80076a2:	f013 0301 	ands.w	r3, r3, #1
 80076a6:	d1f6      	bne.n	8007696 <USB_CoreReset+0x26>
 80076a8:	4618      	mov	r0, r3
 80076aa:	b002      	add	sp, #8
 80076ac:	4770      	bx	lr
 80076ae:	2003      	movs	r0, #3
 80076b0:	e7fb      	b.n	80076aa <USB_CoreReset+0x3a>
 80076b2:	bf00      	nop
 80076b4:	00030d40 	.word	0x00030d40

080076b8 <USB_CoreInit>:
 80076b8:	b084      	sub	sp, #16
 80076ba:	b538      	push	{r3, r4, r5, lr}
 80076bc:	ad05      	add	r5, sp, #20
 80076be:	e885 000e 	stmia.w	r5, {r1, r2, r3}
 80076c2:	9b0a      	ldr	r3, [sp, #40]	; 0x28
 80076c4:	2b01      	cmp	r3, #1
 80076c6:	4604      	mov	r4, r0
 80076c8:	d125      	bne.n	8007716 <USB_CoreInit+0x5e>
 80076ca:	6b83      	ldr	r3, [r0, #56]	; 0x38
 80076cc:	f423 3380 	bic.w	r3, r3, #65536	; 0x10000
 80076d0:	6383      	str	r3, [r0, #56]	; 0x38
 80076d2:	68c3      	ldr	r3, [r0, #12]
 80076d4:	f423 0384 	bic.w	r3, r3, #4325376	; 0x420000
 80076d8:	f023 0340 	bic.w	r3, r3, #64	; 0x40
 80076dc:	60c3      	str	r3, [r0, #12]
 80076de:	68c3      	ldr	r3, [r0, #12]
 80076e0:	f423 1340 	bic.w	r3, r3, #3145728	; 0x300000
 80076e4:	60c3      	str	r3, [r0, #12]
 80076e6:	9b11      	ldr	r3, [sp, #68]	; 0x44
 80076e8:	2b01      	cmp	r3, #1
 80076ea:	bf02      	ittt	eq
 80076ec:	68c3      	ldreq	r3, [r0, #12]
 80076ee:	f443 1380 	orreq.w	r3, r3, #1048576	; 0x100000
 80076f2:	60c3      	streq	r3, [r0, #12]
 80076f4:	f7ff ffbc 	bl	8007670 <USB_CoreReset>
 80076f8:	9b08      	ldr	r3, [sp, #32]
 80076fa:	2b01      	cmp	r3, #1
 80076fc:	d107      	bne.n	800770e <USB_CoreInit+0x56>
 80076fe:	68a3      	ldr	r3, [r4, #8]
 8007700:	f043 0306 	orr.w	r3, r3, #6
 8007704:	60a3      	str	r3, [r4, #8]
 8007706:	68a3      	ldr	r3, [r4, #8]
 8007708:	f043 0320 	orr.w	r3, r3, #32
 800770c:	60a3      	str	r3, [r4, #8]
 800770e:	e8bd 4038 	ldmia.w	sp!, {r3, r4, r5, lr}
 8007712:	b004      	add	sp, #16
 8007714:	4770      	bx	lr
 8007716:	68c3      	ldr	r3, [r0, #12]
 8007718:	f043 0340 	orr.w	r3, r3, #64	; 0x40
 800771c:	60c3      	str	r3, [r0, #12]
 800771e:	f7ff ffa7 	bl	8007670 <USB_CoreReset>
 8007722:	9b0e      	ldr	r3, [sp, #56]	; 0x38
 8007724:	b923      	cbnz	r3, 8007730 <USB_CoreInit+0x78>
 8007726:	6ba3      	ldr	r3, [r4, #56]	; 0x38
 8007728:	f443 3380 	orr.w	r3, r3, #65536	; 0x10000
 800772c:	63a3      	str	r3, [r4, #56]	; 0x38
 800772e:	e7e3      	b.n	80076f8 <USB_CoreInit+0x40>
 8007730:	6ba3      	ldr	r3, [r4, #56]	; 0x38
 8007732:	f423 3380 	bic.w	r3, r3, #65536	; 0x10000
 8007736:	e7f9      	b.n	800772c <USB_CoreInit+0x74>

08007738 <USB_EnableGlobalInt>:
 8007738:	6883      	ldr	r3, [r0, #8]
 800773a:	f043 0301 	orr.w	r3, r3, #1
 800773e:	6083      	str	r3, [r0, #8]
 8007740:	2000      	movs	r0, #0
 8007742:	4770      	bx	lr

08007744 <USB_DisableGlobalInt>:
 8007744:	6883      	ldr	r3, [r0, #8]
 8007746:	f023 0301 	bic.w	r3, r3, #1
 800774a:	6083      	str	r3, [r0, #8]
 800774c:	2000      	movs	r0, #0
 800774e:	4770      	bx	lr

08007750 <USB_SetCurrentMode>:
 8007750:	b538      	push	{r3, r4, r5, lr}
 8007752:	68c3      	ldr	r3, [r0, #12]
 8007754:	2901      	cmp	r1, #1
 8007756:	f023 43c0 	bic.w	r3, r3, #1610612736	; 0x60000000
 800775a:	4605      	mov	r5, r0
 800775c:	60c3      	str	r3, [r0, #12]
 800775e:	d110      	bne.n	8007782 <USB_SetCurrentMode+0x32>
 8007760:	68c3      	ldr	r3, [r0, #12]
 8007762:	f043 5300 	orr.w	r3, r3, #536870912	; 0x20000000
 8007766:	60c3      	str	r3, [r0, #12]
 8007768:	2400      	movs	r4, #0
 800776a:	2001      	movs	r0, #1
 800776c:	f7fb fcd6 	bl	800311c <HAL_Delay>
 8007770:	696b      	ldr	r3, [r5, #20]
 8007772:	07d9      	lsls	r1, r3, #31
 8007774:	f104 0401 	add.w	r4, r4, #1
 8007778:	d415      	bmi.n	80077a6 <USB_SetCurrentMode+0x56>
 800777a:	2c32      	cmp	r4, #50	; 0x32
 800777c:	d1f5      	bne.n	800776a <USB_SetCurrentMode+0x1a>
 800777e:	2001      	movs	r0, #1
 8007780:	bd38      	pop	{r3, r4, r5, pc}
 8007782:	2900      	cmp	r1, #0
 8007784:	d1fb      	bne.n	800777e <USB_SetCurrentMode+0x2e>
 8007786:	68c3      	ldr	r3, [r0, #12]
 8007788:	f043 4380 	orr.w	r3, r3, #1073741824	; 0x40000000
 800778c:	60c3      	str	r3, [r0, #12]
 800778e:	460c      	mov	r4, r1
 8007790:	2001      	movs	r0, #1
 8007792:	f7fb fcc3 	bl	800311c <HAL_Delay>
 8007796:	696b      	ldr	r3, [r5, #20]
 8007798:	07da      	lsls	r2, r3, #31
 800779a:	f104 0401 	add.w	r4, r4, #1
 800779e:	d502      	bpl.n	80077a6 <USB_SetCurrentMode+0x56>
 80077a0:	2c32      	cmp	r4, #50	; 0x32
 80077a2:	d1f5      	bne.n	8007790 <USB_SetCurrentMode+0x40>
 80077a4:	e7eb      	b.n	800777e <USB_SetCurrentMode+0x2e>
 80077a6:	f1a4 0332 	sub.w	r3, r4, #50	; 0x32
 80077aa:	4258      	negs	r0, r3
 80077ac:	4158      	adcs	r0, r3
 80077ae:	e7e7      	b.n	8007780 <USB_SetCurrentMode+0x30>

080077b0 <USB_FlushTxFifo>:
 80077b0:	b082      	sub	sp, #8
 80077b2:	0189      	lsls	r1, r1, #6
 80077b4:	2300      	movs	r3, #0
 80077b6:	f041 0120 	orr.w	r1, r1, #32
 80077ba:	4a08      	ldr	r2, [pc, #32]	; (80077dc <USB_FlushTxFifo+0x2c>)
 80077bc:	9301      	str	r3, [sp, #4]
 80077be:	6101      	str	r1, [r0, #16]
 80077c0:	9b01      	ldr	r3, [sp, #4]
 80077c2:	3301      	adds	r3, #1
 80077c4:	4293      	cmp	r3, r2
 80077c6:	9301      	str	r3, [sp, #4]
 80077c8:	d806      	bhi.n	80077d8 <USB_FlushTxFifo+0x28>
 80077ca:	6903      	ldr	r3, [r0, #16]
 80077cc:	f013 0320 	ands.w	r3, r3, #32
 80077d0:	d1f6      	bne.n	80077c0 <USB_FlushTxFifo+0x10>
 80077d2:	4618      	mov	r0, r3
 80077d4:	b002      	add	sp, #8
 80077d6:	4770      	bx	lr
 80077d8:	2003      	movs	r0, #3
 80077da:	e7fb      	b.n	80077d4 <USB_FlushTxFifo+0x24>
 80077dc:	00030d40 	.word	0x00030d40

080077e0 <USB_FlushRxFifo>:
 80077e0:	b082      	sub	sp, #8
 80077e2:	2300      	movs	r3, #0
 80077e4:	9301      	str	r3, [sp, #4]
 80077e6:	4a08      	ldr	r2, [pc, #32]	; (8007808 <USB_FlushRxFifo+0x28>)
 80077e8:	2310      	movs	r3, #16
 80077ea:	6103      	str	r3, [r0, #16]
 80077ec:	9b01      	ldr	r3, [sp, #4]
 80077ee:	3301      	adds	r3, #1
 80077f0:	4293      	cmp	r3, r2
 80077f2:	9301      	str	r3, [sp, #4]
 80077f4:	d806      	bhi.n	8007804 <USB_FlushRxFifo+0x24>
 80077f6:	6903      	ldr	r3, [r0, #16]
 80077f8:	f013 0310 	ands.w	r3, r3, #16
 80077fc:	d1f6      	bne.n	80077ec <USB_FlushRxFifo+0xc>
 80077fe:	4618      	mov	r0, r3
 8007800:	b002      	add	sp, #8
 8007802:	4770      	bx	lr
 8007804:	2003      	movs	r0, #3
 8007806:	e7fb      	b.n	8007800 <USB_FlushRxFifo+0x20>
 8007808:	00030d40 	.word	0x00030d40

0800780c <USB_WritePacket>:
 800780c:	b510      	push	{r4, lr}
 800780e:	f89d 4008 	ldrb.w	r4, [sp, #8]
 8007812:	b944      	cbnz	r4, 8007826 <USB_WritePacket+0x1a>
 8007814:	3303      	adds	r3, #3
 8007816:	3201      	adds	r2, #1
 8007818:	089b      	lsrs	r3, r3, #2
 800781a:	eb00 3002 	add.w	r0, r0, r2, lsl #12
 800781e:	eb01 0383 	add.w	r3, r1, r3, lsl #2
 8007822:	428b      	cmp	r3, r1
 8007824:	d101      	bne.n	800782a <USB_WritePacket+0x1e>
 8007826:	2000      	movs	r0, #0
 8007828:	bd10      	pop	{r4, pc}
 800782a:	f851 2b04 	ldr.w	r2, [r1], #4
 800782e:	6002      	str	r2, [r0, #0]
 8007830:	e7f7      	b.n	8007822 <USB_WritePacket+0x16>

08007832 <USB_ReadPacket>:
 8007832:	b570      	push	{r4, r5, r6, lr}
 8007834:	2300      	movs	r3, #0
 8007836:	0894      	lsrs	r4, r2, #2
 8007838:	f500 5580 	add.w	r5, r0, #4096	; 0x1000
 800783c:	f002 0203 	and.w	r2, r2, #3
 8007840:	42a3      	cmp	r3, r4
 8007842:	d314      	bcc.n	800786e <USB_ReadPacket+0x3c>
 8007844:	eb01 0184 	add.w	r1, r1, r4, lsl #2
 8007848:	b17a      	cbz	r2, 800786a <USB_ReadPacket+0x38>
 800784a:	f500 5080 	add.w	r0, r0, #4096	; 0x1000
 800784e:	2300      	movs	r3, #0
 8007850:	6804      	ldr	r4, [r0, #0]
 8007852:	00d8      	lsls	r0, r3, #3
 8007854:	fa24 f000 	lsr.w	r0, r4, r0
 8007858:	54c8      	strb	r0, [r1, r3]
 800785a:	3301      	adds	r3, #1
 800785c:	b298      	uxth	r0, r3
 800785e:	4282      	cmp	r2, r0
 8007860:	d1f7      	bne.n	8007852 <USB_ReadPacket+0x20>
 8007862:	3a01      	subs	r2, #1
 8007864:	b292      	uxth	r2, r2
 8007866:	3201      	adds	r2, #1
 8007868:	4411      	add	r1, r2
 800786a:	4608      	mov	r0, r1
 800786c:	bd70      	pop	{r4, r5, r6, pc}
 800786e:	682e      	ldr	r6, [r5, #0]
 8007870:	f841 6023 	str.w	r6, [r1, r3, lsl #2]
 8007874:	3301      	adds	r3, #1
 8007876:	e7e3      	b.n	8007840 <USB_ReadPacket+0xe>

08007878 <USB_ReadInterrupts>:
 8007878:	6942      	ldr	r2, [r0, #20]
 800787a:	6980      	ldr	r0, [r0, #24]
 800787c:	4010      	ands	r0, r2
 800787e:	4770      	bx	lr

08007880 <USB_GetMode>:
 8007880:	6940      	ldr	r0, [r0, #20]
 8007882:	f000 0001 	and.w	r0, r0, #1
 8007886:	4770      	bx	lr

08007888 <USB_HostInit>:
 8007888:	b084      	sub	sp, #16
 800788a:	b538      	push	{r3, r4, r5, lr}
 800788c:	4604      	mov	r4, r0
 800788e:	a805      	add	r0, sp, #20
 8007890:	e880 000e 	stmia.w	r0, {r1, r2, r3}
 8007894:	2300      	movs	r3, #0
 8007896:	f8c4 3e00 	str.w	r3, [r4, #3584]	; 0xe00
 800789a:	6ba3      	ldr	r3, [r4, #56]	; 0x38
 800789c:	f443 1300 	orr.w	r3, r3, #2097152	; 0x200000
 80078a0:	63a3      	str	r3, [r4, #56]	; 0x38
 80078a2:	6ba3      	ldr	r3, [r4, #56]	; 0x38
 80078a4:	f423 2300 	bic.w	r3, r3, #524288	; 0x80000
 80078a8:	63a3      	str	r3, [r4, #56]	; 0x38
 80078aa:	6ba3      	ldr	r3, [r4, #56]	; 0x38
 80078ac:	f423 2380 	bic.w	r3, r3, #262144	; 0x40000
 80078b0:	63a3      	str	r3, [r4, #56]	; 0x38
 80078b2:	6be3      	ldr	r3, [r4, #60]	; 0x3c
 80078b4:	05da      	lsls	r2, r3, #23
 80078b6:	d535      	bpl.n	8007924 <USB_HostInit+0x9c>
 80078b8:	9b07      	ldr	r3, [sp, #28]
 80078ba:	2b01      	cmp	r3, #1
 80078bc:	f8d4 3400 	ldr.w	r3, [r4, #1024]	; 0x400
 80078c0:	d132      	bne.n	8007928 <USB_HostInit+0xa0>
 80078c2:	f043 0304 	orr.w	r3, r3, #4
 80078c6:	f8c4 3400 	str.w	r3, [r4, #1024]	; 0x400
 80078ca:	2110      	movs	r1, #16
 80078cc:	4620      	mov	r0, r4
 80078ce:	f7ff ff6f 	bl	80077b0 <USB_FlushTxFifo>
 80078d2:	4620      	mov	r0, r4
 80078d4:	f7ff ff84 	bl	80077e0 <USB_FlushRxFifo>
 80078d8:	2300      	movs	r3, #0
 80078da:	9d06      	ldr	r5, [sp, #24]
 80078dc:	f504 62a0 	add.w	r2, r4, #1280	; 0x500
 80078e0:	4618      	mov	r0, r3
 80078e2:	f04f 31ff 	mov.w	r1, #4294967295	; 0xffffffff
 80078e6:	429d      	cmp	r5, r3
 80078e8:	d121      	bne.n	800792e <USB_HostInit+0xa6>
 80078ea:	61a0      	str	r0, [r4, #24]
 80078ec:	6161      	str	r1, [r4, #20]
 80078ee:	6be3      	ldr	r3, [r4, #60]	; 0x3c
 80078f0:	05db      	lsls	r3, r3, #23
 80078f2:	d521      	bpl.n	8007938 <USB_HostInit+0xb0>
 80078f4:	f44f 7300 	mov.w	r3, #512	; 0x200
 80078f8:	6263      	str	r3, [r4, #36]	; 0x24
 80078fa:	f103 7380 	add.w	r3, r3, #16777216	; 0x1000000
 80078fe:	62a3      	str	r3, [r4, #40]	; 0x28
 8007900:	4b11      	ldr	r3, [pc, #68]	; (8007948 <USB_HostInit+0xc0>)
 8007902:	f8c4 3100 	str.w	r3, [r4, #256]	; 0x100
 8007906:	9b08      	ldr	r3, [sp, #32]
 8007908:	b91b      	cbnz	r3, 8007912 <USB_HostInit+0x8a>
 800790a:	69a3      	ldr	r3, [r4, #24]
 800790c:	f043 0310 	orr.w	r3, r3, #16
 8007910:	61a3      	str	r3, [r4, #24]
 8007912:	69a2      	ldr	r2, [r4, #24]
 8007914:	4b0d      	ldr	r3, [pc, #52]	; (800794c <USB_HostInit+0xc4>)
 8007916:	4313      	orrs	r3, r2
 8007918:	61a3      	str	r3, [r4, #24]
 800791a:	e8bd 4038 	ldmia.w	sp!, {r3, r4, r5, lr}
 800791e:	2000      	movs	r0, #0
 8007920:	b004      	add	sp, #16
 8007922:	4770      	bx	lr
 8007924:	f8d4 3400 	ldr.w	r3, [r4, #1024]	; 0x400
 8007928:	f023 0304 	bic.w	r3, r3, #4
 800792c:	e7cb      	b.n	80078c6 <USB_HostInit+0x3e>
 800792e:	6091      	str	r1, [r2, #8]
 8007930:	3301      	adds	r3, #1
 8007932:	60d0      	str	r0, [r2, #12]
 8007934:	3220      	adds	r2, #32
 8007936:	e7d6      	b.n	80078e6 <USB_HostInit+0x5e>
 8007938:	2380      	movs	r3, #128	; 0x80
 800793a:	6263      	str	r3, [r4, #36]	; 0x24
 800793c:	f503 03c0 	add.w	r3, r3, #6291456	; 0x600000
 8007940:	62a3      	str	r3, [r4, #40]	; 0x28
 8007942:	4b03      	ldr	r3, [pc, #12]	; (8007950 <USB_HostInit+0xc8>)
 8007944:	e7dd      	b.n	8007902 <USB_HostInit+0x7a>
 8007946:	bf00      	nop
 8007948:	00e00300 	.word	0x00e00300
 800794c:	a3200008 	.word	0xa3200008
 8007950:	004000e0 	.word	0x004000e0

08007954 <USB_InitFSLSPClkSel>:
 8007954:	f8d0 3400 	ldr.w	r3, [r0, #1024]	; 0x400
 8007958:	f023 0303 	bic.w	r3, r3, #3
 800795c:	b510      	push	{r4, lr}
 800795e:	f8c0 3400 	str.w	r3, [r0, #1024]	; 0x400
 8007962:	f8d0 4400 	ldr.w	r4, [r0, #1024]	; 0x400
 8007966:	f001 0303 	and.w	r3, r1, #3
 800796a:	4323      	orrs	r3, r4
 800796c:	2901      	cmp	r1, #1
 800796e:	f500 6280 	add.w	r2, r0, #1024	; 0x400
 8007972:	f8c0 3400 	str.w	r3, [r0, #1024]	; 0x400
 8007976:	d104      	bne.n	8007982 <USB_InitFSLSPClkSel+0x2e>
 8007978:	f64b 3380 	movw	r3, #48000	; 0xbb80
 800797c:	6053      	str	r3, [r2, #4]
 800797e:	2000      	movs	r0, #0
 8007980:	bd10      	pop	{r4, pc}
 8007982:	2902      	cmp	r1, #2
 8007984:	d1fb      	bne.n	800797e <USB_InitFSLSPClkSel+0x2a>
 8007986:	f241 7370 	movw	r3, #6000	; 0x1770
 800798a:	e7f7      	b.n	800797c <USB_InitFSLSPClkSel+0x28>

0800798c <USB_ResetPort>:
 800798c:	b537      	push	{r0, r1, r2, r4, r5, lr}
 800798e:	2500      	movs	r5, #0
 8007990:	9501      	str	r5, [sp, #4]
 8007992:	f8d0 3440 	ldr.w	r3, [r0, #1088]	; 0x440
 8007996:	9301      	str	r3, [sp, #4]
 8007998:	9b01      	ldr	r3, [sp, #4]
 800799a:	f023 032e 	bic.w	r3, r3, #46	; 0x2e
 800799e:	9301      	str	r3, [sp, #4]
 80079a0:	9b01      	ldr	r3, [sp, #4]
 80079a2:	f443 7380 	orr.w	r3, r3, #256	; 0x100
 80079a6:	4604      	mov	r4, r0
 80079a8:	f8c0 3440 	str.w	r3, [r0, #1088]	; 0x440
 80079ac:	2064      	movs	r0, #100	; 0x64
 80079ae:	f7fb fbb5 	bl	800311c <HAL_Delay>
 80079b2:	9b01      	ldr	r3, [sp, #4]
 80079b4:	f423 7380 	bic.w	r3, r3, #256	; 0x100
 80079b8:	f8c4 3440 	str.w	r3, [r4, #1088]	; 0x440
 80079bc:	200a      	movs	r0, #10
 80079be:	f7fb fbad 	bl	800311c <HAL_Delay>
 80079c2:	4628      	mov	r0, r5
 80079c4:	b003      	add	sp, #12
 80079c6:	bd30      	pop	{r4, r5, pc}

080079c8 <USB_DriveVbus>:
 80079c8:	b082      	sub	sp, #8
 80079ca:	2300      	movs	r3, #0
 80079cc:	9301      	str	r3, [sp, #4]
 80079ce:	f8d0 3440 	ldr.w	r3, [r0, #1088]	; 0x440
 80079d2:	9301      	str	r3, [sp, #4]
 80079d4:	9b01      	ldr	r3, [sp, #4]
 80079d6:	f023 032e 	bic.w	r3, r3, #46	; 0x2e
 80079da:	9301      	str	r3, [sp, #4]
 80079dc:	9b01      	ldr	r3, [sp, #4]
 80079de:	04da      	lsls	r2, r3, #19
 80079e0:	d406      	bmi.n	80079f0 <USB_DriveVbus+0x28>
 80079e2:	2901      	cmp	r1, #1
 80079e4:	bf02      	ittt	eq
 80079e6:	9b01      	ldreq	r3, [sp, #4]
 80079e8:	f443 5380 	orreq.w	r3, r3, #4096	; 0x1000
 80079ec:	f8c0 3440 	streq.w	r3, [r0, #1088]	; 0x440
 80079f0:	9b01      	ldr	r3, [sp, #4]
 80079f2:	04db      	lsls	r3, r3, #19
 80079f4:	d505      	bpl.n	8007a02 <USB_DriveVbus+0x3a>
 80079f6:	b921      	cbnz	r1, 8007a02 <USB_DriveVbus+0x3a>
 80079f8:	9b01      	ldr	r3, [sp, #4]
 80079fa:	f423 5380 	bic.w	r3, r3, #4096	; 0x1000
 80079fe:	f8c0 3440 	str.w	r3, [r0, #1088]	; 0x440
 8007a02:	2000      	movs	r0, #0
 8007a04:	b002      	add	sp, #8
 8007a06:	4770      	bx	lr

08007a08 <USB_GetHostSpeed>:
 8007a08:	b082      	sub	sp, #8
 8007a0a:	2300      	movs	r3, #0
 8007a0c:	9301      	str	r3, [sp, #4]
 8007a0e:	f8d0 3440 	ldr.w	r3, [r0, #1088]	; 0x440
 8007a12:	9301      	str	r3, [sp, #4]
 8007a14:	9801      	ldr	r0, [sp, #4]
 8007a16:	f3c0 4041 	ubfx	r0, r0, #17, #2
 8007a1a:	b002      	add	sp, #8
 8007a1c:	4770      	bx	lr

08007a1e <USB_GetCurrentFrame>:
 8007a1e:	f500 6080 	add.w	r0, r0, #1024	; 0x400
 8007a22:	6880      	ldr	r0, [r0, #8]
 8007a24:	b280      	uxth	r0, r0
 8007a26:	4770      	bx	lr

08007a28 <USB_HC_Init>:
 8007a28:	e92d 41f0 	stmdb	sp!, {r4, r5, r6, r7, r8, lr}
 8007a2c:	eb00 1641 	add.w	r6, r0, r1, lsl #5
 8007a30:	f506 65a0 	add.w	r5, r6, #1280	; 0x500
 8007a34:	f89d 701c 	ldrb.w	r7, [sp, #28]
 8007a38:	461c      	mov	r4, r3
 8007a3a:	f04f 33ff 	mov.w	r3, #4294967295	; 0xffffffff
 8007a3e:	60ab      	str	r3, [r5, #8]
 8007a40:	fa4f fc82 	sxtb.w	ip, r2
 8007a44:	2f03      	cmp	r7, #3
 8007a46:	d865      	bhi.n	8007b14 <USB_HC_Init+0xec>
 8007a48:	e8df f007 	tbb	[pc, r7]
 8007a4c:	53025a02 	.word	0x53025a02
 8007a50:	f240 439d 	movw	r3, #1181	; 0x49d
 8007a54:	f1bc 0f00 	cmp.w	ip, #0
 8007a58:	60eb      	str	r3, [r5, #12]
 8007a5a:	da03      	bge.n	8007a64 <USB_HC_Init+0x3c>
 8007a5c:	68eb      	ldr	r3, [r5, #12]
 8007a5e:	f443 7380 	orr.w	r3, r3, #256	; 0x100
 8007a62:	e044      	b.n	8007aee <USB_HC_Init+0xc6>
 8007a64:	6bc3      	ldr	r3, [r0, #60]	; 0x3c
 8007a66:	05db      	lsls	r3, r3, #23
 8007a68:	d43e      	bmi.n	8007ae8 <USB_HC_Init+0xc0>
 8007a6a:	2500      	movs	r5, #0
 8007a6c:	f8d0 8418 	ldr.w	r8, [r0, #1048]	; 0x418
 8007a70:	f001 030f 	and.w	r3, r1, #15
 8007a74:	2101      	movs	r1, #1
 8007a76:	4099      	lsls	r1, r3
 8007a78:	ea41 0108 	orr.w	r1, r1, r8
 8007a7c:	f8c0 1418 	str.w	r1, [r0, #1048]	; 0x418
 8007a80:	6983      	ldr	r3, [r0, #24]
 8007a82:	f043 7300 	orr.w	r3, r3, #33554432	; 0x2000000
 8007a86:	f1bc 0f00 	cmp.w	ip, #0
 8007a8a:	6183      	str	r3, [r0, #24]
 8007a8c:	bfb4      	ite	lt
 8007a8e:	f44f 4100 	movlt.w	r1, #32768	; 0x8000
 8007a92:	2100      	movge	r1, #0
 8007a94:	f7ff ffb8 	bl	8007a08 <USB_GetHostSpeed>
 8007a98:	f89d 3018 	ldrb.w	r3, [sp, #24]
 8007a9c:	2b02      	cmp	r3, #2
 8007a9e:	d13b      	bne.n	8007b18 <USB_HC_Init+0xf0>
 8007aa0:	2802      	cmp	r0, #2
 8007aa2:	bf0c      	ite	eq
 8007aa4:	2000      	moveq	r0, #0
 8007aa6:	f44f 3000 	movne.w	r0, #131072	; 0x20000
 8007aaa:	05a3      	lsls	r3, r4, #22
 8007aac:	f8bd 4020 	ldrh.w	r4, [sp, #32]
 8007ab0:	f003 53fe 	and.w	r3, r3, #532676608	; 0x1fc00000
 8007ab4:	f3c4 040a 	ubfx	r4, r4, #0, #11
 8007ab8:	02d2      	lsls	r2, r2, #11
 8007aba:	4323      	orrs	r3, r4
 8007abc:	f402 42f0 	and.w	r2, r2, #30720	; 0x7800
 8007ac0:	4313      	orrs	r3, r2
 8007ac2:	04ba      	lsls	r2, r7, #18
 8007ac4:	f402 2240 	and.w	r2, r2, #786432	; 0xc0000
 8007ac8:	4313      	orrs	r3, r2
 8007aca:	430b      	orrs	r3, r1
 8007acc:	4303      	orrs	r3, r0
 8007ace:	f8c6 3500 	str.w	r3, [r6, #1280]	; 0x500
 8007ad2:	2f03      	cmp	r7, #3
 8007ad4:	bf02      	ittt	eq
 8007ad6:	f8d6 3500 	ldreq.w	r3, [r6, #1280]	; 0x500
 8007ada:	f043 5300 	orreq.w	r3, r3, #536870912	; 0x20000000
 8007ade:	f8c6 3500 	streq.w	r3, [r6, #1280]	; 0x500
 8007ae2:	4628      	mov	r0, r5
 8007ae4:	e8bd 81f0 	ldmia.w	sp!, {r4, r5, r6, r7, r8, pc}
 8007ae8:	68eb      	ldr	r3, [r5, #12]
 8007aea:	f043 0360 	orr.w	r3, r3, #96	; 0x60
 8007aee:	60eb      	str	r3, [r5, #12]
 8007af0:	e7bb      	b.n	8007a6a <USB_HC_Init+0x42>
 8007af2:	f240 639d 	movw	r3, #1693	; 0x69d
 8007af6:	f1bc 0f00 	cmp.w	ip, #0
 8007afa:	60eb      	str	r3, [r5, #12]
 8007afc:	dab5      	bge.n	8007a6a <USB_HC_Init+0x42>
 8007afe:	e7ad      	b.n	8007a5c <USB_HC_Init+0x34>
 8007b00:	f240 2325 	movw	r3, #549	; 0x225
 8007b04:	f1bc 0f00 	cmp.w	ip, #0
 8007b08:	60eb      	str	r3, [r5, #12]
 8007b0a:	daae      	bge.n	8007a6a <USB_HC_Init+0x42>
 8007b0c:	68eb      	ldr	r3, [r5, #12]
 8007b0e:	f443 73c0 	orr.w	r3, r3, #384	; 0x180
 8007b12:	e7ec      	b.n	8007aee <USB_HC_Init+0xc6>
 8007b14:	2501      	movs	r5, #1
 8007b16:	e7a9      	b.n	8007a6c <USB_HC_Init+0x44>
 8007b18:	2000      	movs	r0, #0
 8007b1a:	e7c6      	b.n	8007aaa <USB_HC_Init+0x82>

08007b1c <USB_HC_ReadInterrupt>:
 8007b1c:	f500 6080 	add.w	r0, r0, #1024	; 0x400
 8007b20:	6940      	ldr	r0, [r0, #20]
 8007b22:	b280      	uxth	r0, r0
 8007b24:	4770      	bx	lr

08007b26 <USB_HC_Halt>:
 8007b26:	eb00 1141 	add.w	r1, r0, r1, lsl #5
 8007b2a:	b530      	push	{r4, r5, lr}
 8007b2c:	f8d1 3500 	ldr.w	r3, [r1, #1280]	; 0x500
 8007b30:	f8d1 4500 	ldr.w	r4, [r1, #1280]	; 0x500
 8007b34:	6885      	ldr	r5, [r0, #8]
 8007b36:	06ad      	lsls	r5, r5, #26
 8007b38:	f501 62a0 	add.w	r2, r1, #1280	; 0x500
 8007b3c:	ea4f 4393 	mov.w	r3, r3, lsr #18
 8007b40:	d501      	bpl.n	8007b46 <USB_HC_Halt+0x20>
 8007b42:	2c00      	cmp	r4, #0
 8007b44:	da28      	bge.n	8007b98 <USB_HC_Halt+0x72>
 8007b46:	f013 0f01 	tst.w	r3, #1
 8007b4a:	f8d1 3500 	ldr.w	r3, [r1, #1280]	; 0x500
 8007b4e:	f043 4380 	orr.w	r3, r3, #1073741824	; 0x40000000
 8007b52:	f8c1 3500 	str.w	r3, [r1, #1280]	; 0x500
 8007b56:	d121      	bne.n	8007b9c <USB_HC_Halt+0x76>
 8007b58:	6883      	ldr	r3, [r0, #8]
 8007b5a:	069b      	lsls	r3, r3, #26
 8007b5c:	d41c      	bmi.n	8007b98 <USB_HC_Halt+0x72>
 8007b5e:	6ac3      	ldr	r3, [r0, #44]	; 0x2c
 8007b60:	f413 0f7f 	tst.w	r3, #16711680	; 0xff0000
 8007b64:	f8d1 3500 	ldr.w	r3, [r1, #1280]	; 0x500
 8007b68:	d137      	bne.n	8007bda <USB_HC_Halt+0xb4>
 8007b6a:	f023 4300 	bic.w	r3, r3, #2147483648	; 0x80000000
 8007b6e:	f8c1 3500 	str.w	r3, [r1, #1280]	; 0x500
 8007b72:	f8d1 3500 	ldr.w	r3, [r1, #1280]	; 0x500
 8007b76:	f043 4300 	orr.w	r3, r3, #2147483648	; 0x80000000
 8007b7a:	f8c1 3500 	str.w	r3, [r1, #1280]	; 0x500
 8007b7e:	f8d1 3500 	ldr.w	r3, [r1, #1280]	; 0x500
 8007b82:	f423 4300 	bic.w	r3, r3, #32768	; 0x8000
 8007b86:	f8c1 3500 	str.w	r3, [r1, #1280]	; 0x500
 8007b8a:	f240 33e9 	movw	r3, #1001	; 0x3e9
 8007b8e:	3b01      	subs	r3, #1
 8007b90:	d002      	beq.n	8007b98 <USB_HC_Halt+0x72>
 8007b92:	6811      	ldr	r1, [r2, #0]
 8007b94:	2900      	cmp	r1, #0
 8007b96:	dbfa      	blt.n	8007b8e <USB_HC_Halt+0x68>
 8007b98:	2000      	movs	r0, #0
 8007b9a:	bd30      	pop	{r4, r5, pc}
 8007b9c:	f8d0 3410 	ldr.w	r3, [r0, #1040]	; 0x410
 8007ba0:	f413 0f7f 	tst.w	r3, #16711680	; 0xff0000
 8007ba4:	f8d1 3500 	ldr.w	r3, [r1, #1280]	; 0x500
 8007ba8:	d117      	bne.n	8007bda <USB_HC_Halt+0xb4>
 8007baa:	f023 4300 	bic.w	r3, r3, #2147483648	; 0x80000000
 8007bae:	f8c1 3500 	str.w	r3, [r1, #1280]	; 0x500
 8007bb2:	f8d1 3500 	ldr.w	r3, [r1, #1280]	; 0x500
 8007bb6:	f043 4300 	orr.w	r3, r3, #2147483648	; 0x80000000
 8007bba:	f8c1 3500 	str.w	r3, [r1, #1280]	; 0x500
 8007bbe:	f8d1 3500 	ldr.w	r3, [r1, #1280]	; 0x500
 8007bc2:	f423 4300 	bic.w	r3, r3, #32768	; 0x8000
 8007bc6:	f8c1 3500 	str.w	r3, [r1, #1280]	; 0x500
 8007bca:	f240 33e9 	movw	r3, #1001	; 0x3e9
 8007bce:	3b01      	subs	r3, #1
 8007bd0:	d0e2      	beq.n	8007b98 <USB_HC_Halt+0x72>
 8007bd2:	6811      	ldr	r1, [r2, #0]
 8007bd4:	2900      	cmp	r1, #0
 8007bd6:	dbfa      	blt.n	8007bce <USB_HC_Halt+0xa8>
 8007bd8:	e7de      	b.n	8007b98 <USB_HC_Halt+0x72>
 8007bda:	f043 4300 	orr.w	r3, r3, #2147483648	; 0x80000000
 8007bde:	f8c1 3500 	str.w	r3, [r1, #1280]	; 0x500
 8007be2:	e7d9      	b.n	8007b98 <USB_HC_Halt+0x72>

08007be4 <USB_DoPing>:
 8007be4:	eb00 1141 	add.w	r1, r0, r1, lsl #5
 8007be8:	4a06      	ldr	r2, [pc, #24]	; (8007c04 <USB_DoPing+0x20>)
 8007bea:	f8c1 2510 	str.w	r2, [r1, #1296]	; 0x510
 8007bee:	f8d1 3500 	ldr.w	r3, [r1, #1280]	; 0x500
 8007bf2:	f023 4380 	bic.w	r3, r3, #1073741824	; 0x40000000
 8007bf6:	f043 4300 	orr.w	r3, r3, #2147483648	; 0x80000000
 8007bfa:	f8c1 3500 	str.w	r3, [r1, #1280]	; 0x500
 8007bfe:	2000      	movs	r0, #0
 8007c00:	4770      	bx	lr
 8007c02:	bf00      	nop
 8007c04:	80080000 	.word	0x80080000

08007c08 <USB_HC_StartXfer>:
 8007c08:	e92d 41ff 	stmdb	sp!, {r0, r1, r2, r3, r4, r5, r6, r7, r8, lr}
 8007c0c:	6bc3      	ldr	r3, [r0, #60]	; 0x3c
 8007c0e:	05db      	lsls	r3, r3, #23
 8007c10:	4615      	mov	r5, r2
 8007c12:	4604      	mov	r4, r0
 8007c14:	784a      	ldrb	r2, [r1, #1]
 8007c16:	d50f      	bpl.n	8007c38 <USB_HC_StartXfer+0x30>
 8007c18:	790b      	ldrb	r3, [r1, #4]
 8007c1a:	b96b      	cbnz	r3, 8007c38 <USB_HC_StartXfer+0x30>
 8007c1c:	2d01      	cmp	r5, #1
 8007c1e:	d168      	bne.n	8007cf2 <USB_HC_StartXfer+0xea>
 8007c20:	79cb      	ldrb	r3, [r1, #7]
 8007c22:	f013 0ffd 	tst.w	r3, #253	; 0xfd
 8007c26:	d107      	bne.n	8007c38 <USB_HC_StartXfer+0x30>
 8007c28:	eb00 1342 	add.w	r3, r0, r2, lsl #5
 8007c2c:	f8d3 050c 	ldr.w	r0, [r3, #1292]	; 0x50c
 8007c30:	f020 0070 	bic.w	r0, r0, #112	; 0x70
 8007c34:	f8c3 050c 	str.w	r0, [r3, #1292]	; 0x50c
 8007c38:	694b      	ldr	r3, [r1, #20]
 8007c3a:	2b00      	cmp	r3, #0
 8007c3c:	d065      	beq.n	8007d0a <USB_HC_StartXfer+0x102>
 8007c3e:	890e      	ldrh	r6, [r1, #8]
 8007c40:	1e58      	subs	r0, r3, #1
 8007c42:	4430      	add	r0, r6
 8007c44:	fbb0 f0f6 	udiv	r0, r0, r6
 8007c48:	b280      	uxth	r0, r0
 8007c4a:	f5b0 7f80 	cmp.w	r0, #256	; 0x100
 8007c4e:	bf28      	it	cs
 8007c50:	f44f 7080 	movcs.w	r0, #256	; 0x100
 8007c54:	78cf      	ldrb	r7, [r1, #3]
 8007c56:	2f00      	cmp	r7, #0
 8007c58:	d059      	beq.n	8007d0e <USB_HC_StartXfer+0x106>
 8007c5a:	f8b1 8008 	ldrh.w	r8, [r1, #8]
 8007c5e:	fb00 f808 	mul.w	r8, r0, r8
 8007c62:	f891 c00a 	ldrb.w	ip, [r1, #10]
 8007c66:	f8c1 8010 	str.w	r8, [r1, #16]
 8007c6a:	ea4f 7c4c 	mov.w	ip, ip, lsl #29
 8007c6e:	f00c 4cc0 	and.w	ip, ip, #1610612736	; 0x60000000
 8007c72:	eb04 1642 	add.w	r6, r4, r2, lsl #5
 8007c76:	ea4c 40c0 	orr.w	r0, ip, r0, lsl #19
 8007c7a:	f3c8 0812 	ubfx	r8, r8, #0, #19
 8007c7e:	ea40 0008 	orr.w	r0, r0, r8
 8007c82:	f8c6 0510 	str.w	r0, [r6, #1296]	; 0x510
 8007c86:	b115      	cbz	r5, 8007c8e <USB_HC_StartXfer+0x86>
 8007c88:	68c8      	ldr	r0, [r1, #12]
 8007c8a:	f8c6 0514 	str.w	r0, [r6, #1300]	; 0x514
 8007c8e:	f8d4 0408 	ldr.w	r0, [r4, #1032]	; 0x408
 8007c92:	f8d6 e500 	ldr.w	lr, [r6, #1280]	; 0x500
 8007c96:	f02e 5e00 	bic.w	lr, lr, #536870912	; 0x20000000
 8007c9a:	f8c6 e500 	str.w	lr, [r6, #1280]	; 0x500
 8007c9e:	43c0      	mvns	r0, r0
 8007ca0:	f8d6 e500 	ldr.w	lr, [r6, #1280]	; 0x500
 8007ca4:	0740      	lsls	r0, r0, #29
 8007ca6:	f000 5000 	and.w	r0, r0, #536870912	; 0x20000000
 8007caa:	ea40 000e 	orr.w	r0, r0, lr
 8007cae:	f8c6 0500 	str.w	r0, [r6, #1280]	; 0x500
 8007cb2:	f8d6 0500 	ldr.w	r0, [r6, #1280]	; 0x500
 8007cb6:	9003      	str	r0, [sp, #12]
 8007cb8:	9803      	ldr	r0, [sp, #12]
 8007cba:	f020 4080 	bic.w	r0, r0, #1073741824	; 0x40000000
 8007cbe:	9003      	str	r0, [sp, #12]
 8007cc0:	f504 6c80 	add.w	ip, r4, #1024	; 0x400
 8007cc4:	9803      	ldr	r0, [sp, #12]
 8007cc6:	b327      	cbz	r7, 8007d12 <USB_HC_StartXfer+0x10a>
 8007cc8:	f440 4000 	orr.w	r0, r0, #32768	; 0x8000
 8007ccc:	9003      	str	r0, [sp, #12]
 8007cce:	9803      	ldr	r0, [sp, #12]
 8007cd0:	f040 4000 	orr.w	r0, r0, #2147483648	; 0x80000000
 8007cd4:	9003      	str	r0, [sp, #12]
 8007cd6:	9803      	ldr	r0, [sp, #12]
 8007cd8:	f8c6 0500 	str.w	r0, [r6, #1280]	; 0x500
 8007cdc:	ea57 0005 	orrs.w	r0, r7, r5
 8007ce0:	d10f      	bne.n	8007d02 <USB_HC_StartXfer+0xfa>
 8007ce2:	b173      	cbz	r3, 8007d02 <USB_HC_StartXfer+0xfa>
 8007ce4:	79c8      	ldrb	r0, [r1, #7]
 8007ce6:	2803      	cmp	r0, #3
 8007ce8:	d821      	bhi.n	8007d2e <USB_HC_StartXfer+0x126>
 8007cea:	e8df f000 	tbb	[pc, r0]
 8007cee:	2815      	.short	0x2815
 8007cf0:	2815      	.short	0x2815
 8007cf2:	2d00      	cmp	r5, #0
 8007cf4:	d1a0      	bne.n	8007c38 <USB_HC_StartXfer+0x30>
 8007cf6:	794b      	ldrb	r3, [r1, #5]
 8007cf8:	2b01      	cmp	r3, #1
 8007cfa:	d19d      	bne.n	8007c38 <USB_HC_StartXfer+0x30>
 8007cfc:	4611      	mov	r1, r2
 8007cfe:	f7ff ff71 	bl	8007be4 <USB_DoPing>
 8007d02:	2000      	movs	r0, #0
 8007d04:	b004      	add	sp, #16
 8007d06:	e8bd 81f0 	ldmia.w	sp!, {r4, r5, r6, r7, r8, pc}
 8007d0a:	2001      	movs	r0, #1
 8007d0c:	e7a2      	b.n	8007c54 <USB_HC_StartXfer+0x4c>
 8007d0e:	4698      	mov	r8, r3
 8007d10:	e7a7      	b.n	8007c62 <USB_HC_StartXfer+0x5a>
 8007d12:	f420 4000 	bic.w	r0, r0, #32768	; 0x8000
 8007d16:	e7d9      	b.n	8007ccc <USB_HC_StartXfer+0xc4>
 8007d18:	6ae5      	ldr	r5, [r4, #44]	; 0x2c
 8007d1a:	1cd8      	adds	r0, r3, #3
 8007d1c:	b2ad      	uxth	r5, r5
 8007d1e:	f3c0 008f 	ubfx	r0, r0, #2, #16
 8007d22:	4285      	cmp	r5, r0
 8007d24:	d203      	bcs.n	8007d2e <USB_HC_StartXfer+0x126>
 8007d26:	69a0      	ldr	r0, [r4, #24]
 8007d28:	f040 0020 	orr.w	r0, r0, #32
 8007d2c:	61a0      	str	r0, [r4, #24]
 8007d2e:	2000      	movs	r0, #0
 8007d30:	9000      	str	r0, [sp, #0]
 8007d32:	68c9      	ldr	r1, [r1, #12]
 8007d34:	b29b      	uxth	r3, r3
 8007d36:	4620      	mov	r0, r4
 8007d38:	f7ff fd68 	bl	800780c <USB_WritePacket>
 8007d3c:	e7e1      	b.n	8007d02 <USB_HC_StartXfer+0xfa>
 8007d3e:	f8dc 5010 	ldr.w	r5, [ip, #16]
 8007d42:	1cd8      	adds	r0, r3, #3
 8007d44:	b2ad      	uxth	r5, r5
 8007d46:	f3c0 008f 	ubfx	r0, r0, #2, #16
 8007d4a:	4285      	cmp	r5, r0
 8007d4c:	d2ef      	bcs.n	8007d2e <USB_HC_StartXfer+0x126>
 8007d4e:	69a0      	ldr	r0, [r4, #24]
 8007d50:	f040 6080 	orr.w	r0, r0, #67108864	; 0x4000000
 8007d54:	e7ea      	b.n	8007d2c <USB_HC_StartXfer+0x124>

08007d56 <USB_StopHost>:
 8007d56:	6883      	ldr	r3, [r0, #8]
 8007d58:	f023 0301 	bic.w	r3, r3, #1
 8007d5c:	b510      	push	{r4, lr}
 8007d5e:	2110      	movs	r1, #16
 8007d60:	4604      	mov	r4, r0
 8007d62:	6083      	str	r3, [r0, #8]
 8007d64:	f7ff fd24 	bl	80077b0 <USB_FlushTxFifo>
 8007d68:	4620      	mov	r0, r4
 8007d6a:	f7ff fd39 	bl	80077e0 <USB_FlushRxFifo>
 8007d6e:	f504 63a0 	add.w	r3, r4, #1280	; 0x500
 8007d72:	f504 60e0 	add.w	r0, r4, #1792	; 0x700
 8007d76:	4619      	mov	r1, r3
 8007d78:	680a      	ldr	r2, [r1, #0]
 8007d7a:	f022 2280 	bic.w	r2, r2, #2147516416	; 0x80008000
 8007d7e:	f042 4280 	orr.w	r2, r2, #1073741824	; 0x40000000
 8007d82:	f841 2b20 	str.w	r2, [r1], #32
 8007d86:	4281      	cmp	r1, r0
 8007d88:	d1f6      	bne.n	8007d78 <USB_StopHost+0x22>
 8007d8a:	2100      	movs	r1, #0
 8007d8c:	681a      	ldr	r2, [r3, #0]
 8007d8e:	f422 4200 	bic.w	r2, r2, #32768	; 0x8000
 8007d92:	f042 4240 	orr.w	r2, r2, #3221225472	; 0xc0000000
 8007d96:	601a      	str	r2, [r3, #0]
 8007d98:	3101      	adds	r1, #1
 8007d9a:	f5b1 7f7a 	cmp.w	r1, #1000	; 0x3e8
 8007d9e:	d802      	bhi.n	8007da6 <USB_StopHost+0x50>
 8007da0:	681a      	ldr	r2, [r3, #0]
 8007da2:	2a00      	cmp	r2, #0
 8007da4:	dbf8      	blt.n	8007d98 <USB_StopHost+0x42>
 8007da6:	3320      	adds	r3, #32
 8007da8:	4283      	cmp	r3, r0
 8007daa:	d1ef      	bne.n	8007d8c <USB_StopHost+0x36>
 8007dac:	f04f 33ff 	mov.w	r3, #4294967295	; 0xffffffff
 8007db0:	f8c4 3414 	str.w	r3, [r4, #1044]	; 0x414
 8007db4:	6163      	str	r3, [r4, #20]
 8007db6:	68a3      	ldr	r3, [r4, #8]
 8007db8:	f043 0301 	orr.w	r3, r3, #1
 8007dbc:	60a3      	str	r3, [r4, #8]
 8007dbe:	2000      	movs	r0, #0
 8007dc0:	bd10      	pop	{r4, pc}

08007dc2 <USBH_CDC_SOFProcess>:
 8007dc2:	2000      	movs	r0, #0
 8007dc4:	4770      	bx	lr

08007dc6 <USBH_CDC_InterfaceDeInit>:
 8007dc6:	b538      	push	{r3, r4, r5, lr}
 8007dc8:	f8d0 337c 	ldr.w	r3, [r0, #892]	; 0x37c
 8007dcc:	69dd      	ldr	r5, [r3, #28]
 8007dce:	7829      	ldrb	r1, [r5, #0]
 8007dd0:	4604      	mov	r4, r0
 8007dd2:	b139      	cbz	r1, 8007de4 <USBH_CDC_InterfaceDeInit+0x1e>
 8007dd4:	f000 feb6 	bl	8008b44 <USBH_ClosePipe>
 8007dd8:	7829      	ldrb	r1, [r5, #0]
 8007dda:	4620      	mov	r0, r4
 8007ddc:	f000 fecf 	bl	8008b7e <USBH_FreePipe>
 8007de0:	2300      	movs	r3, #0
 8007de2:	702b      	strb	r3, [r5, #0]
 8007de4:	7b29      	ldrb	r1, [r5, #12]
 8007de6:	b141      	cbz	r1, 8007dfa <USBH_CDC_InterfaceDeInit+0x34>
 8007de8:	4620      	mov	r0, r4
 8007dea:	f000 feab 	bl	8008b44 <USBH_ClosePipe>
 8007dee:	7b29      	ldrb	r1, [r5, #12]
 8007df0:	4620      	mov	r0, r4
 8007df2:	f000 fec4 	bl	8008b7e <USBH_FreePipe>
 8007df6:	2300      	movs	r3, #0
 8007df8:	732b      	strb	r3, [r5, #12]
 8007dfa:	7b69      	ldrb	r1, [r5, #13]
 8007dfc:	b141      	cbz	r1, 8007e10 <USBH_CDC_InterfaceDeInit+0x4a>
 8007dfe:	4620      	mov	r0, r4
 8007e00:	f000 fea0 	bl	8008b44 <USBH_ClosePipe>
 8007e04:	7b69      	ldrb	r1, [r5, #13]
 8007e06:	4620      	mov	r0, r4
 8007e08:	f000 feb9 	bl	8008b7e <USBH_FreePipe>
 8007e0c:	2300      	movs	r3, #0
 8007e0e:	736b      	strb	r3, [r5, #13]
 8007e10:	f8d4 337c 	ldr.w	r3, [r4, #892]	; 0x37c
 8007e14:	69d8      	ldr	r0, [r3, #28]
 8007e16:	b128      	cbz	r0, 8007e24 <USBH_CDC_InterfaceDeInit+0x5e>
 8007e18:	f001 f856 	bl	8008ec8 <free>
 8007e1c:	f8d4 337c 	ldr.w	r3, [r4, #892]	; 0x37c
 8007e20:	2200      	movs	r2, #0
 8007e22:	61da      	str	r2, [r3, #28]
 8007e24:	2000      	movs	r0, #0
 8007e26:	bd38      	pop	{r3, r4, r5, pc}

08007e28 <USBH_CDC_InterfaceInit>:
 8007e28:	e92d 41ff 	stmdb	sp!, {r0, r1, r2, r3, r4, r5, r6, r7, r8, lr}
 8007e2c:	2202      	movs	r2, #2
 8007e2e:	2301      	movs	r3, #1
 8007e30:	4611      	mov	r1, r2
 8007e32:	4605      	mov	r5, r0
 8007e34:	f000 f9cb 	bl	80081ce <USBH_FindInterface>
 8007e38:	2801      	cmp	r0, #1
 8007e3a:	4606      	mov	r6, r0
 8007e3c:	d904      	bls.n	8007e48 <USBH_CDC_InterfaceInit+0x20>
 8007e3e:	2702      	movs	r7, #2
 8007e40:	4638      	mov	r0, r7
 8007e42:	b004      	add	sp, #16
 8007e44:	e8bd 81f0 	ldmia.w	sp!, {r4, r5, r6, r7, r8, pc}
 8007e48:	4601      	mov	r1, r0
 8007e4a:	4628      	mov	r0, r5
 8007e4c:	f000 f9b6 	bl	80081bc <USBH_SelectInterface>
 8007e50:	4607      	mov	r7, r0
 8007e52:	2800      	cmp	r0, #0
 8007e54:	d1f3      	bne.n	8007e3e <USBH_CDC_InterfaceInit+0x16>
 8007e56:	2050      	movs	r0, #80	; 0x50
 8007e58:	f8d5 837c 	ldr.w	r8, [r5, #892]	; 0x37c
 8007e5c:	f001 f82c 	bl	8008eb8 <malloc>
 8007e60:	4604      	mov	r4, r0
 8007e62:	f8c8 001c 	str.w	r0, [r8, #28]
 8007e66:	2800      	cmp	r0, #0
 8007e68:	d0e9      	beq.n	8007e3e <USBH_CDC_InterfaceInit+0x16>
 8007e6a:	2250      	movs	r2, #80	; 0x50
 8007e6c:	4639      	mov	r1, r7
 8007e6e:	f001 f833 	bl	8008ed8 <memset>
 8007e72:	201a      	movs	r0, #26
 8007e74:	fb00 5606 	mla	r6, r0, r6, r5
 8007e78:	4628      	mov	r0, r5
 8007e7a:	f996 234e 	ldrsb.w	r2, [r6, #846]	; 0x34e
 8007e7e:	f896 334e 	ldrb.w	r3, [r6, #846]	; 0x34e
 8007e82:	2a00      	cmp	r2, #0
 8007e84:	bfb8      	it	lt
 8007e86:	7063      	strblt	r3, [r4, #1]
 8007e88:	7861      	ldrb	r1, [r4, #1]
 8007e8a:	bfbc      	itt	lt
 8007e8c:	f8b6 3350 	ldrhlt.w	r3, [r6, #848]	; 0x350
 8007e90:	8163      	strhlt	r3, [r4, #10]
 8007e92:	f000 fe5c 	bl	8008b4e <USBH_AllocPipe>
 8007e96:	8963      	ldrh	r3, [r4, #10]
 8007e98:	9302      	str	r3, [sp, #8]
 8007e9a:	2303      	movs	r3, #3
 8007e9c:	9301      	str	r3, [sp, #4]
 8007e9e:	f895 331d 	ldrb.w	r3, [r5, #797]	; 0x31d
 8007ea2:	7862      	ldrb	r2, [r4, #1]
 8007ea4:	7020      	strb	r0, [r4, #0]
 8007ea6:	4601      	mov	r1, r0
 8007ea8:	9300      	str	r3, [sp, #0]
 8007eaa:	4628      	mov	r0, r5
 8007eac:	f895 331c 	ldrb.w	r3, [r5, #796]	; 0x31c
 8007eb0:	f000 fe39 	bl	8008b26 <USBH_OpenPipe>
 8007eb4:	7821      	ldrb	r1, [r4, #0]
 8007eb6:	2200      	movs	r2, #0
 8007eb8:	4628      	mov	r0, r5
 8007eba:	f000 ffb8 	bl	8008e2e <USBH_LL_SetToggle>
 8007ebe:	2300      	movs	r3, #0
 8007ec0:	461a      	mov	r2, r3
 8007ec2:	210a      	movs	r1, #10
 8007ec4:	4628      	mov	r0, r5
 8007ec6:	f000 f982 	bl	80081ce <USBH_FindInterface>
 8007eca:	2801      	cmp	r0, #1
 8007ecc:	d8b7      	bhi.n	8007e3e <USBH_CDC_InterfaceInit+0x16>
 8007ece:	231a      	movs	r3, #26
 8007ed0:	fb03 5200 	mla	r2, r3, r0, r5
 8007ed4:	fb03 5300 	mla	r3, r3, r0, r5
 8007ed8:	f892 634e 	ldrb.w	r6, [r2, #846]	; 0x34e
 8007edc:	f8b2 1350 	ldrh.w	r1, [r2, #848]	; 0x350
 8007ee0:	f992 234e 	ldrsb.w	r2, [r2, #846]	; 0x34e
 8007ee4:	2a00      	cmp	r2, #0
 8007ee6:	bfb8      	it	lt
 8007ee8:	8361      	strhlt	r1, [r4, #26]
 8007eea:	f8b3 2358 	ldrh.w	r2, [r3, #856]	; 0x358
 8007eee:	bfa8      	it	ge
 8007ef0:	8321      	strhge	r1, [r4, #24]
 8007ef2:	f893 1356 	ldrb.w	r1, [r3, #854]	; 0x356
 8007ef6:	f993 3356 	ldrsb.w	r3, [r3, #854]	; 0x356
 8007efa:	bfac      	ite	ge
 8007efc:	73a6      	strbge	r6, [r4, #14]
 8007efe:	73e6      	strblt	r6, [r4, #15]
 8007f00:	2b00      	cmp	r3, #0
 8007f02:	bfac      	ite	ge
 8007f04:	73a1      	strbge	r1, [r4, #14]
 8007f06:	73e1      	strblt	r1, [r4, #15]
 8007f08:	4628      	mov	r0, r5
 8007f0a:	7ba1      	ldrb	r1, [r4, #14]
 8007f0c:	bfb4      	ite	lt
 8007f0e:	8362      	strhlt	r2, [r4, #26]
 8007f10:	8322      	strhge	r2, [r4, #24]
 8007f12:	f000 fe1c 	bl	8008b4e <USBH_AllocPipe>
 8007f16:	7be1      	ldrb	r1, [r4, #15]
 8007f18:	7360      	strb	r0, [r4, #13]
 8007f1a:	4628      	mov	r0, r5
 8007f1c:	f000 fe17 	bl	8008b4e <USBH_AllocPipe>
 8007f20:	8b23      	ldrh	r3, [r4, #24]
 8007f22:	9302      	str	r3, [sp, #8]
 8007f24:	2602      	movs	r6, #2
 8007f26:	f895 331d 	ldrb.w	r3, [r5, #797]	; 0x31d
 8007f2a:	7ba2      	ldrb	r2, [r4, #14]
 8007f2c:	7b61      	ldrb	r1, [r4, #13]
 8007f2e:	7320      	strb	r0, [r4, #12]
 8007f30:	9601      	str	r6, [sp, #4]
 8007f32:	9300      	str	r3, [sp, #0]
 8007f34:	4628      	mov	r0, r5
 8007f36:	f895 331c 	ldrb.w	r3, [r5, #796]	; 0x31c
 8007f3a:	f000 fdf4 	bl	8008b26 <USBH_OpenPipe>
 8007f3e:	8b63      	ldrh	r3, [r4, #26]
 8007f40:	7be2      	ldrb	r2, [r4, #15]
 8007f42:	7b21      	ldrb	r1, [r4, #12]
 8007f44:	e9cd 6301 	strd	r6, r3, [sp, #4]
 8007f48:	f895 331d 	ldrb.w	r3, [r5, #797]	; 0x31d
 8007f4c:	9300      	str	r3, [sp, #0]
 8007f4e:	2600      	movs	r6, #0
 8007f50:	f895 331c 	ldrb.w	r3, [r5, #796]	; 0x31c
 8007f54:	4628      	mov	r0, r5
 8007f56:	f000 fde6 	bl	8008b26 <USBH_OpenPipe>
 8007f5a:	7b61      	ldrb	r1, [r4, #13]
 8007f5c:	f884 604c 	strb.w	r6, [r4, #76]	; 0x4c
 8007f60:	4632      	mov	r2, r6
 8007f62:	4628      	mov	r0, r5
 8007f64:	f000 ff63 	bl	8008e2e <USBH_LL_SetToggle>
 8007f68:	7b21      	ldrb	r1, [r4, #12]
 8007f6a:	4632      	mov	r2, r6
 8007f6c:	4628      	mov	r0, r5
 8007f6e:	f000 ff5e 	bl	8008e2e <USBH_LL_SetToggle>
 8007f72:	e765      	b.n	8007e40 <USBH_CDC_InterfaceInit+0x18>

08007f74 <USBH_CDC_ClassRequest>:
 8007f74:	b538      	push	{r3, r4, r5, lr}
 8007f76:	f8d0 337c 	ldr.w	r3, [r0, #892]	; 0x37c
 8007f7a:	69d9      	ldr	r1, [r3, #28]
 8007f7c:	f242 12a1 	movw	r2, #8609	; 0x21a1
 8007f80:	f44f 23e0 	mov.w	r3, #458752	; 0x70000
 8007f84:	e9c0 2304 	strd	r2, r3, [r0, #16]
 8007f88:	3140      	adds	r1, #64	; 0x40
 8007f8a:	2207      	movs	r2, #7
 8007f8c:	4604      	mov	r4, r0
 8007f8e:	f000 fb65 	bl	800865c <USBH_CtlReq>
 8007f92:	4605      	mov	r5, r0
 8007f94:	b920      	cbnz	r0, 8007fa0 <USBH_CDC_ClassRequest+0x2c>
 8007f96:	f8d4 33d4 	ldr.w	r3, [r4, #980]	; 0x3d4
 8007f9a:	2102      	movs	r1, #2
 8007f9c:	4620      	mov	r0, r4
 8007f9e:	4798      	blx	r3
 8007fa0:	4628      	mov	r0, r5
 8007fa2:	bd38      	pop	{r3, r4, r5, pc}

08007fa4 <USBH_CDC_TransmitCallback>:
 8007fa4:	4770      	bx	lr

08007fa6 <USBH_CDC_ReceiveCallback>:
 8007fa6:	4770      	bx	lr

08007fa8 <USBH_CDC_LineCodingChanged>:
 8007fa8:	4770      	bx	lr

08007faa <USBH_CDC_Process>:
 8007faa:	b573      	push	{r0, r1, r4, r5, r6, lr}
 8007fac:	f8d0 337c 	ldr.w	r3, [r0, #892]	; 0x37c
 8007fb0:	69dc      	ldr	r4, [r3, #28]
 8007fb2:	f894 604c 	ldrb.w	r6, [r4, #76]	; 0x4c
 8007fb6:	4605      	mov	r5, r0
 8007fb8:	2e04      	cmp	r6, #4
 8007fba:	d818      	bhi.n	8007fee <USBH_CDC_Process+0x44>
 8007fbc:	e8df f006 	tbb	[pc, r6]
 8007fc0:	401b0312 	.word	0x401b0312
 8007fc4:	aa          	.byte	0xaa
 8007fc5:	00          	.byte	0x00
 8007fc6:	f242 0021 	movw	r0, #8225	; 0x2021
 8007fca:	f44f 23e0 	mov.w	r3, #458752	; 0x70000
 8007fce:	6ca1      	ldr	r1, [r4, #72]	; 0x48
 8007fd0:	2207      	movs	r2, #7
 8007fd2:	e9c5 0304 	strd	r0, r3, [r5, #16]
 8007fd6:	4628      	mov	r0, r5
 8007fd8:	f000 fb40 	bl	800865c <USBH_CtlReq>
 8007fdc:	b928      	cbnz	r0, 8007fea <USBH_CDC_Process+0x40>
 8007fde:	2302      	movs	r3, #2
 8007fe0:	f884 304c 	strb.w	r3, [r4, #76]	; 0x4c
 8007fe4:	4630      	mov	r0, r6
 8007fe6:	b002      	add	sp, #8
 8007fe8:	bd70      	pop	{r4, r5, r6, pc}
 8007fea:	2801      	cmp	r0, #1
 8007fec:	d101      	bne.n	8007ff2 <USBH_CDC_Process+0x48>
 8007fee:	2601      	movs	r6, #1
 8007ff0:	e7f8      	b.n	8007fe4 <USBH_CDC_Process+0x3a>
 8007ff2:	2304      	movs	r3, #4
 8007ff4:	e7f4      	b.n	8007fe0 <USBH_CDC_Process+0x36>
 8007ff6:	f242 12a1 	movw	r2, #8609	; 0x21a1
 8007ffa:	f44f 23e0 	mov.w	r3, #458752	; 0x70000
 8007ffe:	e9c0 2304 	strd	r2, r3, [r0, #16]
 8008002:	f104 0140 	add.w	r1, r4, #64	; 0x40
 8008006:	2207      	movs	r2, #7
 8008008:	f000 fb28 	bl	800865c <USBH_CtlReq>
 800800c:	b990      	cbnz	r0, 8008034 <USBH_CDC_Process+0x8a>
 800800e:	e9d4 3111 	ldrd	r3, r1, [r4, #68]	; 0x44
 8008012:	f884 004c 	strb.w	r0, [r4, #76]	; 0x4c
 8008016:	f023 427f 	bic.w	r2, r3, #4278190080	; 0xff000000
 800801a:	684b      	ldr	r3, [r1, #4]
 800801c:	f023 437f 	bic.w	r3, r3, #4278190080	; 0xff000000
 8008020:	429a      	cmp	r2, r3
 8008022:	d1e4      	bne.n	8007fee <USBH_CDC_Process+0x44>
 8008024:	6c22      	ldr	r2, [r4, #64]	; 0x40
 8008026:	680b      	ldr	r3, [r1, #0]
 8008028:	429a      	cmp	r2, r3
 800802a:	d1e0      	bne.n	8007fee <USBH_CDC_Process+0x44>
 800802c:	4628      	mov	r0, r5
 800802e:	f7ff ffbb 	bl	8007fa8 <USBH_CDC_LineCodingChanged>
 8008032:	e7dc      	b.n	8007fee <USBH_CDC_Process+0x44>
 8008034:	2801      	cmp	r0, #1
 8008036:	d0da      	beq.n	8007fee <USBH_CDC_Process+0x44>
 8008038:	2304      	movs	r3, #4
 800803a:	f884 304c 	strb.w	r3, [r4, #76]	; 0x4c
 800803e:	e7d6      	b.n	8007fee <USBH_CDC_Process+0x44>
 8008040:	f894 004d 	ldrb.w	r0, [r4, #77]	; 0x4d
 8008044:	2801      	cmp	r0, #1
 8008046:	d024      	beq.n	8008092 <USBH_CDC_Process+0xe8>
 8008048:	2802      	cmp	r0, #2
 800804a:	d031      	beq.n	80080b0 <USBH_CDC_Process+0x106>
 800804c:	f8d5 337c 	ldr.w	r3, [r5, #892]	; 0x37c
 8008050:	69dc      	ldr	r4, [r3, #28]
 8008052:	f894 304e 	ldrb.w	r3, [r4, #78]	; 0x4e
 8008056:	2b03      	cmp	r3, #3
 8008058:	d04b      	beq.n	80080f2 <USBH_CDC_Process+0x148>
 800805a:	2b04      	cmp	r3, #4
 800805c:	d1c7      	bne.n	8007fee <USBH_CDC_Process+0x44>
 800805e:	7b21      	ldrb	r1, [r4, #12]
 8008060:	4628      	mov	r0, r5
 8008062:	f000 fed3 	bl	8008e0c <USBH_LL_GetURBState>
 8008066:	2801      	cmp	r0, #1
 8008068:	4606      	mov	r6, r0
 800806a:	d1c0      	bne.n	8007fee <USBH_CDC_Process+0x44>
 800806c:	7b21      	ldrb	r1, [r4, #12]
 800806e:	4628      	mov	r0, r5
 8008070:	f000 fe88 	bl	8008d84 <USBH_LL_GetLastXferSize>
 8008074:	6aa3      	ldr	r3, [r4, #40]	; 0x28
 8008076:	4298      	cmp	r0, r3
 8008078:	d045      	beq.n	8008106 <USBH_CDC_Process+0x15c>
 800807a:	8b62      	ldrh	r2, [r4, #26]
 800807c:	4290      	cmp	r0, r2
 800807e:	d942      	bls.n	8008106 <USBH_CDC_Process+0x15c>
 8008080:	1a1b      	subs	r3, r3, r0
 8008082:	62a3      	str	r3, [r4, #40]	; 0x28
 8008084:	6a23      	ldr	r3, [r4, #32]
 8008086:	4418      	add	r0, r3
 8008088:	2303      	movs	r3, #3
 800808a:	6220      	str	r0, [r4, #32]
 800808c:	f884 304e 	strb.w	r3, [r4, #78]	; 0x4e
 8008090:	e7a8      	b.n	8007fe4 <USBH_CDC_Process+0x3a>
 8008092:	6a66      	ldr	r6, [r4, #36]	; 0x24
 8008094:	8b22      	ldrh	r2, [r4, #24]
 8008096:	7b63      	ldrb	r3, [r4, #13]
 8008098:	69e1      	ldr	r1, [r4, #28]
 800809a:	9000      	str	r0, [sp, #0]
 800809c:	4296      	cmp	r6, r2
 800809e:	bf98      	it	ls
 80080a0:	b2b2      	uxthls	r2, r6
 80080a2:	4628      	mov	r0, r5
 80080a4:	f000 fd18 	bl	8008ad8 <USBH_BulkSendData>
 80080a8:	2302      	movs	r3, #2
 80080aa:	f884 304d 	strb.w	r3, [r4, #77]	; 0x4d
 80080ae:	e7cd      	b.n	800804c <USBH_CDC_Process+0xa2>
 80080b0:	7b61      	ldrb	r1, [r4, #13]
 80080b2:	4628      	mov	r0, r5
 80080b4:	f000 feaa 	bl	8008e0c <USBH_LL_GetURBState>
 80080b8:	2801      	cmp	r0, #1
 80080ba:	d116      	bne.n	80080ea <USBH_CDC_Process+0x140>
 80080bc:	6a63      	ldr	r3, [r4, #36]	; 0x24
 80080be:	8b21      	ldrh	r1, [r4, #24]
 80080c0:	428b      	cmp	r3, r1
 80080c2:	d90c      	bls.n	80080de <USBH_CDC_Process+0x134>
 80080c4:	69e2      	ldr	r2, [r4, #28]
 80080c6:	1a5b      	subs	r3, r3, r1
 80080c8:	440a      	add	r2, r1
 80080ca:	6263      	str	r3, [r4, #36]	; 0x24
 80080cc:	61e2      	str	r2, [r4, #28]
 80080ce:	b94b      	cbnz	r3, 80080e4 <USBH_CDC_Process+0x13a>
 80080d0:	2300      	movs	r3, #0
 80080d2:	f884 304d 	strb.w	r3, [r4, #77]	; 0x4d
 80080d6:	4628      	mov	r0, r5
 80080d8:	f7ff ff64 	bl	8007fa4 <USBH_CDC_TransmitCallback>
 80080dc:	e7b6      	b.n	800804c <USBH_CDC_Process+0xa2>
 80080de:	2300      	movs	r3, #0
 80080e0:	6263      	str	r3, [r4, #36]	; 0x24
 80080e2:	e7f5      	b.n	80080d0 <USBH_CDC_Process+0x126>
 80080e4:	f884 004d 	strb.w	r0, [r4, #77]	; 0x4d
 80080e8:	e7b0      	b.n	800804c <USBH_CDC_Process+0xa2>
 80080ea:	2802      	cmp	r0, #2
 80080ec:	d1ae      	bne.n	800804c <USBH_CDC_Process+0xa2>
 80080ee:	2301      	movs	r3, #1
 80080f0:	e7db      	b.n	80080aa <USBH_CDC_Process+0x100>
 80080f2:	7b23      	ldrb	r3, [r4, #12]
 80080f4:	8b62      	ldrh	r2, [r4, #26]
 80080f6:	6a21      	ldr	r1, [r4, #32]
 80080f8:	4628      	mov	r0, r5
 80080fa:	f000 fd04 	bl	8008b06 <USBH_BulkReceiveData>
 80080fe:	2304      	movs	r3, #4
 8008100:	f884 304e 	strb.w	r3, [r4, #78]	; 0x4e
 8008104:	e773      	b.n	8007fee <USBH_CDC_Process+0x44>
 8008106:	2300      	movs	r3, #0
 8008108:	f884 304e 	strb.w	r3, [r4, #78]	; 0x4e
 800810c:	4628      	mov	r0, r5
 800810e:	f7ff ff4a 	bl	8007fa6 <USBH_CDC_ReceiveCallback>
 8008112:	e767      	b.n	8007fe4 <USBH_CDC_Process+0x3a>
 8008114:	2100      	movs	r1, #0
 8008116:	f000 fc9b 	bl	8008a50 <USBH_ClrFeature>
 800811a:	2800      	cmp	r0, #0
 800811c:	f47f af67 	bne.w	8007fee <USBH_CDC_Process+0x44>
 8008120:	f884 004c 	strb.w	r0, [r4, #76]	; 0x4c
 8008124:	e763      	b.n	8007fee <USBH_CDC_Process+0x44>

08008126 <DeInitStateMachine>:
 8008126:	f500 7361 	add.w	r3, r0, #900	; 0x384
 800812a:	f500 7270 	add.w	r2, r0, #960	; 0x3c0
 800812e:	2100      	movs	r1, #0
 8008130:	f843 1b04 	str.w	r1, [r3], #4
 8008134:	4293      	cmp	r3, r2
 8008136:	d1fb      	bne.n	8008130 <DeInitStateMachine+0xa>
 8008138:	f500 728e 	add.w	r2, r0, #284	; 0x11c
 800813c:	f500 7147 	add.w	r1, r0, #796	; 0x31c
 8008140:	2300      	movs	r3, #0
 8008142:	f802 3b01 	strb.w	r3, [r2], #1
 8008146:	428a      	cmp	r2, r1
 8008148:	d1fb      	bne.n	8008142 <DeInitStateMachine+0x1c>
 800814a:	7003      	strb	r3, [r0, #0]
 800814c:	7043      	strb	r3, [r0, #1]
 800814e:	f8c0 33c4 	str.w	r3, [r0, #964]	; 0x3c4
 8008152:	2340      	movs	r3, #64	; 0x40
 8008154:	2201      	movs	r2, #1
 8008156:	7183      	strb	r3, [r0, #6]
 8008158:	f44f 7380 	mov.w	r3, #256	; 0x100
 800815c:	7082      	strb	r2, [r0, #2]
 800815e:	8302      	strh	r2, [r0, #24]
 8008160:	f8c0 331c 	str.w	r3, [r0, #796]	; 0x31c
 8008164:	2000      	movs	r0, #0
 8008166:	4770      	bx	lr

08008168 <USBH_Init>:
 8008168:	b570      	push	{r4, r5, r6, lr}
 800816a:	460e      	mov	r6, r1
 800816c:	4604      	mov	r4, r0
 800816e:	b1b0      	cbz	r0, 800819e <USBH_Init+0x36>
 8008170:	2500      	movs	r5, #0
 8008172:	e9c0 55df 	strd	r5, r5, [r0, #892]	; 0x37c
 8008176:	f880 23cc 	strb.w	r2, [r0, #972]	; 0x3cc
 800817a:	f7ff ffd4 	bl	8008126 <DeInitStateMachine>
 800817e:	f884 5320 	strb.w	r5, [r4, #800]	; 0x320
 8008182:	f884 5323 	strb.w	r5, [r4, #803]	; 0x323
 8008186:	f884 5321 	strb.w	r5, [r4, #801]	; 0x321
 800818a:	f884 5322 	strb.w	r5, [r4, #802]	; 0x322
 800818e:	b10e      	cbz	r6, 8008194 <USBH_Init+0x2c>
 8008190:	f8c4 63d4 	str.w	r6, [r4, #980]	; 0x3d4
 8008194:	4620      	mov	r0, r4
 8008196:	f000 fd9b 	bl	8008cd0 <USBH_LL_Init>
 800819a:	2000      	movs	r0, #0
 800819c:	bd70      	pop	{r4, r5, r6, pc}
 800819e:	2002      	movs	r0, #2
 80081a0:	e7fc      	b.n	800819c <USBH_Init+0x34>

080081a2 <USBH_RegisterClass>:
 80081a2:	b149      	cbz	r1, 80081b8 <USBH_RegisterClass+0x16>
 80081a4:	f8d0 3380 	ldr.w	r3, [r0, #896]	; 0x380
 80081a8:	b933      	cbnz	r3, 80081b8 <USBH_RegisterClass+0x16>
 80081aa:	2201      	movs	r2, #1
 80081ac:	f8c0 2380 	str.w	r2, [r0, #896]	; 0x380
 80081b0:	f8c0 1378 	str.w	r1, [r0, #888]	; 0x378
 80081b4:	4618      	mov	r0, r3
 80081b6:	4770      	bx	lr
 80081b8:	2002      	movs	r0, #2
 80081ba:	4770      	bx	lr

080081bc <USBH_SelectInterface>:
 80081bc:	f890 333c 	ldrb.w	r3, [r0, #828]	; 0x33c
 80081c0:	428b      	cmp	r3, r1
 80081c2:	bf86      	itte	hi
 80081c4:	f880 1324 	strbhi.w	r1, [r0, #804]	; 0x324
 80081c8:	2000      	movhi	r0, #0
 80081ca:	2002      	movls	r0, #2
 80081cc:	4770      	bx	lr

080081ce <USBH_FindInterface>:
 80081ce:	b570      	push	{r4, r5, r6, lr}
 80081d0:	2400      	movs	r4, #0
 80081d2:	f890 6347 	ldrb.w	r6, [r0, #839]	; 0x347
 80081d6:	428e      	cmp	r6, r1
 80081d8:	b2e5      	uxtb	r5, r4
 80081da:	d001      	beq.n	80081e0 <USBH_FindInterface+0x12>
 80081dc:	29ff      	cmp	r1, #255	; 0xff
 80081de:	d10b      	bne.n	80081f8 <USBH_FindInterface+0x2a>
 80081e0:	f890 6348 	ldrb.w	r6, [r0, #840]	; 0x348
 80081e4:	4296      	cmp	r6, r2
 80081e6:	d001      	beq.n	80081ec <USBH_FindInterface+0x1e>
 80081e8:	2aff      	cmp	r2, #255	; 0xff
 80081ea:	d105      	bne.n	80081f8 <USBH_FindInterface+0x2a>
 80081ec:	f890 6349 	ldrb.w	r6, [r0, #841]	; 0x349
 80081f0:	429e      	cmp	r6, r3
 80081f2:	d004      	beq.n	80081fe <USBH_FindInterface+0x30>
 80081f4:	2bff      	cmp	r3, #255	; 0xff
 80081f6:	d002      	beq.n	80081fe <USBH_FindInterface+0x30>
 80081f8:	301a      	adds	r0, #26
 80081fa:	b114      	cbz	r4, 8008202 <USBH_FindInterface+0x34>
 80081fc:	25ff      	movs	r5, #255	; 0xff
 80081fe:	4628      	mov	r0, r5
 8008200:	bd70      	pop	{r4, r5, r6, pc}
 8008202:	2401      	movs	r4, #1
 8008204:	e7e5      	b.n	80081d2 <USBH_FindInterface+0x4>

08008206 <USBH_Start>:
 8008206:	b510      	push	{r4, lr}
 8008208:	4604      	mov	r4, r0
 800820a:	f000 fd87 	bl	8008d1c <USBH_LL_Start>
 800820e:	2101      	movs	r1, #1
 8008210:	4620      	mov	r0, r4
 8008212:	f000 fdff 	bl	8008e14 <USBH_LL_DriverVBUS>
 8008216:	2000      	movs	r0, #0
 8008218:	bd10      	pop	{r4, pc}

0800821a <USBH_Process>:
 800821a:	b570      	push	{r4, r5, r6, lr}
 800821c:	b086      	sub	sp, #24
 800821e:	2302      	movs	r3, #2
 8008220:	f88d 3017 	strb.w	r3, [sp, #23]
 8008224:	f890 3321 	ldrb.w	r3, [r0, #801]	; 0x321
 8008228:	2b01      	cmp	r3, #1
 800822a:	bf04      	itt	eq
 800822c:	2303      	moveq	r3, #3
 800822e:	7003      	strbeq	r3, [r0, #0]
 8008230:	7803      	ldrb	r3, [r0, #0]
 8008232:	4604      	mov	r4, r0
 8008234:	2b0b      	cmp	r3, #11
 8008236:	d81d      	bhi.n	8008274 <USBH_Process+0x5a>
 8008238:	e8df f013 	tbh	[pc, r3, lsl #1]
 800823c:	001f000c 	.word	0x001f000c
 8008240:	01b50041 	.word	0x01b50041
 8008244:	0076001c 	.word	0x0076001c
 8008248:	015a0199 	.word	0x015a0199
 800824c:	016b0162 	.word	0x016b0162
 8008250:	01ad0177 	.word	0x01ad0177
 8008254:	f890 3320 	ldrb.w	r3, [r0, #800]	; 0x320
 8008258:	b163      	cbz	r3, 8008274 <USBH_Process+0x5a>
 800825a:	2301      	movs	r3, #1
 800825c:	7003      	strb	r3, [r0, #0]
 800825e:	20c8      	movs	r0, #200	; 0xc8
 8008260:	f000 fdf4 	bl	8008e4c <USBH_Delay>
 8008264:	4620      	mov	r0, r4
 8008266:	f000 fd7f 	bl	8008d68 <USBH_LL_ResetPort>
 800826a:	2300      	movs	r3, #0
 800826c:	f884 331c 	strb.w	r3, [r4, #796]	; 0x31c
 8008270:	f8c4 33c8 	str.w	r3, [r4, #968]	; 0x3c8
 8008274:	2000      	movs	r0, #0
 8008276:	b006      	add	sp, #24
 8008278:	bd70      	pop	{r4, r5, r6, pc}
 800827a:	f890 3323 	ldrb.w	r3, [r0, #803]	; 0x323
 800827e:	2b01      	cmp	r3, #1
 8008280:	d105      	bne.n	800828e <USBH_Process+0x74>
 8008282:	2300      	movs	r3, #0
 8008284:	f880 331f 	strb.w	r3, [r0, #799]	; 0x31f
 8008288:	2302      	movs	r3, #2
 800828a:	7023      	strb	r3, [r4, #0]
 800828c:	e7f2      	b.n	8008274 <USBH_Process+0x5a>
 800828e:	f8d0 33c8 	ldr.w	r3, [r0, #968]	; 0x3c8
 8008292:	f5b3 7f7a 	cmp.w	r3, #1000	; 0x3e8
 8008296:	d90b      	bls.n	80082b0 <USBH_Process+0x96>
 8008298:	f890 331f 	ldrb.w	r3, [r0, #799]	; 0x31f
 800829c:	3301      	adds	r3, #1
 800829e:	b2db      	uxtb	r3, r3
 80082a0:	2b03      	cmp	r3, #3
 80082a2:	f880 331f 	strb.w	r3, [r0, #799]	; 0x31f
 80082a6:	d901      	bls.n	80082ac <USBH_Process+0x92>
 80082a8:	230d      	movs	r3, #13
 80082aa:	e7ee      	b.n	800828a <USBH_Process+0x70>
 80082ac:	2300      	movs	r3, #0
 80082ae:	e7ec      	b.n	800828a <USBH_Process+0x70>
 80082b0:	330a      	adds	r3, #10
 80082b2:	f8c0 33c8 	str.w	r3, [r0, #968]	; 0x3c8
 80082b6:	200a      	movs	r0, #10
 80082b8:	f000 fdc8 	bl	8008e4c <USBH_Delay>
 80082bc:	e7da      	b.n	8008274 <USBH_Process+0x5a>
 80082be:	f8d0 33d4 	ldr.w	r3, [r0, #980]	; 0x3d4
 80082c2:	b10b      	cbz	r3, 80082c8 <USBH_Process+0xae>
 80082c4:	2104      	movs	r1, #4
 80082c6:	4798      	blx	r3
 80082c8:	2064      	movs	r0, #100	; 0x64
 80082ca:	f000 fdbf 	bl	8008e4c <USBH_Delay>
 80082ce:	4620      	mov	r0, r4
 80082d0:	f000 fd40 	bl	8008d54 <USBH_LL_GetSpeed>
 80082d4:	2305      	movs	r3, #5
 80082d6:	7023      	strb	r3, [r4, #0]
 80082d8:	f884 031d 	strb.w	r0, [r4, #797]	; 0x31d
 80082dc:	2100      	movs	r1, #0
 80082de:	4620      	mov	r0, r4
 80082e0:	f000 fc35 	bl	8008b4e <USBH_AllocPipe>
 80082e4:	2180      	movs	r1, #128	; 0x80
 80082e6:	7160      	strb	r0, [r4, #5]
 80082e8:	4620      	mov	r0, r4
 80082ea:	f000 fc30 	bl	8008b4e <USBH_AllocPipe>
 80082ee:	79a3      	ldrb	r3, [r4, #6]
 80082f0:	9302      	str	r3, [sp, #8]
 80082f2:	2500      	movs	r5, #0
 80082f4:	f894 331d 	ldrb.w	r3, [r4, #797]	; 0x31d
 80082f8:	7120      	strb	r0, [r4, #4]
 80082fa:	4601      	mov	r1, r0
 80082fc:	9300      	str	r3, [sp, #0]
 80082fe:	9501      	str	r5, [sp, #4]
 8008300:	f894 331c 	ldrb.w	r3, [r4, #796]	; 0x31c
 8008304:	2280      	movs	r2, #128	; 0x80
 8008306:	4620      	mov	r0, r4
 8008308:	f000 fc0d 	bl	8008b26 <USBH_OpenPipe>
 800830c:	79a3      	ldrb	r3, [r4, #6]
 800830e:	7961      	ldrb	r1, [r4, #5]
 8008310:	e9cd 5301 	strd	r5, r3, [sp, #4]
 8008314:	f894 331d 	ldrb.w	r3, [r4, #797]	; 0x31d
 8008318:	9300      	str	r3, [sp, #0]
 800831a:	462a      	mov	r2, r5
 800831c:	f894 331c 	ldrb.w	r3, [r4, #796]	; 0x31c
 8008320:	4620      	mov	r0, r4
 8008322:	f000 fc00 	bl	8008b26 <USBH_OpenPipe>
 8008326:	e7a5      	b.n	8008274 <USBH_Process+0x5a>
 8008328:	7845      	ldrb	r5, [r0, #1]
 800832a:	2d07      	cmp	r5, #7
 800832c:	d82b      	bhi.n	8008386 <USBH_Process+0x16c>
 800832e:	e8df f005 	tbb	[pc, r5]
 8008332:	4104      	.short	0x4104
 8008334:	af938d71 	.word	0xaf938d71
 8008338:	cdbe      	.short	0xcdbe
 800833a:	2108      	movs	r1, #8
 800833c:	f000 fa65 	bl	800880a <USBH_Get_DevDesc>
 8008340:	4606      	mov	r6, r0
 8008342:	b9f0      	cbnz	r0, 8008382 <USBH_Process+0x168>
 8008344:	f894 332d 	ldrb.w	r3, [r4, #813]	; 0x32d
 8008348:	71a3      	strb	r3, [r4, #6]
 800834a:	e9cd 0301 	strd	r0, r3, [sp, #4]
 800834e:	f894 331d 	ldrb.w	r3, [r4, #797]	; 0x31d
 8008352:	9300      	str	r3, [sp, #0]
 8008354:	2501      	movs	r5, #1
 8008356:	f894 331c 	ldrb.w	r3, [r4, #796]	; 0x31c
 800835a:	7065      	strb	r5, [r4, #1]
 800835c:	7921      	ldrb	r1, [r4, #4]
 800835e:	2280      	movs	r2, #128	; 0x80
 8008360:	4620      	mov	r0, r4
 8008362:	f000 fbe0 	bl	8008b26 <USBH_OpenPipe>
 8008366:	79a3      	ldrb	r3, [r4, #6]
 8008368:	7961      	ldrb	r1, [r4, #5]
 800836a:	e9cd 6301 	strd	r6, r3, [sp, #4]
 800836e:	f894 331d 	ldrb.w	r3, [r4, #797]	; 0x31d
 8008372:	9300      	str	r3, [sp, #0]
 8008374:	4632      	mov	r2, r6
 8008376:	f894 331c 	ldrb.w	r3, [r4, #796]	; 0x31c
 800837a:	4620      	mov	r0, r4
 800837c:	f000 fbd3 	bl	8008b26 <USBH_OpenPipe>
 8008380:	e01e      	b.n	80083c0 <USBH_Process+0x1a6>
 8008382:	2803      	cmp	r0, #3
 8008384:	d001      	beq.n	800838a <USBH_Process+0x170>
 8008386:	2501      	movs	r5, #1
 8008388:	e01a      	b.n	80083c0 <USBH_Process+0x1a6>
 800838a:	f894 331e 	ldrb.w	r3, [r4, #798]	; 0x31e
 800838e:	3301      	adds	r3, #1
 8008390:	b2db      	uxtb	r3, r3
 8008392:	2b03      	cmp	r3, #3
 8008394:	f884 331e 	strb.w	r3, [r4, #798]	; 0x31e
 8008398:	d901      	bls.n	800839e <USBH_Process+0x184>
 800839a:	230d      	movs	r3, #13
 800839c:	e008      	b.n	80083b0 <USBH_Process+0x196>
 800839e:	7961      	ldrb	r1, [r4, #5]
 80083a0:	4620      	mov	r0, r4
 80083a2:	f000 fbec 	bl	8008b7e <USBH_FreePipe>
 80083a6:	7921      	ldrb	r1, [r4, #4]
 80083a8:	4620      	mov	r0, r4
 80083aa:	f000 fbe8 	bl	8008b7e <USBH_FreePipe>
 80083ae:	2300      	movs	r3, #0
 80083b0:	7023      	strb	r3, [r4, #0]
 80083b2:	e7e8      	b.n	8008386 <USBH_Process+0x16c>
 80083b4:	2112      	movs	r1, #18
 80083b6:	f000 fa28 	bl	800880a <USBH_Get_DevDesc>
 80083ba:	b998      	cbnz	r0, 80083e4 <USBH_Process+0x1ca>
 80083bc:	2302      	movs	r3, #2
 80083be:	7063      	strb	r3, [r4, #1]
 80083c0:	f88d 5017 	strb.w	r5, [sp, #23]
 80083c4:	f89d 3017 	ldrb.w	r3, [sp, #23]
 80083c8:	f003 02ff 	and.w	r2, r3, #255	; 0xff
 80083cc:	2b00      	cmp	r3, #0
 80083ce:	f47f af51 	bne.w	8008274 <USBH_Process+0x5a>
 80083d2:	f894 3337 	ldrb.w	r3, [r4, #823]	; 0x337
 80083d6:	f884 2324 	strb.w	r2, [r4, #804]	; 0x324
 80083da:	2b01      	cmp	r3, #1
 80083dc:	f040 8086 	bne.w	80084ec <USBH_Process+0x2d2>
 80083e0:	2308      	movs	r3, #8
 80083e2:	e752      	b.n	800828a <USBH_Process+0x70>
 80083e4:	2803      	cmp	r0, #3
 80083e6:	d1ce      	bne.n	8008386 <USBH_Process+0x16c>
 80083e8:	f894 331e 	ldrb.w	r3, [r4, #798]	; 0x31e
 80083ec:	3301      	adds	r3, #1
 80083ee:	b2db      	uxtb	r3, r3
 80083f0:	2b03      	cmp	r3, #3
 80083f2:	f884 331e 	strb.w	r3, [r4, #798]	; 0x31e
 80083f6:	d902      	bls.n	80083fe <USBH_Process+0x1e4>
 80083f8:	230d      	movs	r3, #13
 80083fa:	7023      	strb	r3, [r4, #0]
 80083fc:	e7e0      	b.n	80083c0 <USBH_Process+0x1a6>
 80083fe:	7961      	ldrb	r1, [r4, #5]
 8008400:	4620      	mov	r0, r4
 8008402:	f000 fbbc 	bl	8008b7e <USBH_FreePipe>
 8008406:	7921      	ldrb	r1, [r4, #4]
 8008408:	4620      	mov	r0, r4
 800840a:	f000 fbb8 	bl	8008b7e <USBH_FreePipe>
 800840e:	2300      	movs	r3, #0
 8008410:	7063      	strb	r3, [r4, #1]
 8008412:	e7f2      	b.n	80083fa <USBH_Process+0x1e0>
 8008414:	2101      	movs	r1, #1
 8008416:	f000 faf4 	bl	8008a02 <USBH_SetAddress>
 800841a:	4606      	mov	r6, r0
 800841c:	b978      	cbnz	r0, 800843e <USBH_Process+0x224>
 800841e:	2002      	movs	r0, #2
 8008420:	f000 fd14 	bl	8008e4c <USBH_Delay>
 8008424:	2303      	movs	r3, #3
 8008426:	7063      	strb	r3, [r4, #1]
 8008428:	79a3      	ldrb	r3, [r4, #6]
 800842a:	2501      	movs	r5, #1
 800842c:	e9cd 6301 	strd	r6, r3, [sp, #4]
 8008430:	f894 331d 	ldrb.w	r3, [r4, #797]	; 0x31d
 8008434:	9300      	str	r3, [sp, #0]
 8008436:	f884 531c 	strb.w	r5, [r4, #796]	; 0x31c
 800843a:	462b      	mov	r3, r5
 800843c:	e78e      	b.n	800835c <USBH_Process+0x142>
 800843e:	2803      	cmp	r0, #3
 8008440:	d1a1      	bne.n	8008386 <USBH_Process+0x16c>
 8008442:	230d      	movs	r3, #13
 8008444:	7023      	strb	r3, [r4, #0]
 8008446:	2300      	movs	r3, #0
 8008448:	7063      	strb	r3, [r4, #1]
 800844a:	e79c      	b.n	8008386 <USBH_Process+0x16c>
 800844c:	2109      	movs	r1, #9
 800844e:	f000 fa24 	bl	800889a <USBH_Get_CfgDesc>
 8008452:	b940      	cbnz	r0, 8008466 <USBH_Process+0x24c>
 8008454:	2304      	movs	r3, #4
 8008456:	e7f7      	b.n	8008448 <USBH_Process+0x22e>
 8008458:	f8b0 133a 	ldrh.w	r1, [r0, #826]	; 0x33a
 800845c:	f000 fa1d 	bl	800889a <USBH_Get_CfgDesc>
 8008460:	b908      	cbnz	r0, 8008466 <USBH_Process+0x24c>
 8008462:	2305      	movs	r3, #5
 8008464:	e7f0      	b.n	8008448 <USBH_Process+0x22e>
 8008466:	2803      	cmp	r0, #3
 8008468:	d18d      	bne.n	8008386 <USBH_Process+0x16c>
 800846a:	f894 331e 	ldrb.w	r3, [r4, #798]	; 0x31e
 800846e:	3301      	adds	r3, #1
 8008470:	b2db      	uxtb	r3, r3
 8008472:	2b03      	cmp	r3, #3
 8008474:	f884 331e 	strb.w	r3, [r4, #798]	; 0x31e
 8008478:	d88f      	bhi.n	800839a <USBH_Process+0x180>
 800847a:	7961      	ldrb	r1, [r4, #5]
 800847c:	4620      	mov	r0, r4
 800847e:	f000 fb7e 	bl	8008b7e <USBH_FreePipe>
 8008482:	7921      	ldrb	r1, [r4, #4]
 8008484:	4620      	mov	r0, r4
 8008486:	f000 fb7a 	bl	8008b7e <USBH_FreePipe>
 800848a:	2300      	movs	r3, #0
 800848c:	7063      	strb	r3, [r4, #1]
 800848e:	e78f      	b.n	80083b0 <USBH_Process+0x196>
 8008490:	f890 1334 	ldrb.w	r1, [r0, #820]	; 0x334
 8008494:	b129      	cbz	r1, 80084a2 <USBH_Process+0x288>
 8008496:	23ff      	movs	r3, #255	; 0xff
 8008498:	f500 728e 	add.w	r2, r0, #284	; 0x11c
 800849c:	f000 fa8a 	bl	80089b4 <USBH_Get_StringDesc>
 80084a0:	b908      	cbnz	r0, 80084a6 <USBH_Process+0x28c>
 80084a2:	2306      	movs	r3, #6
 80084a4:	e7d0      	b.n	8008448 <USBH_Process+0x22e>
 80084a6:	2803      	cmp	r0, #3
 80084a8:	f47f af6d 	bne.w	8008386 <USBH_Process+0x16c>
 80084ac:	e7f9      	b.n	80084a2 <USBH_Process+0x288>
 80084ae:	f890 1335 	ldrb.w	r1, [r0, #821]	; 0x335
 80084b2:	b129      	cbz	r1, 80084c0 <USBH_Process+0x2a6>
 80084b4:	23ff      	movs	r3, #255	; 0xff
 80084b6:	f500 728e 	add.w	r2, r0, #284	; 0x11c
 80084ba:	f000 fa7b 	bl	80089b4 <USBH_Get_StringDesc>
 80084be:	b908      	cbnz	r0, 80084c4 <USBH_Process+0x2aa>
 80084c0:	2307      	movs	r3, #7
 80084c2:	e7c1      	b.n	8008448 <USBH_Process+0x22e>
 80084c4:	2803      	cmp	r0, #3
 80084c6:	f47f af5e 	bne.w	8008386 <USBH_Process+0x16c>
 80084ca:	e7f9      	b.n	80084c0 <USBH_Process+0x2a6>
 80084cc:	f890 1336 	ldrb.w	r1, [r0, #822]	; 0x336
 80084d0:	b909      	cbnz	r1, 80084d6 <USBH_Process+0x2bc>
 80084d2:	2500      	movs	r5, #0
 80084d4:	e774      	b.n	80083c0 <USBH_Process+0x1a6>
 80084d6:	23ff      	movs	r3, #255	; 0xff
 80084d8:	f500 728e 	add.w	r2, r0, #284	; 0x11c
 80084dc:	f000 fa6a 	bl	80089b4 <USBH_Get_StringDesc>
 80084e0:	2800      	cmp	r0, #0
 80084e2:	d0f6      	beq.n	80084d2 <USBH_Process+0x2b8>
 80084e4:	1ec5      	subs	r5, r0, #3
 80084e6:	bf18      	it	ne
 80084e8:	2501      	movne	r5, #1
 80084ea:	e769      	b.n	80083c0 <USBH_Process+0x1a6>
 80084ec:	2307      	movs	r3, #7
 80084ee:	e6cc      	b.n	800828a <USBH_Process+0x70>
 80084f0:	f8d0 33d4 	ldr.w	r3, [r0, #980]	; 0x3d4
 80084f4:	2b00      	cmp	r3, #0
 80084f6:	f43f aebd 	beq.w	8008274 <USBH_Process+0x5a>
 80084fa:	2101      	movs	r1, #1
 80084fc:	4798      	blx	r3
 80084fe:	e76f      	b.n	80083e0 <USBH_Process+0x1c6>
 8008500:	f890 133d 	ldrb.w	r1, [r0, #829]	; 0x33d
 8008504:	f000 fa8a 	bl	8008a1c <USBH_SetCfg>
 8008508:	2800      	cmp	r0, #0
 800850a:	f47f aeb3 	bne.w	8008274 <USBH_Process+0x5a>
 800850e:	2309      	movs	r3, #9
 8008510:	e6bb      	b.n	800828a <USBH_Process+0x70>
 8008512:	f890 333f 	ldrb.w	r3, [r0, #831]	; 0x33f
 8008516:	069b      	lsls	r3, r3, #26
 8008518:	d505      	bpl.n	8008526 <USBH_Process+0x30c>
 800851a:	2101      	movs	r1, #1
 800851c:	f000 fa8b 	bl	8008a36 <USBH_SetFeature>
 8008520:	2800      	cmp	r0, #0
 8008522:	f47f aea7 	bne.w	8008274 <USBH_Process+0x5a>
 8008526:	230a      	movs	r3, #10
 8008528:	e6af      	b.n	800828a <USBH_Process+0x70>
 800852a:	f8d0 3380 	ldr.w	r3, [r0, #896]	; 0x380
 800852e:	2b00      	cmp	r3, #0
 8008530:	f43f aea0 	beq.w	8008274 <USBH_Process+0x5a>
 8008534:	2300      	movs	r3, #0
 8008536:	f8c0 337c 	str.w	r3, [r0, #892]	; 0x37c
 800853a:	f8d0 3378 	ldr.w	r3, [r0, #888]	; 0x378
 800853e:	f890 2347 	ldrb.w	r2, [r0, #839]	; 0x347
 8008542:	7919      	ldrb	r1, [r3, #4]
 8008544:	4291      	cmp	r1, r2
 8008546:	bf18      	it	ne
 8008548:	2300      	movne	r3, #0
 800854a:	f8c0 337c 	str.w	r3, [r0, #892]	; 0x37c
 800854e:	2b00      	cmp	r3, #0
 8008550:	f43f aeaa 	beq.w	80082a8 <USBH_Process+0x8e>
 8008554:	689b      	ldr	r3, [r3, #8]
 8008556:	4798      	blx	r3
 8008558:	2800      	cmp	r0, #0
 800855a:	f47f aea5 	bne.w	80082a8 <USBH_Process+0x8e>
 800855e:	2306      	movs	r3, #6
 8008560:	7023      	strb	r3, [r4, #0]
 8008562:	2103      	movs	r1, #3
 8008564:	f8d4 33d4 	ldr.w	r3, [r4, #980]	; 0x3d4
 8008568:	4620      	mov	r0, r4
 800856a:	4798      	blx	r3
 800856c:	e682      	b.n	8008274 <USBH_Process+0x5a>
 800856e:	f8d0 337c 	ldr.w	r3, [r0, #892]	; 0x37c
 8008572:	2b00      	cmp	r3, #0
 8008574:	f43f ae98 	beq.w	80082a8 <USBH_Process+0x8e>
 8008578:	691b      	ldr	r3, [r3, #16]
 800857a:	4798      	blx	r3
 800857c:	f88d 0017 	strb.w	r0, [sp, #23]
 8008580:	f89d 3017 	ldrb.w	r3, [sp, #23]
 8008584:	b90b      	cbnz	r3, 800858a <USBH_Process+0x370>
 8008586:	230b      	movs	r3, #11
 8008588:	e67f      	b.n	800828a <USBH_Process+0x70>
 800858a:	f89d 3017 	ldrb.w	r3, [sp, #23]
 800858e:	2b02      	cmp	r3, #2
 8008590:	f47f ae70 	bne.w	8008274 <USBH_Process+0x5a>
 8008594:	e688      	b.n	80082a8 <USBH_Process+0x8e>
 8008596:	f8d0 337c 	ldr.w	r3, [r0, #892]	; 0x37c
 800859a:	2b00      	cmp	r3, #0
 800859c:	f43f ae6a 	beq.w	8008274 <USBH_Process+0x5a>
 80085a0:	695b      	ldr	r3, [r3, #20]
 80085a2:	4798      	blx	r3
 80085a4:	e666      	b.n	8008274 <USBH_Process+0x5a>
 80085a6:	2500      	movs	r5, #0
 80085a8:	f880 5321 	strb.w	r5, [r0, #801]	; 0x321
 80085ac:	f7ff fdbb 	bl	8008126 <DeInitStateMachine>
 80085b0:	f8d4 337c 	ldr.w	r3, [r4, #892]	; 0x37c
 80085b4:	b123      	cbz	r3, 80085c0 <USBH_Process+0x3a6>
 80085b6:	68db      	ldr	r3, [r3, #12]
 80085b8:	4620      	mov	r0, r4
 80085ba:	4798      	blx	r3
 80085bc:	f8c4 537c 	str.w	r5, [r4, #892]	; 0x37c
 80085c0:	f8d4 33d4 	ldr.w	r3, [r4, #980]	; 0x3d4
 80085c4:	b113      	cbz	r3, 80085cc <USBH_Process+0x3b2>
 80085c6:	2105      	movs	r1, #5
 80085c8:	4620      	mov	r0, r4
 80085ca:	4798      	blx	r3
 80085cc:	f894 3322 	ldrb.w	r3, [r4, #802]	; 0x322
 80085d0:	2b01      	cmp	r3, #1
 80085d2:	d106      	bne.n	80085e2 <USBH_Process+0x3c8>
 80085d4:	2300      	movs	r3, #0
 80085d6:	f884 3322 	strb.w	r3, [r4, #802]	; 0x322
 80085da:	4620      	mov	r0, r4
 80085dc:	f7ff fe13 	bl	8008206 <USBH_Start>
 80085e0:	e648      	b.n	8008274 <USBH_Process+0x5a>
 80085e2:	4620      	mov	r0, r4
 80085e4:	f000 fb9a 	bl	8008d1c <USBH_LL_Start>
 80085e8:	e644      	b.n	8008274 <USBH_Process+0x5a>

080085ea <USBH_LL_SetTimer>:
 80085ea:	f8c0 13c4 	str.w	r1, [r0, #964]	; 0x3c4
 80085ee:	4770      	bx	lr

080085f0 <USBH_LL_IncTimer>:
 80085f0:	f8d0 23c4 	ldr.w	r2, [r0, #964]	; 0x3c4
 80085f4:	3201      	adds	r2, #1
 80085f6:	f8c0 23c4 	str.w	r2, [r0, #964]	; 0x3c4
 80085fa:	7802      	ldrb	r2, [r0, #0]
 80085fc:	2a0b      	cmp	r2, #11
 80085fe:	d104      	bne.n	800860a <USBH_LL_IncTimer+0x1a>
 8008600:	f8d0 337c 	ldr.w	r3, [r0, #892]	; 0x37c
 8008604:	b10b      	cbz	r3, 800860a <USBH_LL_IncTimer+0x1a>
 8008606:	699b      	ldr	r3, [r3, #24]
 8008608:	4718      	bx	r3
 800860a:	4770      	bx	lr

0800860c <USBH_LL_PortEnabled>:
 800860c:	2301      	movs	r3, #1
 800860e:	f880 3323 	strb.w	r3, [r0, #803]	; 0x323
 8008612:	4770      	bx	lr

08008614 <USBH_LL_PortDisabled>:
 8008614:	2300      	movs	r3, #0
 8008616:	f880 3323 	strb.w	r3, [r0, #803]	; 0x323
 800861a:	4770      	bx	lr

0800861c <USBH_LL_Connect>:
 800861c:	2301      	movs	r3, #1
 800861e:	f880 3320 	strb.w	r3, [r0, #800]	; 0x320
 8008622:	2300      	movs	r3, #0
 8008624:	f880 3321 	strb.w	r3, [r0, #801]	; 0x321
 8008628:	f880 3322 	strb.w	r3, [r0, #802]	; 0x322
 800862c:	4618      	mov	r0, r3
 800862e:	4770      	bx	lr

08008630 <USBH_LL_Disconnect>:
 8008630:	b538      	push	{r3, r4, r5, lr}
 8008632:	4604      	mov	r4, r0
 8008634:	2301      	movs	r3, #1
 8008636:	2500      	movs	r5, #0
 8008638:	f880 3321 	strb.w	r3, [r0, #801]	; 0x321
 800863c:	f880 5323 	strb.w	r5, [r0, #803]	; 0x323
 8008640:	f880 5320 	strb.w	r5, [r0, #800]	; 0x320
 8008644:	f000 fb78 	bl	8008d38 <USBH_LL_Stop>
 8008648:	7921      	ldrb	r1, [r4, #4]
 800864a:	4620      	mov	r0, r4
 800864c:	f000 fa97 	bl	8008b7e <USBH_FreePipe>
 8008650:	7961      	ldrb	r1, [r4, #5]
 8008652:	4620      	mov	r0, r4
 8008654:	f000 fa93 	bl	8008b7e <USBH_FreePipe>
 8008658:	4628      	mov	r0, r5
 800865a:	bd38      	pop	{r3, r4, r5, pc}

0800865c <USBH_CtlReq>:
 800865c:	b573      	push	{r0, r1, r4, r5, r6, lr}
 800865e:	7885      	ldrb	r5, [r0, #2]
 8008660:	2d01      	cmp	r5, #1
 8008662:	4604      	mov	r4, r0
 8008664:	d003      	beq.n	800866e <USBH_CtlReq+0x12>
 8008666:	2d02      	cmp	r5, #2
 8008668:	d007      	beq.n	800867a <USBH_CtlReq+0x1e>
 800866a:	2501      	movs	r5, #1
 800866c:	e019      	b.n	80086a2 <USBH_CtlReq+0x46>
 800866e:	6081      	str	r1, [r0, #8]
 8008670:	8182      	strh	r2, [r0, #12]
 8008672:	7605      	strb	r5, [r0, #24]
 8008674:	2302      	movs	r3, #2
 8008676:	70a3      	strb	r3, [r4, #2]
 8008678:	e013      	b.n	80086a2 <USBH_CtlReq+0x46>
 800867a:	7e06      	ldrb	r6, [r0, #24]
 800867c:	1e73      	subs	r3, r6, #1
 800867e:	2b0a      	cmp	r3, #10
 8008680:	d8f3      	bhi.n	800866a <USBH_CtlReq+0xe>
 8008682:	e8df f003 	tbb	[pc, r3]
 8008686:	1106      	.short	0x1106
 8008688:	4e42392f 	.word	0x4e42392f
 800868c:	8478675d 	.word	0x8478675d
 8008690:	8c          	.byte	0x8c
 8008691:	00          	.byte	0x00
 8008692:	7942      	ldrb	r2, [r0, #5]
 8008694:	f100 0110 	add.w	r1, r0, #16
 8008698:	f000 f9e7 	bl	8008a6a <USBH_CtlSendSetup>
 800869c:	2302      	movs	r3, #2
 800869e:	7623      	strb	r3, [r4, #24]
 80086a0:	4635      	mov	r5, r6
 80086a2:	4628      	mov	r0, r5
 80086a4:	b002      	add	sp, #8
 80086a6:	bd70      	pop	{r4, r5, r6, pc}
 80086a8:	7941      	ldrb	r1, [r0, #5]
 80086aa:	f000 fbaf 	bl	8008e0c <USBH_LL_GetURBState>
 80086ae:	2801      	cmp	r0, #1
 80086b0:	4605      	mov	r5, r0
 80086b2:	d111      	bne.n	80086d8 <USBH_CtlReq+0x7c>
 80086b4:	8ae2      	ldrh	r2, [r4, #22]
 80086b6:	f994 3010 	ldrsb.w	r3, [r4, #16]
 80086ba:	b13a      	cbz	r2, 80086cc <USBH_CtlReq+0x70>
 80086bc:	2b00      	cmp	r3, #0
 80086be:	da02      	bge.n	80086c6 <USBH_CtlReq+0x6a>
 80086c0:	2303      	movs	r3, #3
 80086c2:	7623      	strb	r3, [r4, #24]
 80086c4:	e7ed      	b.n	80086a2 <USBH_CtlReq+0x46>
 80086c6:	2305      	movs	r3, #5
 80086c8:	7623      	strb	r3, [r4, #24]
 80086ca:	e7ce      	b.n	800866a <USBH_CtlReq+0xe>
 80086cc:	2b00      	cmp	r3, #0
 80086ce:	da01      	bge.n	80086d4 <USBH_CtlReq+0x78>
 80086d0:	2309      	movs	r3, #9
 80086d2:	e7f9      	b.n	80086c8 <USBH_CtlReq+0x6c>
 80086d4:	2307      	movs	r3, #7
 80086d6:	e7f7      	b.n	80086c8 <USBH_CtlReq+0x6c>
 80086d8:	2804      	cmp	r0, #4
 80086da:	d001      	beq.n	80086e0 <USBH_CtlReq+0x84>
 80086dc:	2802      	cmp	r0, #2
 80086de:	d1c4      	bne.n	800866a <USBH_CtlReq+0xe>
 80086e0:	230b      	movs	r3, #11
 80086e2:	e7f1      	b.n	80086c8 <USBH_CtlReq+0x6c>
 80086e4:	f8d0 33c4 	ldr.w	r3, [r0, #964]	; 0x3c4
 80086e8:	81c3      	strh	r3, [r0, #14]
 80086ea:	8982      	ldrh	r2, [r0, #12]
 80086ec:	7903      	ldrb	r3, [r0, #4]
 80086ee:	6881      	ldr	r1, [r0, #8]
 80086f0:	f000 f9e2 	bl	8008ab8 <USBH_CtlReceiveData>
 80086f4:	2304      	movs	r3, #4
 80086f6:	e7e7      	b.n	80086c8 <USBH_CtlReq+0x6c>
 80086f8:	7901      	ldrb	r1, [r0, #4]
 80086fa:	f000 fb87 	bl	8008e0c <USBH_LL_GetURBState>
 80086fe:	2801      	cmp	r0, #1
 8008700:	d0e6      	beq.n	80086d0 <USBH_CtlReq+0x74>
 8008702:	2805      	cmp	r0, #5
 8008704:	d035      	beq.n	8008772 <USBH_CtlReq+0x116>
 8008706:	2804      	cmp	r0, #4
 8008708:	e7e9      	b.n	80086de <USBH_CtlReq+0x82>
 800870a:	2501      	movs	r5, #1
 800870c:	9500      	str	r5, [sp, #0]
 800870e:	7943      	ldrb	r3, [r0, #5]
 8008710:	8982      	ldrh	r2, [r0, #12]
 8008712:	6881      	ldr	r1, [r0, #8]
 8008714:	f000 f9b9 	bl	8008a8a <USBH_CtlSendData>
 8008718:	f8d4 33c4 	ldr.w	r3, [r4, #964]	; 0x3c4
 800871c:	81e3      	strh	r3, [r4, #14]
 800871e:	2306      	movs	r3, #6
 8008720:	e7cf      	b.n	80086c2 <USBH_CtlReq+0x66>
 8008722:	7941      	ldrb	r1, [r0, #5]
 8008724:	f000 fb72 	bl	8008e0c <USBH_LL_GetURBState>
 8008728:	2801      	cmp	r0, #1
 800872a:	d0d3      	beq.n	80086d4 <USBH_CtlReq+0x78>
 800872c:	2805      	cmp	r0, #5
 800872e:	d020      	beq.n	8008772 <USBH_CtlReq+0x116>
 8008730:	2802      	cmp	r0, #2
 8008732:	d0c8      	beq.n	80086c6 <USBH_CtlReq+0x6a>
 8008734:	2804      	cmp	r0, #4
 8008736:	d198      	bne.n	800866a <USBH_CtlReq+0xe>
 8008738:	230b      	movs	r3, #11
 800873a:	7623      	strb	r3, [r4, #24]
 800873c:	2301      	movs	r3, #1
 800873e:	e79a      	b.n	8008676 <USBH_CtlReq+0x1a>
 8008740:	2200      	movs	r2, #0
 8008742:	7903      	ldrb	r3, [r0, #4]
 8008744:	4611      	mov	r1, r2
 8008746:	f000 f9b7 	bl	8008ab8 <USBH_CtlReceiveData>
 800874a:	f8d4 33c4 	ldr.w	r3, [r4, #964]	; 0x3c4
 800874e:	81e3      	strh	r3, [r4, #14]
 8008750:	2308      	movs	r3, #8
 8008752:	e7b9      	b.n	80086c8 <USBH_CtlReq+0x6c>
 8008754:	7901      	ldrb	r1, [r0, #4]
 8008756:	f000 fb59 	bl	8008e0c <USBH_LL_GetURBState>
 800875a:	2801      	cmp	r0, #1
 800875c:	d104      	bne.n	8008768 <USBH_CtlReq+0x10c>
 800875e:	2500      	movs	r5, #0
 8008760:	2301      	movs	r3, #1
 8008762:	70a3      	strb	r3, [r4, #2]
 8008764:	2300      	movs	r3, #0
 8008766:	e7ac      	b.n	80086c2 <USBH_CtlReq+0x66>
 8008768:	2804      	cmp	r0, #4
 800876a:	d0b9      	beq.n	80086e0 <USBH_CtlReq+0x84>
 800876c:	2805      	cmp	r0, #5
 800876e:	f47f af7c 	bne.w	800866a <USBH_CtlReq+0xe>
 8008772:	2503      	movs	r5, #3
 8008774:	e7f4      	b.n	8008760 <USBH_CtlReq+0x104>
 8008776:	2501      	movs	r5, #1
 8008778:	9500      	str	r5, [sp, #0]
 800877a:	2200      	movs	r2, #0
 800877c:	7943      	ldrb	r3, [r0, #5]
 800877e:	4611      	mov	r1, r2
 8008780:	f000 f983 	bl	8008a8a <USBH_CtlSendData>
 8008784:	f8d4 33c4 	ldr.w	r3, [r4, #964]	; 0x3c4
 8008788:	81e3      	strh	r3, [r4, #14]
 800878a:	230a      	movs	r3, #10
 800878c:	e799      	b.n	80086c2 <USBH_CtlReq+0x66>
 800878e:	7941      	ldrb	r1, [r0, #5]
 8008790:	f000 fb3c 	bl	8008e0c <USBH_LL_GetURBState>
 8008794:	2801      	cmp	r0, #1
 8008796:	d0e2      	beq.n	800875e <USBH_CtlReq+0x102>
 8008798:	2802      	cmp	r0, #2
 800879a:	d1b4      	bne.n	8008706 <USBH_CtlReq+0xaa>
 800879c:	e798      	b.n	80086d0 <USBH_CtlReq+0x74>
 800879e:	7e43      	ldrb	r3, [r0, #25]
 80087a0:	3301      	adds	r3, #1
 80087a2:	b2db      	uxtb	r3, r3
 80087a4:	2b02      	cmp	r3, #2
 80087a6:	7643      	strb	r3, [r0, #25]
 80087a8:	d803      	bhi.n	80087b2 <USBH_CtlReq+0x156>
 80087aa:	2501      	movs	r5, #1
 80087ac:	7605      	strb	r5, [r0, #24]
 80087ae:	7085      	strb	r5, [r0, #2]
 80087b0:	e777      	b.n	80086a2 <USBH_CtlReq+0x46>
 80087b2:	f8d0 33d4 	ldr.w	r3, [r0, #980]	; 0x3d4
 80087b6:	2106      	movs	r1, #6
 80087b8:	2600      	movs	r6, #0
 80087ba:	4798      	blx	r3
 80087bc:	7961      	ldrb	r1, [r4, #5]
 80087be:	7666      	strb	r6, [r4, #25]
 80087c0:	4620      	mov	r0, r4
 80087c2:	f000 f9dc 	bl	8008b7e <USBH_FreePipe>
 80087c6:	7921      	ldrb	r1, [r4, #4]
 80087c8:	4620      	mov	r0, r4
 80087ca:	f000 f9d8 	bl	8008b7e <USBH_FreePipe>
 80087ce:	7026      	strb	r6, [r4, #0]
 80087d0:	e7b4      	b.n	800873c <USBH_CtlReq+0xe0>

080087d2 <USBH_GetDescriptor>:
 80087d2:	b430      	push	{r4, r5}
 80087d4:	460c      	mov	r4, r1
 80087d6:	4619      	mov	r1, r3
 80087d8:	7883      	ldrb	r3, [r0, #2]
 80087da:	f8bd 5008 	ldrh.w	r5, [sp, #8]
 80087de:	2b01      	cmp	r3, #1
 80087e0:	d10f      	bne.n	8008802 <USBH_GetDescriptor+0x30>
 80087e2:	f064 047f 	orn	r4, r4, #127	; 0x7f
 80087e6:	7404      	strb	r4, [r0, #16]
 80087e8:	f402 447f 	and.w	r4, r2, #65280	; 0xff00
 80087ec:	2306      	movs	r3, #6
 80087ee:	f5b4 7f40 	cmp.w	r4, #768	; 0x300
 80087f2:	7443      	strb	r3, [r0, #17]
 80087f4:	f240 4309 	movw	r3, #1033	; 0x409
 80087f8:	bf18      	it	ne
 80087fa:	2300      	movne	r3, #0
 80087fc:	8242      	strh	r2, [r0, #18]
 80087fe:	8283      	strh	r3, [r0, #20]
 8008800:	82c5      	strh	r5, [r0, #22]
 8008802:	462a      	mov	r2, r5
 8008804:	bc30      	pop	{r4, r5}
 8008806:	f7ff bf29 	b.w	800865c <USBH_CtlReq>

0800880a <USBH_Get_DevDesc>:
 800880a:	b537      	push	{r0, r1, r2, r4, r5, lr}
 800880c:	f500 738e 	add.w	r3, r0, #284	; 0x11c
 8008810:	460d      	mov	r5, r1
 8008812:	9100      	str	r1, [sp, #0]
 8008814:	f44f 7280 	mov.w	r2, #256	; 0x100
 8008818:	2100      	movs	r1, #0
 800881a:	4604      	mov	r4, r0
 800881c:	f7ff ffd9 	bl	80087d2 <USBH_GetDescriptor>
 8008820:	bbc8      	cbnz	r0, 8008896 <USBH_Get_DevDesc+0x8c>
 8008822:	f894 311c 	ldrb.w	r3, [r4, #284]	; 0x11c
 8008826:	f884 3326 	strb.w	r3, [r4, #806]	; 0x326
 800882a:	f894 311d 	ldrb.w	r3, [r4, #285]	; 0x11d
 800882e:	f884 3327 	strb.w	r3, [r4, #807]	; 0x327
 8008832:	f8b4 311e 	ldrh.w	r3, [r4, #286]	; 0x11e
 8008836:	f8a4 3328 	strh.w	r3, [r4, #808]	; 0x328
 800883a:	f894 3120 	ldrb.w	r3, [r4, #288]	; 0x120
 800883e:	f884 332a 	strb.w	r3, [r4, #810]	; 0x32a
 8008842:	f894 3121 	ldrb.w	r3, [r4, #289]	; 0x121
 8008846:	f884 332b 	strb.w	r3, [r4, #811]	; 0x32b
 800884a:	f894 3122 	ldrb.w	r3, [r4, #290]	; 0x122
 800884e:	f884 332c 	strb.w	r3, [r4, #812]	; 0x32c
 8008852:	2d08      	cmp	r5, #8
 8008854:	f894 3123 	ldrb.w	r3, [r4, #291]	; 0x123
 8008858:	f884 332d 	strb.w	r3, [r4, #813]	; 0x32d
 800885c:	d91b      	bls.n	8008896 <USBH_Get_DevDesc+0x8c>
 800885e:	f8b4 3124 	ldrh.w	r3, [r4, #292]	; 0x124
 8008862:	f8a4 332e 	strh.w	r3, [r4, #814]	; 0x32e
 8008866:	f8b4 3126 	ldrh.w	r3, [r4, #294]	; 0x126
 800886a:	f8a4 3330 	strh.w	r3, [r4, #816]	; 0x330
 800886e:	f8b4 3128 	ldrh.w	r3, [r4, #296]	; 0x128
 8008872:	f8a4 3332 	strh.w	r3, [r4, #818]	; 0x332
 8008876:	f894 312a 	ldrb.w	r3, [r4, #298]	; 0x12a
 800887a:	f884 3334 	strb.w	r3, [r4, #820]	; 0x334
 800887e:	f894 312b 	ldrb.w	r3, [r4, #299]	; 0x12b
 8008882:	f884 3335 	strb.w	r3, [r4, #821]	; 0x335
 8008886:	f894 312c 	ldrb.w	r3, [r4, #300]	; 0x12c
 800888a:	f884 3336 	strb.w	r3, [r4, #822]	; 0x336
 800888e:	f894 312d 	ldrb.w	r3, [r4, #301]	; 0x12d
 8008892:	f884 3337 	strb.w	r3, [r4, #823]	; 0x337
 8008896:	b003      	add	sp, #12
 8008898:	bd30      	pop	{r4, r5, pc}

0800889a <USBH_Get_CfgDesc>:
 800889a:	e92d 43f7 	stmdb	sp!, {r0, r1, r2, r4, r5, r6, r7, r8, r9, lr}
 800889e:	f100 041c 	add.w	r4, r0, #28
 80088a2:	460e      	mov	r6, r1
 80088a4:	9100      	str	r1, [sp, #0]
 80088a6:	4623      	mov	r3, r4
 80088a8:	f44f 7200 	mov.w	r2, #512	; 0x200
 80088ac:	2100      	movs	r1, #0
 80088ae:	4605      	mov	r5, r0
 80088b0:	f7ff ff8f 	bl	80087d2 <USBH_GetDescriptor>
 80088b4:	bb40      	cbnz	r0, 8008908 <USBH_Get_CfgDesc+0x6e>
 80088b6:	7f2b      	ldrb	r3, [r5, #28]
 80088b8:	f885 3338 	strb.w	r3, [r5, #824]	; 0x338
 80088bc:	7f6b      	ldrb	r3, [r5, #29]
 80088be:	f885 3339 	strb.w	r3, [r5, #825]	; 0x339
 80088c2:	f895 3020 	ldrb.w	r3, [r5, #32]
 80088c6:	f885 333c 	strb.w	r3, [r5, #828]	; 0x33c
 80088ca:	f895 3021 	ldrb.w	r3, [r5, #33]	; 0x21
 80088ce:	f885 333d 	strb.w	r3, [r5, #829]	; 0x33d
 80088d2:	f895 3022 	ldrb.w	r3, [r5, #34]	; 0x22
 80088d6:	f885 333e 	strb.w	r3, [r5, #830]	; 0x33e
 80088da:	f895 3023 	ldrb.w	r3, [r5, #35]	; 0x23
 80088de:	f8b5 c01e 	ldrh.w	ip, [r5, #30]
 80088e2:	f885 333f 	strb.w	r3, [r5, #831]	; 0x33f
 80088e6:	2e09      	cmp	r6, #9
 80088e8:	f895 3024 	ldrb.w	r3, [r5, #36]	; 0x24
 80088ec:	f8a5 c33a 	strh.w	ip, [r5, #826]	; 0x33a
 80088f0:	f885 3340 	strb.w	r3, [r5, #832]	; 0x340
 80088f4:	d908      	bls.n	8008908 <USBH_Get_CfgDesc+0x6e>
 80088f6:	462b      	mov	r3, r5
 80088f8:	4607      	mov	r7, r0
 80088fa:	2209      	movs	r2, #9
 80088fc:	f04f 0e1a 	mov.w	lr, #26
 8008900:	2f02      	cmp	r7, #2
 8008902:	d001      	beq.n	8008908 <USBH_Get_CfgDesc+0x6e>
 8008904:	4594      	cmp	ip, r2
 8008906:	d802      	bhi.n	800890e <USBH_Get_CfgDesc+0x74>
 8008908:	b003      	add	sp, #12
 800890a:	e8bd 83f0 	ldmia.w	sp!, {r4, r5, r6, r7, r8, r9, pc}
 800890e:	7821      	ldrb	r1, [r4, #0]
 8008910:	440c      	add	r4, r1
 8008912:	440a      	add	r2, r1
 8008914:	7861      	ldrb	r1, [r4, #1]
 8008916:	2904      	cmp	r1, #4
 8008918:	b292      	uxth	r2, r2
 800891a:	d1f1      	bne.n	8008900 <USBH_Get_CfgDesc+0x66>
 800891c:	7821      	ldrb	r1, [r4, #0]
 800891e:	f883 1342 	strb.w	r1, [r3, #834]	; 0x342
 8008922:	7861      	ldrb	r1, [r4, #1]
 8008924:	f883 1343 	strb.w	r1, [r3, #835]	; 0x343
 8008928:	78a1      	ldrb	r1, [r4, #2]
 800892a:	f883 1344 	strb.w	r1, [r3, #836]	; 0x344
 800892e:	78e1      	ldrb	r1, [r4, #3]
 8008930:	f883 1345 	strb.w	r1, [r3, #837]	; 0x345
 8008934:	7921      	ldrb	r1, [r4, #4]
 8008936:	f883 1346 	strb.w	r1, [r3, #838]	; 0x346
 800893a:	7961      	ldrb	r1, [r4, #5]
 800893c:	f883 1347 	strb.w	r1, [r3, #839]	; 0x347
 8008940:	79a1      	ldrb	r1, [r4, #6]
 8008942:	f883 1348 	strb.w	r1, [r3, #840]	; 0x348
 8008946:	79e1      	ldrb	r1, [r4, #7]
 8008948:	f883 1349 	strb.w	r1, [r3, #841]	; 0x349
 800894c:	7a21      	ldrb	r1, [r4, #8]
 800894e:	f883 134a 	strb.w	r1, [r3, #842]	; 0x34a
 8008952:	fb0e f807 	mul.w	r8, lr, r7
 8008956:	2100      	movs	r1, #0
 8008958:	f893 6346 	ldrb.w	r6, [r3, #838]	; 0x346
 800895c:	428e      	cmp	r6, r1
 800895e:	d901      	bls.n	8008964 <USBH_Get_CfgDesc+0xca>
 8008960:	4594      	cmp	ip, r2
 8008962:	d802      	bhi.n	800896a <USBH_Get_CfgDesc+0xd0>
 8008964:	3701      	adds	r7, #1
 8008966:	331a      	adds	r3, #26
 8008968:	e7ca      	b.n	8008900 <USBH_Get_CfgDesc+0x66>
 800896a:	7826      	ldrb	r6, [r4, #0]
 800896c:	4434      	add	r4, r6
 800896e:	4432      	add	r2, r6
 8008970:	7866      	ldrb	r6, [r4, #1]
 8008972:	2e05      	cmp	r6, #5
 8008974:	b292      	uxth	r2, r2
 8008976:	d1ef      	bne.n	8008958 <USBH_Get_CfgDesc+0xbe>
 8008978:	1c4e      	adds	r6, r1, #1
 800897a:	eb08 01c6 	add.w	r1, r8, r6, lsl #3
 800897e:	4429      	add	r1, r5
 8008980:	f894 9000 	ldrb.w	r9, [r4]
 8008984:	f881 9344 	strb.w	r9, [r1, #836]	; 0x344
 8008988:	f894 9001 	ldrb.w	r9, [r4, #1]
 800898c:	f881 9345 	strb.w	r9, [r1, #837]	; 0x345
 8008990:	f894 9002 	ldrb.w	r9, [r4, #2]
 8008994:	f881 9346 	strb.w	r9, [r1, #838]	; 0x346
 8008998:	f894 9003 	ldrb.w	r9, [r4, #3]
 800899c:	f881 9347 	strb.w	r9, [r1, #839]	; 0x347
 80089a0:	f8b4 9004 	ldrh.w	r9, [r4, #4]
 80089a4:	f8a1 9348 	strh.w	r9, [r1, #840]	; 0x348
 80089a8:	f894 9006 	ldrb.w	r9, [r4, #6]
 80089ac:	f881 934a 	strb.w	r9, [r1, #842]	; 0x34a
 80089b0:	b2f1      	uxtb	r1, r6
 80089b2:	e7d1      	b.n	8008958 <USBH_Get_CfgDesc+0xbe>

080089b4 <USBH_Get_StringDesc>:
 80089b4:	b5f7      	push	{r0, r1, r2, r4, r5, r6, r7, lr}
 80089b6:	f500 768e 	add.w	r6, r0, #284	; 0x11c
 80089ba:	4615      	mov	r5, r2
 80089bc:	461f      	mov	r7, r3
 80089be:	9300      	str	r3, [sp, #0]
 80089c0:	f441 7240 	orr.w	r2, r1, #768	; 0x300
 80089c4:	4633      	mov	r3, r6
 80089c6:	2100      	movs	r1, #0
 80089c8:	4604      	mov	r4, r0
 80089ca:	f7ff ff02 	bl	80087d2 <USBH_GetDescriptor>
 80089ce:	b978      	cbnz	r0, 80089f0 <USBH_Get_StringDesc+0x3c>
 80089d0:	f894 311d 	ldrb.w	r3, [r4, #285]	; 0x11d
 80089d4:	2b03      	cmp	r3, #3
 80089d6:	d10b      	bne.n	80089f0 <USBH_Get_StringDesc+0x3c>
 80089d8:	f894 411c 	ldrb.w	r4, [r4, #284]	; 0x11c
 80089dc:	1ea1      	subs	r1, r4, #2
 80089de:	42b9      	cmp	r1, r7
 80089e0:	bf28      	it	cs
 80089e2:	4639      	movcs	r1, r7
 80089e4:	b289      	uxth	r1, r1
 80089e6:	4604      	mov	r4, r0
 80089e8:	42a1      	cmp	r1, r4
 80089ea:	d803      	bhi.n	80089f4 <USBH_Get_StringDesc+0x40>
 80089ec:	2300      	movs	r3, #0
 80089ee:	702b      	strb	r3, [r5, #0]
 80089f0:	b003      	add	sp, #12
 80089f2:	bdf0      	pop	{r4, r5, r6, r7, pc}
 80089f4:	1933      	adds	r3, r6, r4
 80089f6:	3402      	adds	r4, #2
 80089f8:	789b      	ldrb	r3, [r3, #2]
 80089fa:	f805 3b01 	strb.w	r3, [r5], #1
 80089fe:	b2a4      	uxth	r4, r4
 8008a00:	e7f2      	b.n	80089e8 <USBH_Get_StringDesc+0x34>

08008a02 <USBH_SetAddress>:
 8008a02:	7883      	ldrb	r3, [r0, #2]
 8008a04:	2b01      	cmp	r3, #1
 8008a06:	d105      	bne.n	8008a14 <USBH_SetAddress+0x12>
 8008a08:	f44f 63a0 	mov.w	r3, #1280	; 0x500
 8008a0c:	8203      	strh	r3, [r0, #16]
 8008a0e:	2300      	movs	r3, #0
 8008a10:	8241      	strh	r1, [r0, #18]
 8008a12:	6143      	str	r3, [r0, #20]
 8008a14:	2200      	movs	r2, #0
 8008a16:	4611      	mov	r1, r2
 8008a18:	f7ff be20 	b.w	800865c <USBH_CtlReq>

08008a1c <USBH_SetCfg>:
 8008a1c:	7883      	ldrb	r3, [r0, #2]
 8008a1e:	2b01      	cmp	r3, #1
 8008a20:	d105      	bne.n	8008a2e <USBH_SetCfg+0x12>
 8008a22:	f44f 6310 	mov.w	r3, #2304	; 0x900
 8008a26:	8203      	strh	r3, [r0, #16]
 8008a28:	2300      	movs	r3, #0
 8008a2a:	8241      	strh	r1, [r0, #18]
 8008a2c:	6143      	str	r3, [r0, #20]
 8008a2e:	2200      	movs	r2, #0
 8008a30:	4611      	mov	r1, r2
 8008a32:	f7ff be13 	b.w	800865c <USBH_CtlReq>

08008a36 <USBH_SetFeature>:
 8008a36:	7883      	ldrb	r3, [r0, #2]
 8008a38:	2b01      	cmp	r3, #1
 8008a3a:	d105      	bne.n	8008a48 <USBH_SetFeature+0x12>
 8008a3c:	f44f 7340 	mov.w	r3, #768	; 0x300
 8008a40:	8203      	strh	r3, [r0, #16]
 8008a42:	2300      	movs	r3, #0
 8008a44:	8241      	strh	r1, [r0, #18]
 8008a46:	6143      	str	r3, [r0, #20]
 8008a48:	2200      	movs	r2, #0
 8008a4a:	4611      	mov	r1, r2
 8008a4c:	f7ff be06 	b.w	800865c <USBH_CtlReq>

08008a50 <USBH_ClrFeature>:
 8008a50:	7883      	ldrb	r3, [r0, #2]
 8008a52:	2b01      	cmp	r3, #1
 8008a54:	d105      	bne.n	8008a62 <USBH_ClrFeature+0x12>
 8008a56:	f44f 7381 	mov.w	r3, #258	; 0x102
 8008a5a:	6103      	str	r3, [r0, #16]
 8008a5c:	2300      	movs	r3, #0
 8008a5e:	8281      	strh	r1, [r0, #20]
 8008a60:	82c3      	strh	r3, [r0, #22]
 8008a62:	2200      	movs	r2, #0
 8008a64:	4611      	mov	r1, r2
 8008a66:	f7ff bdf9 	b.w	800865c <USBH_CtlReq>

08008a6a <USBH_CtlSendSetup>:
 8008a6a:	b51f      	push	{r0, r1, r2, r3, r4, lr}
 8008a6c:	2400      	movs	r4, #0
 8008a6e:	460b      	mov	r3, r1
 8008a70:	4611      	mov	r1, r2
 8008a72:	2208      	movs	r2, #8
 8008a74:	e9cd 2402 	strd	r2, r4, [sp, #8]
 8008a78:	e9cd 4300 	strd	r4, r3, [sp]
 8008a7c:	4622      	mov	r2, r4
 8008a7e:	4623      	mov	r3, r4
 8008a80:	f000 f9aa 	bl	8008dd8 <USBH_LL_SubmitURB>
 8008a84:	4620      	mov	r0, r4
 8008a86:	b004      	add	sp, #16
 8008a88:	bd10      	pop	{r4, pc}

08008a8a <USBH_CtlSendData>:
 8008a8a:	b530      	push	{r4, r5, lr}
 8008a8c:	b085      	sub	sp, #20
 8008a8e:	f890 531d 	ldrb.w	r5, [r0, #797]	; 0x31d
 8008a92:	460c      	mov	r4, r1
 8008a94:	2d00      	cmp	r5, #0
 8008a96:	4619      	mov	r1, r3
 8008a98:	f89d 3020 	ldrb.w	r3, [sp, #32]
 8008a9c:	9401      	str	r4, [sp, #4]
 8008a9e:	bf18      	it	ne
 8008aa0:	2300      	movne	r3, #0
 8008aa2:	e9cd 2302 	strd	r2, r3, [sp, #8]
 8008aa6:	2301      	movs	r3, #1
 8008aa8:	9300      	str	r3, [sp, #0]
 8008aaa:	2300      	movs	r3, #0
 8008aac:	461a      	mov	r2, r3
 8008aae:	f000 f993 	bl	8008dd8 <USBH_LL_SubmitURB>
 8008ab2:	2000      	movs	r0, #0
 8008ab4:	b005      	add	sp, #20
 8008ab6:	bd30      	pop	{r4, r5, pc}

08008ab8 <USBH_CtlReceiveData>:
 8008ab8:	b530      	push	{r4, r5, lr}
 8008aba:	2400      	movs	r4, #0
 8008abc:	b085      	sub	sp, #20
 8008abe:	e9cd 2402 	strd	r2, r4, [sp, #8]
 8008ac2:	460d      	mov	r5, r1
 8008ac4:	2201      	movs	r2, #1
 8008ac6:	4619      	mov	r1, r3
 8008ac8:	9501      	str	r5, [sp, #4]
 8008aca:	9200      	str	r2, [sp, #0]
 8008acc:	4623      	mov	r3, r4
 8008ace:	f000 f983 	bl	8008dd8 <USBH_LL_SubmitURB>
 8008ad2:	4620      	mov	r0, r4
 8008ad4:	b005      	add	sp, #20
 8008ad6:	bd30      	pop	{r4, r5, pc}

08008ad8 <USBH_BulkSendData>:
 8008ad8:	b530      	push	{r4, r5, lr}
 8008ada:	b085      	sub	sp, #20
 8008adc:	f890 531d 	ldrb.w	r5, [r0, #797]	; 0x31d
 8008ae0:	460c      	mov	r4, r1
 8008ae2:	2d00      	cmp	r5, #0
 8008ae4:	4619      	mov	r1, r3
 8008ae6:	f89d 3020 	ldrb.w	r3, [sp, #32]
 8008aea:	9401      	str	r4, [sp, #4]
 8008aec:	bf18      	it	ne
 8008aee:	2300      	movne	r3, #0
 8008af0:	e9cd 2302 	strd	r2, r3, [sp, #8]
 8008af4:	2301      	movs	r3, #1
 8008af6:	9300      	str	r3, [sp, #0]
 8008af8:	2200      	movs	r2, #0
 8008afa:	2302      	movs	r3, #2
 8008afc:	f000 f96c 	bl	8008dd8 <USBH_LL_SubmitURB>
 8008b00:	2000      	movs	r0, #0
 8008b02:	b005      	add	sp, #20
 8008b04:	bd30      	pop	{r4, r5, pc}

08008b06 <USBH_BulkReceiveData>:
 8008b06:	b530      	push	{r4, r5, lr}
 8008b08:	2400      	movs	r4, #0
 8008b0a:	b085      	sub	sp, #20
 8008b0c:	e9cd 2402 	strd	r2, r4, [sp, #8]
 8008b10:	460d      	mov	r5, r1
 8008b12:	2201      	movs	r2, #1
 8008b14:	4619      	mov	r1, r3
 8008b16:	9501      	str	r5, [sp, #4]
 8008b18:	9200      	str	r2, [sp, #0]
 8008b1a:	2302      	movs	r3, #2
 8008b1c:	f000 f95c 	bl	8008dd8 <USBH_LL_SubmitURB>
 8008b20:	4620      	mov	r0, r4
 8008b22:	b005      	add	sp, #20
 8008b24:	bd30      	pop	{r4, r5, pc}

08008b26 <USBH_OpenPipe>:
 8008b26:	b51f      	push	{r0, r1, r2, r3, r4, lr}
 8008b28:	f8bd 4020 	ldrh.w	r4, [sp, #32]
 8008b2c:	9402      	str	r4, [sp, #8]
 8008b2e:	f89d 401c 	ldrb.w	r4, [sp, #28]
 8008b32:	9401      	str	r4, [sp, #4]
 8008b34:	f89d 4018 	ldrb.w	r4, [sp, #24]
 8008b38:	9400      	str	r4, [sp, #0]
 8008b3a:	f000 f927 	bl	8008d8c <USBH_LL_OpenPipe>
 8008b3e:	2000      	movs	r0, #0
 8008b40:	b004      	add	sp, #16
 8008b42:	bd10      	pop	{r4, pc}

08008b44 <USBH_ClosePipe>:
 8008b44:	b508      	push	{r3, lr}
 8008b46:	f000 f939 	bl	8008dbc <USBH_LL_ClosePipe>
 8008b4a:	2000      	movs	r0, #0
 8008b4c:	bd08      	pop	{r3, pc}

08008b4e <USBH_AllocPipe>:
 8008b4e:	b530      	push	{r4, r5, lr}
 8008b50:	2300      	movs	r3, #0
 8008b52:	f500 7461 	add.w	r4, r0, #900	; 0x384
 8008b56:	f854 5b04 	ldr.w	r5, [r4], #4
 8008b5a:	042d      	lsls	r5, r5, #16
 8008b5c:	b2da      	uxtb	r2, r3
 8008b5e:	d408      	bmi.n	8008b72 <USBH_AllocPipe+0x24>
 8008b60:	eb00 0083 	add.w	r0, r0, r3, lsl #2
 8008b64:	f441 4100 	orr.w	r1, r1, #32768	; 0x8000
 8008b68:	b292      	uxth	r2, r2
 8008b6a:	f8c0 1384 	str.w	r1, [r0, #900]	; 0x384
 8008b6e:	b2d0      	uxtb	r0, r2
 8008b70:	bd30      	pop	{r4, r5, pc}
 8008b72:	3301      	adds	r3, #1
 8008b74:	2b0b      	cmp	r3, #11
 8008b76:	d1ee      	bne.n	8008b56 <USBH_AllocPipe+0x8>
 8008b78:	f64f 72ff 	movw	r2, #65535	; 0xffff
 8008b7c:	e7f7      	b.n	8008b6e <USBH_AllocPipe+0x20>

08008b7e <USBH_FreePipe>:
 8008b7e:	290a      	cmp	r1, #10
 8008b80:	bf98      	it	ls
 8008b82:	eb00 0181 	addls.w	r1, r0, r1, lsl #2
 8008b86:	f04f 0000 	mov.w	r0, #0
 8008b8a:	bf9e      	ittt	ls
 8008b8c:	f8d1 3384 	ldrls.w	r3, [r1, #900]	; 0x384
 8008b90:	f3c3 030e 	ubfxls	r3, r3, #0, #15
 8008b94:	f8c1 3384 	strls.w	r3, [r1, #900]	; 0x384
 8008b98:	4770      	bx	lr
	...

08008b9c <USBH_UserProcess>:
 8008b9c:	2904      	cmp	r1, #4
 8008b9e:	d00a      	beq.n	8008bb6 <USBH_UserProcess+0x1a>
 8008ba0:	2905      	cmp	r1, #5
 8008ba2:	d004      	beq.n	8008bae <USBH_UserProcess+0x12>
 8008ba4:	2902      	cmp	r1, #2
 8008ba6:	d105      	bne.n	8008bb4 <USBH_UserProcess+0x18>
 8008ba8:	4b04      	ldr	r3, [pc, #16]	; (8008bbc <USBH_UserProcess+0x20>)
 8008baa:	7019      	strb	r1, [r3, #0]
 8008bac:	4770      	bx	lr
 8008bae:	4b03      	ldr	r3, [pc, #12]	; (8008bbc <USBH_UserProcess+0x20>)
 8008bb0:	2203      	movs	r2, #3
 8008bb2:	701a      	strb	r2, [r3, #0]
 8008bb4:	4770      	bx	lr
 8008bb6:	4b01      	ldr	r3, [pc, #4]	; (8008bbc <USBH_UserProcess+0x20>)
 8008bb8:	2201      	movs	r2, #1
 8008bba:	e7fa      	b.n	8008bb2 <USBH_UserProcess+0x16>
 8008bbc:	20000284 	.word	0x20000284

08008bc0 <MX_USB_HOST_Init>:
 8008bc0:	b508      	push	{r3, lr}
 8008bc2:	490c      	ldr	r1, [pc, #48]	; (8008bf4 <MX_USB_HOST_Init+0x34>)
 8008bc4:	480c      	ldr	r0, [pc, #48]	; (8008bf8 <MX_USB_HOST_Init+0x38>)
 8008bc6:	2201      	movs	r2, #1
 8008bc8:	f7ff face 	bl	8008168 <USBH_Init>
 8008bcc:	b108      	cbz	r0, 8008bd2 <MX_USB_HOST_Init+0x12>
 8008bce:	f7f9 fd73 	bl	80026b8 <Error_Handler>
 8008bd2:	490a      	ldr	r1, [pc, #40]	; (8008bfc <MX_USB_HOST_Init+0x3c>)
 8008bd4:	4808      	ldr	r0, [pc, #32]	; (8008bf8 <MX_USB_HOST_Init+0x38>)
 8008bd6:	f7ff fae4 	bl	80081a2 <USBH_RegisterClass>
 8008bda:	b108      	cbz	r0, 8008be0 <MX_USB_HOST_Init+0x20>
 8008bdc:	f7f9 fd6c 	bl	80026b8 <Error_Handler>
 8008be0:	4805      	ldr	r0, [pc, #20]	; (8008bf8 <MX_USB_HOST_Init+0x38>)
 8008be2:	f7ff fb10 	bl	8008206 <USBH_Start>
 8008be6:	b118      	cbz	r0, 8008bf0 <MX_USB_HOST_Init+0x30>
 8008be8:	e8bd 4008 	ldmia.w	sp!, {r3, lr}
 8008bec:	f7f9 bd64 	b.w	80026b8 <Error_Handler>
 8008bf0:	bd08      	pop	{r3, pc}
 8008bf2:	bf00      	nop
 8008bf4:	08008b9d 	.word	0x08008b9d
 8008bf8:	20000eb4 	.word	0x20000eb4
 8008bfc:	200000e4 	.word	0x200000e4

08008c00 <MX_USB_HOST_Process>:
 8008c00:	4801      	ldr	r0, [pc, #4]	; (8008c08 <MX_USB_HOST_Process+0x8>)
 8008c02:	f7ff bb0a 	b.w	800821a <USBH_Process>
 8008c06:	bf00      	nop
 8008c08:	20000eb4 	.word	0x20000eb4

08008c0c <HAL_HCD_MspInit>:
 8008c0c:	b530      	push	{r4, r5, lr}
 8008c0e:	4604      	mov	r4, r0
 8008c10:	b089      	sub	sp, #36	; 0x24
 8008c12:	2214      	movs	r2, #20
 8008c14:	2100      	movs	r1, #0
 8008c16:	a803      	add	r0, sp, #12
 8008c18:	f000 f95e 	bl	8008ed8 <memset>
 8008c1c:	6823      	ldr	r3, [r4, #0]
 8008c1e:	f1b3 4fa0 	cmp.w	r3, #1342177280	; 0x50000000
 8008c22:	d138      	bne.n	8008c96 <HAL_HCD_MspInit+0x8a>
 8008c24:	4c1d      	ldr	r4, [pc, #116]	; (8008c9c <HAL_HCD_MspInit+0x90>)
 8008c26:	481e      	ldr	r0, [pc, #120]	; (8008ca0 <HAL_HCD_MspInit+0x94>)
 8008c28:	2500      	movs	r5, #0
 8008c2a:	9501      	str	r5, [sp, #4]
 8008c2c:	6b23      	ldr	r3, [r4, #48]	; 0x30
 8008c2e:	f043 0301 	orr.w	r3, r3, #1
 8008c32:	6323      	str	r3, [r4, #48]	; 0x30
 8008c34:	6b23      	ldr	r3, [r4, #48]	; 0x30
 8008c36:	9505      	str	r5, [sp, #20]
 8008c38:	f003 0301 	and.w	r3, r3, #1
 8008c3c:	9301      	str	r3, [sp, #4]
 8008c3e:	9b01      	ldr	r3, [sp, #4]
 8008c40:	a903      	add	r1, sp, #12
 8008c42:	f44f 7300 	mov.w	r3, #512	; 0x200
 8008c46:	e9cd 3503 	strd	r3, r5, [sp, #12]
 8008c4a:	f7fa ff59 	bl	8003b00 <HAL_GPIO_Init>
 8008c4e:	f44f 52e0 	mov.w	r2, #7168	; 0x1c00
 8008c52:	2302      	movs	r3, #2
 8008c54:	e9cd 2303 	strd	r2, r3, [sp, #12]
 8008c58:	2103      	movs	r1, #3
 8008c5a:	230a      	movs	r3, #10
 8008c5c:	e9cd 1306 	strd	r1, r3, [sp, #24]
 8008c60:	480f      	ldr	r0, [pc, #60]	; (8008ca0 <HAL_HCD_MspInit+0x94>)
 8008c62:	9505      	str	r5, [sp, #20]
 8008c64:	a903      	add	r1, sp, #12
 8008c66:	f7fa ff4b 	bl	8003b00 <HAL_GPIO_Init>
 8008c6a:	6b63      	ldr	r3, [r4, #52]	; 0x34
 8008c6c:	f043 0380 	orr.w	r3, r3, #128	; 0x80
 8008c70:	6363      	str	r3, [r4, #52]	; 0x34
 8008c72:	9502      	str	r5, [sp, #8]
 8008c74:	6c63      	ldr	r3, [r4, #68]	; 0x44
 8008c76:	f443 4380 	orr.w	r3, r3, #16384	; 0x4000
 8008c7a:	6463      	str	r3, [r4, #68]	; 0x44
 8008c7c:	6c63      	ldr	r3, [r4, #68]	; 0x44
 8008c7e:	f403 4380 	and.w	r3, r3, #16384	; 0x4000
 8008c82:	9302      	str	r3, [sp, #8]
 8008c84:	2043      	movs	r0, #67	; 0x43
 8008c86:	462a      	mov	r2, r5
 8008c88:	4629      	mov	r1, r5
 8008c8a:	9b02      	ldr	r3, [sp, #8]
 8008c8c:	f7fa fc68 	bl	8003560 <HAL_NVIC_SetPriority>
 8008c90:	2043      	movs	r0, #67	; 0x43
 8008c92:	f7fa fca9 	bl	80035e8 <HAL_NVIC_EnableIRQ>
 8008c96:	b009      	add	sp, #36	; 0x24
 8008c98:	bd30      	pop	{r4, r5, pc}
 8008c9a:	bf00      	nop
 8008c9c:	40023800 	.word	0x40023800
 8008ca0:	40020000 	.word	0x40020000

08008ca4 <HAL_HCD_SOF_Callback>:
 8008ca4:	f8d0 0300 	ldr.w	r0, [r0, #768]	; 0x300
 8008ca8:	f7ff bca2 	b.w	80085f0 <USBH_LL_IncTimer>

08008cac <HAL_HCD_Connect_Callback>:
 8008cac:	f8d0 0300 	ldr.w	r0, [r0, #768]	; 0x300
 8008cb0:	f7ff bcb4 	b.w	800861c <USBH_LL_Connect>

08008cb4 <HAL_HCD_Disconnect_Callback>:
 8008cb4:	f8d0 0300 	ldr.w	r0, [r0, #768]	; 0x300
 8008cb8:	f7ff bcba 	b.w	8008630 <USBH_LL_Disconnect>

08008cbc <HAL_HCD_HC_NotifyURBChange_Callback>:
 8008cbc:	4770      	bx	lr

08008cbe <HAL_HCD_PortEnabled_Callback>:
 8008cbe:	f8d0 0300 	ldr.w	r0, [r0, #768]	; 0x300
 8008cc2:	f7ff bca3 	b.w	800860c <USBH_LL_PortEnabled>

08008cc6 <HAL_HCD_PortDisabled_Callback>:
 8008cc6:	f8d0 0300 	ldr.w	r0, [r0, #768]	; 0x300
 8008cca:	f7ff bca3 	b.w	8008614 <USBH_LL_PortDisabled>
	...

08008cd0 <USBH_LL_Init>:
 8008cd0:	b510      	push	{r4, lr}
 8008cd2:	f890 33cc 	ldrb.w	r3, [r0, #972]	; 0x3cc
 8008cd6:	2b01      	cmp	r3, #1
 8008cd8:	4604      	mov	r4, r0
 8008cda:	d11b      	bne.n	8008d14 <USBH_LL_Init+0x44>
 8008cdc:	480e      	ldr	r0, [pc, #56]	; (8008d18 <USBH_LL_Init+0x48>)
 8008cde:	f8c4 03d0 	str.w	r0, [r4, #976]	; 0x3d0
 8008ce2:	f04f 42a0 	mov.w	r2, #1342177280	; 0x50000000
 8008ce6:	6002      	str	r2, [r0, #0]
 8008ce8:	2208      	movs	r2, #8
 8008cea:	e9c0 2302 	strd	r2, r3, [r0, #8]
 8008cee:	2300      	movs	r3, #0
 8008cf0:	2202      	movs	r2, #2
 8008cf2:	e9c0 2306 	strd	r2, r3, [r0, #24]
 8008cf6:	f8c0 4300 	str.w	r4, [r0, #768]	; 0x300
 8008cfa:	6103      	str	r3, [r0, #16]
 8008cfc:	f7fb f93c 	bl	8003f78 <HAL_HCD_Init>
 8008d00:	b108      	cbz	r0, 8008d06 <USBH_LL_Init+0x36>
 8008d02:	f7f9 fcd9 	bl	80026b8 <Error_Handler>
 8008d06:	4804      	ldr	r0, [pc, #16]	; (8008d18 <USBH_LL_Init+0x48>)
 8008d08:	f7fb fd76 	bl	80047f8 <HAL_HCD_GetCurrentFrame>
 8008d0c:	4601      	mov	r1, r0
 8008d0e:	4620      	mov	r0, r4
 8008d10:	f7ff fc6b 	bl	80085ea <USBH_LL_SetTimer>
 8008d14:	2000      	movs	r0, #0
 8008d16:	bd10      	pop	{r4, pc}
 8008d18:	2000128c 	.word	0x2000128c

08008d1c <USBH_LL_Start>:
 8008d1c:	b508      	push	{r3, lr}
 8008d1e:	f8d0 03d0 	ldr.w	r0, [r0, #976]	; 0x3d0
 8008d22:	f7fb fd34 	bl	800478e <HAL_HCD_Start>
 8008d26:	2803      	cmp	r0, #3
 8008d28:	bf96      	itet	ls
 8008d2a:	4b02      	ldrls	r3, [pc, #8]	; (8008d34 <USBH_LL_Start+0x18>)
 8008d2c:	2002      	movhi	r0, #2
 8008d2e:	5c18      	ldrbls	r0, [r3, r0]
 8008d30:	bd08      	pop	{r3, pc}
 8008d32:	bf00      	nop
 8008d34:	08009911 	.word	0x08009911

08008d38 <USBH_LL_Stop>:
 8008d38:	b508      	push	{r3, lr}
 8008d3a:	f8d0 03d0 	ldr.w	r0, [r0, #976]	; 0x3d0
 8008d3e:	f7fb fd3b 	bl	80047b8 <HAL_HCD_Stop>
 8008d42:	2803      	cmp	r0, #3
 8008d44:	bf96      	itet	ls
 8008d46:	4b02      	ldrls	r3, [pc, #8]	; (8008d50 <USBH_LL_Stop+0x18>)
 8008d48:	2002      	movhi	r0, #2
 8008d4a:	5c18      	ldrbls	r0, [r3, r0]
 8008d4c:	bd08      	pop	{r3, pc}
 8008d4e:	bf00      	nop
 8008d50:	08009911 	.word	0x08009911

08008d54 <USBH_LL_GetSpeed>:
 8008d54:	b508      	push	{r3, lr}
 8008d56:	f8d0 03d0 	ldr.w	r0, [r0, #976]	; 0x3d0
 8008d5a:	f7fb fd50 	bl	80047fe <HAL_HCD_GetCurrentSpeed>
 8008d5e:	2802      	cmp	r0, #2
 8008d60:	bf88      	it	hi
 8008d62:	2001      	movhi	r0, #1
 8008d64:	b2c0      	uxtb	r0, r0
 8008d66:	bd08      	pop	{r3, pc}

08008d68 <USBH_LL_ResetPort>:
 8008d68:	b508      	push	{r3, lr}
 8008d6a:	f8d0 03d0 	ldr.w	r0, [r0, #976]	; 0x3d0
 8008d6e:	f7fb fd35 	bl	80047dc <HAL_HCD_ResetPort>
 8008d72:	2803      	cmp	r0, #3
 8008d74:	bf96      	itet	ls
 8008d76:	4b02      	ldrls	r3, [pc, #8]	; (8008d80 <USBH_LL_ResetPort+0x18>)
 8008d78:	2002      	movhi	r0, #2
 8008d7a:	5c18      	ldrbls	r0, [r3, r0]
 8008d7c:	bd08      	pop	{r3, pc}
 8008d7e:	bf00      	nop
 8008d80:	08009911 	.word	0x08009911

08008d84 <USBH_LL_GetLastXferSize>:
 8008d84:	f8d0 03d0 	ldr.w	r0, [r0, #976]	; 0x3d0
 8008d88:	f7fb bd31 	b.w	80047ee <HAL_HCD_HC_GetXferCount>

08008d8c <USBH_LL_OpenPipe>:
 8008d8c:	b51f      	push	{r0, r1, r2, r3, r4, lr}
 8008d8e:	f8bd 4020 	ldrh.w	r4, [sp, #32]
 8008d92:	9402      	str	r4, [sp, #8]
 8008d94:	f89d 401c 	ldrb.w	r4, [sp, #28]
 8008d98:	9401      	str	r4, [sp, #4]
 8008d9a:	f89d 4018 	ldrb.w	r4, [sp, #24]
 8008d9e:	9400      	str	r4, [sp, #0]
 8008da0:	f8d0 03d0 	ldr.w	r0, [r0, #976]	; 0x3d0
 8008da4:	f7fb f8a0 	bl	8003ee8 <HAL_HCD_HC_Init>
 8008da8:	2803      	cmp	r0, #3
 8008daa:	bf9a      	itte	ls
 8008dac:	4b02      	ldrls	r3, [pc, #8]	; (8008db8 <USBH_LL_OpenPipe+0x2c>)
 8008dae:	5c18      	ldrbls	r0, [r3, r0]
 8008db0:	2002      	movhi	r0, #2
 8008db2:	b004      	add	sp, #16
 8008db4:	bd10      	pop	{r4, pc}
 8008db6:	bf00      	nop
 8008db8:	08009911 	.word	0x08009911

08008dbc <USBH_LL_ClosePipe>:
 8008dbc:	b508      	push	{r3, lr}
 8008dbe:	f8d0 03d0 	ldr.w	r0, [r0, #976]	; 0x3d0
 8008dc2:	f7fb f8c7 	bl	8003f54 <HAL_HCD_HC_Halt>
 8008dc6:	2803      	cmp	r0, #3
 8008dc8:	bf96      	itet	ls
 8008dca:	4b02      	ldrls	r3, [pc, #8]	; (8008dd4 <USBH_LL_ClosePipe+0x18>)
 8008dcc:	2002      	movhi	r0, #2
 8008dce:	5c18      	ldrbls	r0, [r3, r0]
 8008dd0:	bd08      	pop	{r3, pc}
 8008dd2:	bf00      	nop
 8008dd4:	08009911 	.word	0x08009911

08008dd8 <USBH_LL_SubmitURB>:
 8008dd8:	b51f      	push	{r0, r1, r2, r3, r4, lr}
 8008dda:	f89d 4024 	ldrb.w	r4, [sp, #36]	; 0x24
 8008dde:	9403      	str	r4, [sp, #12]
 8008de0:	f8bd 4020 	ldrh.w	r4, [sp, #32]
 8008de4:	9402      	str	r4, [sp, #8]
 8008de6:	9c07      	ldr	r4, [sp, #28]
 8008de8:	9401      	str	r4, [sp, #4]
 8008dea:	f89d 4018 	ldrb.w	r4, [sp, #24]
 8008dee:	9400      	str	r4, [sp, #0]
 8008df0:	f8d0 03d0 	ldr.w	r0, [r0, #976]	; 0x3d0
 8008df4:	f7fb f916 	bl	8004024 <HAL_HCD_HC_SubmitRequest>
 8008df8:	2803      	cmp	r0, #3
 8008dfa:	bf9a      	itte	ls
 8008dfc:	4b02      	ldrls	r3, [pc, #8]	; (8008e08 <USBH_LL_SubmitURB+0x30>)
 8008dfe:	5c18      	ldrbls	r0, [r3, r0]
 8008e00:	2002      	movhi	r0, #2
 8008e02:	b004      	add	sp, #16
 8008e04:	bd10      	pop	{r4, pc}
 8008e06:	bf00      	nop
 8008e08:	08009911 	.word	0x08009911

08008e0c <USBH_LL_GetURBState>:
 8008e0c:	f8d0 03d0 	ldr.w	r0, [r0, #976]	; 0x3d0
 8008e10:	f7fb bce7 	b.w	80047e2 <HAL_HCD_HC_GetURBState>

08008e14 <USBH_LL_DriverVBUS>:
 8008e14:	b508      	push	{r3, lr}
 8008e16:	f890 33cc 	ldrb.w	r3, [r0, #972]	; 0x3cc
 8008e1a:	2b01      	cmp	r3, #1
 8008e1c:	d102      	bne.n	8008e24 <USBH_LL_DriverVBUS+0x10>
 8008e1e:	4608      	mov	r0, r1
 8008e20:	f000 f816 	bl	8008e50 <MX_DriverVbusFS>
 8008e24:	20c8      	movs	r0, #200	; 0xc8
 8008e26:	f7fa f979 	bl	800311c <HAL_Delay>
 8008e2a:	2000      	movs	r0, #0
 8008e2c:	bd08      	pop	{r3, pc}

08008e2e <USBH_LL_SetToggle>:
 8008e2e:	f8d0 33d0 	ldr.w	r3, [r0, #976]	; 0x3d0
 8008e32:	202c      	movs	r0, #44	; 0x2c
 8008e34:	fb00 3101 	mla	r1, r0, r1, r3
 8008e38:	f891 303b 	ldrb.w	r3, [r1, #59]	; 0x3b
 8008e3c:	b11b      	cbz	r3, 8008e46 <USBH_LL_SetToggle+0x18>
 8008e3e:	f881 2054 	strb.w	r2, [r1, #84]	; 0x54
 8008e42:	2000      	movs	r0, #0
 8008e44:	4770      	bx	lr
 8008e46:	f881 2055 	strb.w	r2, [r1, #85]	; 0x55
 8008e4a:	e7fa      	b.n	8008e42 <USBH_LL_SetToggle+0x14>

08008e4c <USBH_Delay>:
 8008e4c:	f7fa b966 	b.w	800311c <HAL_Delay>

08008e50 <MX_DriverVbusFS>:
 8008e50:	fab0 f280 	clz	r2, r0
 8008e54:	0952      	lsrs	r2, r2, #5
 8008e56:	4802      	ldr	r0, [pc, #8]	; (8008e60 <MX_DriverVbusFS+0x10>)
 8008e58:	2101      	movs	r1, #1
 8008e5a:	f7fb b81f 	b.w	8003e9c <HAL_GPIO_WritePin>
 8008e5e:	bf00      	nop
 8008e60:	40020800 	.word	0x40020800

08008e64 <__errno>:
 8008e64:	4b01      	ldr	r3, [pc, #4]	; (8008e6c <__errno+0x8>)
 8008e66:	6818      	ldr	r0, [r3, #0]
 8008e68:	4770      	bx	lr
 8008e6a:	bf00      	nop
 8008e6c:	20000104 	.word	0x20000104

08008e70 <__libc_init_array>:
 8008e70:	b570      	push	{r4, r5, r6, lr}
 8008e72:	4d0d      	ldr	r5, [pc, #52]	; (8008ea8 <__libc_init_array+0x38>)
 8008e74:	4c0d      	ldr	r4, [pc, #52]	; (8008eac <__libc_init_array+0x3c>)
 8008e76:	1b64      	subs	r4, r4, r5
 8008e78:	10a4      	asrs	r4, r4, #2
 8008e7a:	2600      	movs	r6, #0
 8008e7c:	42a6      	cmp	r6, r4
 8008e7e:	d109      	bne.n	8008e94 <__libc_init_array+0x24>
 8008e80:	4d0b      	ldr	r5, [pc, #44]	; (8008eb0 <__libc_init_array+0x40>)
 8008e82:	4c0c      	ldr	r4, [pc, #48]	; (8008eb4 <__libc_init_array+0x44>)
 8008e84:	f000 f8f8 	bl	8009078 <_init>
 8008e88:	1b64      	subs	r4, r4, r5
 8008e8a:	10a4      	asrs	r4, r4, #2
 8008e8c:	2600      	movs	r6, #0
 8008e8e:	42a6      	cmp	r6, r4
 8008e90:	d105      	bne.n	8008e9e <__libc_init_array+0x2e>
 8008e92:	bd70      	pop	{r4, r5, r6, pc}
 8008e94:	f855 3b04 	ldr.w	r3, [r5], #4
 8008e98:	4798      	blx	r3
 8008e9a:	3601      	adds	r6, #1
 8008e9c:	e7ee      	b.n	8008e7c <__libc_init_array+0xc>
 8008e9e:	f855 3b04 	ldr.w	r3, [r5], #4
 8008ea2:	4798      	blx	r3
 8008ea4:	3601      	adds	r6, #1
 8008ea6:	e7f2      	b.n	8008e8e <__libc_init_array+0x1e>
 8008ea8:	08009a20 	.word	0x08009a20
 8008eac:	08009a20 	.word	0x08009a20
 8008eb0:	08009a20 	.word	0x08009a20
 8008eb4:	08009a24 	.word	0x08009a24

08008eb8 <malloc>:
 8008eb8:	4b02      	ldr	r3, [pc, #8]	; (8008ec4 <malloc+0xc>)
 8008eba:	4601      	mov	r1, r0
 8008ebc:	6818      	ldr	r0, [r3, #0]
 8008ebe:	f000 b863 	b.w	8008f88 <_malloc_r>
 8008ec2:	bf00      	nop
 8008ec4:	20000104 	.word	0x20000104

08008ec8 <free>:
 8008ec8:	4b02      	ldr	r3, [pc, #8]	; (8008ed4 <free+0xc>)
 8008eca:	4601      	mov	r1, r0
 8008ecc:	6818      	ldr	r0, [r3, #0]
 8008ece:	f000 b80b 	b.w	8008ee8 <_free_r>
 8008ed2:	bf00      	nop
 8008ed4:	20000104 	.word	0x20000104

08008ed8 <memset>:
 8008ed8:	4402      	add	r2, r0
 8008eda:	4603      	mov	r3, r0
 8008edc:	4293      	cmp	r3, r2
 8008ede:	d100      	bne.n	8008ee2 <memset+0xa>
 8008ee0:	4770      	bx	lr
 8008ee2:	f803 1b01 	strb.w	r1, [r3], #1
 8008ee6:	e7f9      	b.n	8008edc <memset+0x4>

08008ee8 <_free_r>:
 8008ee8:	b537      	push	{r0, r1, r2, r4, r5, lr}
 8008eea:	2900      	cmp	r1, #0
 8008eec:	d048      	beq.n	8008f80 <_free_r+0x98>
 8008eee:	f851 3c04 	ldr.w	r3, [r1, #-4]
 8008ef2:	9001      	str	r0, [sp, #4]
 8008ef4:	2b00      	cmp	r3, #0
 8008ef6:	f1a1 0404 	sub.w	r4, r1, #4
 8008efa:	bfb8      	it	lt
 8008efc:	18e4      	addlt	r4, r4, r3
 8008efe:	f000 f8ad 	bl	800905c <__malloc_lock>
 8008f02:	4a20      	ldr	r2, [pc, #128]	; (8008f84 <_free_r+0x9c>)
 8008f04:	9801      	ldr	r0, [sp, #4]
 8008f06:	6813      	ldr	r3, [r2, #0]
 8008f08:	4615      	mov	r5, r2
 8008f0a:	b933      	cbnz	r3, 8008f1a <_free_r+0x32>
 8008f0c:	6063      	str	r3, [r4, #4]
 8008f0e:	6014      	str	r4, [r2, #0]
 8008f10:	b003      	add	sp, #12
 8008f12:	e8bd 4030 	ldmia.w	sp!, {r4, r5, lr}
 8008f16:	f000 b8a7 	b.w	8009068 <__malloc_unlock>
 8008f1a:	42a3      	cmp	r3, r4
 8008f1c:	d90b      	bls.n	8008f36 <_free_r+0x4e>
 8008f1e:	6821      	ldr	r1, [r4, #0]
 8008f20:	1862      	adds	r2, r4, r1
 8008f22:	4293      	cmp	r3, r2
 8008f24:	bf04      	itt	eq
 8008f26:	681a      	ldreq	r2, [r3, #0]
 8008f28:	685b      	ldreq	r3, [r3, #4]
 8008f2a:	6063      	str	r3, [r4, #4]
 8008f2c:	bf04      	itt	eq
 8008f2e:	1852      	addeq	r2, r2, r1
 8008f30:	6022      	streq	r2, [r4, #0]
 8008f32:	602c      	str	r4, [r5, #0]
 8008f34:	e7ec      	b.n	8008f10 <_free_r+0x28>
 8008f36:	461a      	mov	r2, r3
 8008f38:	685b      	ldr	r3, [r3, #4]
 8008f3a:	b10b      	cbz	r3, 8008f40 <_free_r+0x58>
 8008f3c:	42a3      	cmp	r3, r4
 8008f3e:	d9fa      	bls.n	8008f36 <_free_r+0x4e>
 8008f40:	6811      	ldr	r1, [r2, #0]
 8008f42:	1855      	adds	r5, r2, r1
 8008f44:	42a5      	cmp	r5, r4
 8008f46:	d10b      	bne.n	8008f60 <_free_r+0x78>
 8008f48:	6824      	ldr	r4, [r4, #0]
 8008f4a:	4421      	add	r1, r4
 8008f4c:	1854      	adds	r4, r2, r1
 8008f4e:	42a3      	cmp	r3, r4
 8008f50:	6011      	str	r1, [r2, #0]
 8008f52:	d1dd      	bne.n	8008f10 <_free_r+0x28>
 8008f54:	681c      	ldr	r4, [r3, #0]
 8008f56:	685b      	ldr	r3, [r3, #4]
 8008f58:	6053      	str	r3, [r2, #4]
 8008f5a:	4421      	add	r1, r4
 8008f5c:	6011      	str	r1, [r2, #0]
 8008f5e:	e7d7      	b.n	8008f10 <_free_r+0x28>
 8008f60:	d902      	bls.n	8008f68 <_free_r+0x80>
 8008f62:	230c      	movs	r3, #12
 8008f64:	6003      	str	r3, [r0, #0]
 8008f66:	e7d3      	b.n	8008f10 <_free_r+0x28>
 8008f68:	6825      	ldr	r5, [r4, #0]
 8008f6a:	1961      	adds	r1, r4, r5
 8008f6c:	428b      	cmp	r3, r1
 8008f6e:	bf04      	itt	eq
 8008f70:	6819      	ldreq	r1, [r3, #0]
 8008f72:	685b      	ldreq	r3, [r3, #4]
 8008f74:	6063      	str	r3, [r4, #4]
 8008f76:	bf04      	itt	eq
 8008f78:	1949      	addeq	r1, r1, r5
 8008f7a:	6021      	streq	r1, [r4, #0]
 8008f7c:	6054      	str	r4, [r2, #4]
 8008f7e:	e7c7      	b.n	8008f10 <_free_r+0x28>
 8008f80:	b003      	add	sp, #12
 8008f82:	bd30      	pop	{r4, r5, pc}
 8008f84:	20000288 	.word	0x20000288

08008f88 <_malloc_r>:
 8008f88:	b5f8      	push	{r3, r4, r5, r6, r7, lr}
 8008f8a:	1ccd      	adds	r5, r1, #3
 8008f8c:	f025 0503 	bic.w	r5, r5, #3
 8008f90:	3508      	adds	r5, #8
 8008f92:	2d0c      	cmp	r5, #12
 8008f94:	bf38      	it	cc
 8008f96:	250c      	movcc	r5, #12
 8008f98:	2d00      	cmp	r5, #0
 8008f9a:	4606      	mov	r6, r0
 8008f9c:	db01      	blt.n	8008fa2 <_malloc_r+0x1a>
 8008f9e:	42a9      	cmp	r1, r5
 8008fa0:	d903      	bls.n	8008faa <_malloc_r+0x22>
 8008fa2:	230c      	movs	r3, #12
 8008fa4:	6033      	str	r3, [r6, #0]
 8008fa6:	2000      	movs	r0, #0
 8008fa8:	bdf8      	pop	{r3, r4, r5, r6, r7, pc}
 8008faa:	f000 f857 	bl	800905c <__malloc_lock>
 8008fae:	4921      	ldr	r1, [pc, #132]	; (8009034 <_malloc_r+0xac>)
 8008fb0:	680a      	ldr	r2, [r1, #0]
 8008fb2:	4614      	mov	r4, r2
 8008fb4:	b99c      	cbnz	r4, 8008fde <_malloc_r+0x56>
 8008fb6:	4f20      	ldr	r7, [pc, #128]	; (8009038 <_malloc_r+0xb0>)
 8008fb8:	683b      	ldr	r3, [r7, #0]
 8008fba:	b923      	cbnz	r3, 8008fc6 <_malloc_r+0x3e>
 8008fbc:	4621      	mov	r1, r4
 8008fbe:	4630      	mov	r0, r6
 8008fc0:	f000 f83c 	bl	800903c <_sbrk_r>
 8008fc4:	6038      	str	r0, [r7, #0]
 8008fc6:	4629      	mov	r1, r5
 8008fc8:	4630      	mov	r0, r6
 8008fca:	f000 f837 	bl	800903c <_sbrk_r>
 8008fce:	1c43      	adds	r3, r0, #1
 8008fd0:	d123      	bne.n	800901a <_malloc_r+0x92>
 8008fd2:	230c      	movs	r3, #12
 8008fd4:	6033      	str	r3, [r6, #0]
 8008fd6:	4630      	mov	r0, r6
 8008fd8:	f000 f846 	bl	8009068 <__malloc_unlock>
 8008fdc:	e7e3      	b.n	8008fa6 <_malloc_r+0x1e>
 8008fde:	6823      	ldr	r3, [r4, #0]
 8008fe0:	1b5b      	subs	r3, r3, r5
 8008fe2:	d417      	bmi.n	8009014 <_malloc_r+0x8c>
 8008fe4:	2b0b      	cmp	r3, #11
 8008fe6:	d903      	bls.n	8008ff0 <_malloc_r+0x68>
 8008fe8:	6023      	str	r3, [r4, #0]
 8008fea:	441c      	add	r4, r3
 8008fec:	6025      	str	r5, [r4, #0]
 8008fee:	e004      	b.n	8008ffa <_malloc_r+0x72>
 8008ff0:	6863      	ldr	r3, [r4, #4]
 8008ff2:	42a2      	cmp	r2, r4
 8008ff4:	bf0c      	ite	eq
 8008ff6:	600b      	streq	r3, [r1, #0]
 8008ff8:	6053      	strne	r3, [r2, #4]
 8008ffa:	4630      	mov	r0, r6
 8008ffc:	f000 f834 	bl	8009068 <__malloc_unlock>
 8009000:	f104 000b 	add.w	r0, r4, #11
 8009004:	1d23      	adds	r3, r4, #4
 8009006:	f020 0007 	bic.w	r0, r0, #7
 800900a:	1ac2      	subs	r2, r0, r3
 800900c:	d0cc      	beq.n	8008fa8 <_malloc_r+0x20>
 800900e:	1a1b      	subs	r3, r3, r0
 8009010:	50a3      	str	r3, [r4, r2]
 8009012:	e7c9      	b.n	8008fa8 <_malloc_r+0x20>
 8009014:	4622      	mov	r2, r4
 8009016:	6864      	ldr	r4, [r4, #4]
 8009018:	e7cc      	b.n	8008fb4 <_malloc_r+0x2c>
 800901a:	1cc4      	adds	r4, r0, #3
 800901c:	f024 0403 	bic.w	r4, r4, #3
 8009020:	42a0      	cmp	r0, r4
 8009022:	d0e3      	beq.n	8008fec <_malloc_r+0x64>
 8009024:	1a21      	subs	r1, r4, r0
 8009026:	4630      	mov	r0, r6
 8009028:	f000 f808 	bl	800903c <_sbrk_r>
 800902c:	3001      	adds	r0, #1
 800902e:	d1dd      	bne.n	8008fec <_malloc_r+0x64>
 8009030:	e7cf      	b.n	8008fd2 <_malloc_r+0x4a>
 8009032:	bf00      	nop
 8009034:	20000288 	.word	0x20000288
 8009038:	2000028c 	.word	0x2000028c

0800903c <_sbrk_r>:
 800903c:	b538      	push	{r3, r4, r5, lr}
 800903e:	4d06      	ldr	r5, [pc, #24]	; (8009058 <_sbrk_r+0x1c>)
 8009040:	2300      	movs	r3, #0
 8009042:	4604      	mov	r4, r0
 8009044:	4608      	mov	r0, r1
 8009046:	602b      	str	r3, [r5, #0]
 8009048:	f7f9 fe88 	bl	8002d5c <_sbrk>
 800904c:	1c43      	adds	r3, r0, #1
 800904e:	d102      	bne.n	8009056 <_sbrk_r+0x1a>
 8009050:	682b      	ldr	r3, [r5, #0]
 8009052:	b103      	cbz	r3, 8009056 <_sbrk_r+0x1a>
 8009054:	6023      	str	r3, [r4, #0]
 8009056:	bd38      	pop	{r3, r4, r5, pc}
 8009058:	20001590 	.word	0x20001590

0800905c <__malloc_lock>:
 800905c:	4801      	ldr	r0, [pc, #4]	; (8009064 <__malloc_lock+0x8>)
 800905e:	f000 b809 	b.w	8009074 <__retarget_lock_acquire_recursive>
 8009062:	bf00      	nop
 8009064:	20001598 	.word	0x20001598

08009068 <__malloc_unlock>:
 8009068:	4801      	ldr	r0, [pc, #4]	; (8009070 <__malloc_unlock+0x8>)
 800906a:	f000 b804 	b.w	8009076 <__retarget_lock_release_recursive>
 800906e:	bf00      	nop
 8009070:	20001598 	.word	0x20001598

08009074 <__retarget_lock_acquire_recursive>:
 8009074:	4770      	bx	lr

08009076 <__retarget_lock_release_recursive>:
 8009076:	4770      	bx	lr

08009078 <_init>:
 8009078:	b5f8      	push	{r3, r4, r5, r6, r7, lr}
 800907a:	bf00      	nop
 800907c:	bcf8      	pop	{r3, r4, r5, r6, r7}
 800907e:	bc08      	pop	{r3}
 8009080:	469e      	mov	lr, r3
 8009082:	4770      	bx	lr

08009084 <_fini>:
 8009084:	b5f8      	push	{r3, r4, r5, r6, r7, lr}
 8009086:	bf00      	nop
 8009088:	bcf8      	pop	{r3, r4, r5, r6, r7}
 800908a:	bc08      	pop	{r3}
 800908c:	469e      	mov	lr, r3
 800908e:	4770      	bx	lr
